
windTunnelUSB.elf:     file format elf32-avr

Sections:
Idx Name          Size      VMA       LMA       File off  Algn
  0 .text         000082bc  00000000  00000000  00000094  2**1
                  CONTENTS, ALLOC, LOAD, READONLY, CODE
  1 .data         0000023e  00802000  000082bc  00008350  2**1
                  CONTENTS, ALLOC, LOAD, DATA
  2 .bss          00000726  0080223e  0080223e  0000858e  2**2
                  ALLOC
  3 .comment      0000005c  00000000  00000000  0000858e  2**0
                  CONTENTS, READONLY
  4 .note.gnu.avr.deviceinfo 00000044  00000000  00000000  000085ec  2**2
                  CONTENTS, READONLY
  5 .debug_aranges 00000ad8  00000000  00000000  00008630  2**3
                  CONTENTS, READONLY, DEBUGGING
  6 .debug_info   00010ccb  00000000  00000000  00009108  2**0
                  CONTENTS, READONLY, DEBUGGING
  7 .debug_abbrev 00005196  00000000  00000000  00019dd3  2**0
                  CONTENTS, READONLY, DEBUGGING
  8 .debug_line   0000bbd5  00000000  00000000  0001ef69  2**0
                  CONTENTS, READONLY, DEBUGGING
  9 .debug_frame  00003358  00000000  00000000  0002ab40  2**2
                  CONTENTS, READONLY, DEBUGGING
 10 .debug_str    000362b4  00000000  00000000  0002de98  2**0
                  CONTENTS, READONLY, DEBUGGING
 11 .debug_loc    00007103  00000000  00000000  0006414c  2**0
                  CONTENTS, READONLY, DEBUGGING
 12 .debug_ranges 000009e0  00000000  00000000  0006b250  2**3
                  CONTENTS, READONLY, DEBUGGING
 13 .debug_macro  0000c90d  00000000  00000000  0006bc30  2**0
                  CONTENTS, READONLY, DEBUGGING

Disassembly of section .text:

00000000 <__vectors>:
       0:	0b c1       	rjmp	.+534    	; 0x218 <__ctors_end>
       2:	00 00       	nop
       4:	2a c1       	rjmp	.+596    	; 0x25a <__bad_interrupt>
       6:	00 00       	nop
       8:	28 c1       	rjmp	.+592    	; 0x25a <__bad_interrupt>
       a:	00 00       	nop
       c:	26 c1       	rjmp	.+588    	; 0x25a <__bad_interrupt>
       e:	00 00       	nop
      10:	24 c1       	rjmp	.+584    	; 0x25a <__bad_interrupt>
      12:	00 00       	nop
      14:	22 c1       	rjmp	.+580    	; 0x25a <__bad_interrupt>
      16:	00 00       	nop
      18:	20 c1       	rjmp	.+576    	; 0x25a <__bad_interrupt>
      1a:	00 00       	nop
      1c:	1e c1       	rjmp	.+572    	; 0x25a <__bad_interrupt>
      1e:	00 00       	nop
      20:	1c c1       	rjmp	.+568    	; 0x25a <__bad_interrupt>
      22:	00 00       	nop
      24:	1a c1       	rjmp	.+564    	; 0x25a <__bad_interrupt>
      26:	00 00       	nop
      28:	18 c1       	rjmp	.+560    	; 0x25a <__bad_interrupt>
      2a:	00 00       	nop
      2c:	16 c1       	rjmp	.+556    	; 0x25a <__bad_interrupt>
      2e:	00 00       	nop
      30:	14 c1       	rjmp	.+552    	; 0x25a <__bad_interrupt>
      32:	00 00       	nop
      34:	12 c1       	rjmp	.+548    	; 0x25a <__bad_interrupt>
      36:	00 00       	nop
      38:	0c 94 a9 09 	jmp	0x1352	; 0x1352 <__vector_14>
      3c:	0c 94 e6 09 	jmp	0x13cc	; 0x13cc <__vector_15>
      40:	0c 94 23 0a 	jmp	0x1446	; 0x1446 <__vector_16>
      44:	0c 94 60 0a 	jmp	0x14c0	; 0x14c0 <__vector_17>
      48:	0c 94 9d 0a 	jmp	0x153a	; 0x153a <__vector_18>
      4c:	0c 94 da 0a 	jmp	0x15b4	; 0x15b4 <__vector_19>
      50:	0c 94 17 0b 	jmp	0x162e	; 0x162e <__vector_20>
      54:	0c 94 54 0b 	jmp	0x16a8	; 0x16a8 <__vector_21>
      58:	0c 94 91 0b 	jmp	0x1722	; 0x1722 <__vector_22>
      5c:	0c 94 ce 0b 	jmp	0x179c	; 0x179c <__vector_23>
      60:	fc c0       	rjmp	.+504    	; 0x25a <__bad_interrupt>
      62:	00 00       	nop
      64:	fa c0       	rjmp	.+500    	; 0x25a <__bad_interrupt>
      66:	00 00       	nop
      68:	f8 c0       	rjmp	.+496    	; 0x25a <__bad_interrupt>
      6a:	00 00       	nop
      6c:	f6 c0       	rjmp	.+492    	; 0x25a <__bad_interrupt>
      6e:	00 00       	nop
      70:	f4 c0       	rjmp	.+488    	; 0x25a <__bad_interrupt>
      72:	00 00       	nop
      74:	f2 c0       	rjmp	.+484    	; 0x25a <__bad_interrupt>
      76:	00 00       	nop
      78:	f0 c0       	rjmp	.+480    	; 0x25a <__bad_interrupt>
      7a:	00 00       	nop
      7c:	ee c0       	rjmp	.+476    	; 0x25a <__bad_interrupt>
      7e:	00 00       	nop
      80:	ec c0       	rjmp	.+472    	; 0x25a <__bad_interrupt>
      82:	00 00       	nop
      84:	ea c0       	rjmp	.+468    	; 0x25a <__bad_interrupt>
      86:	00 00       	nop
      88:	e8 c0       	rjmp	.+464    	; 0x25a <__bad_interrupt>
      8a:	00 00       	nop
      8c:	e6 c0       	rjmp	.+460    	; 0x25a <__bad_interrupt>
      8e:	00 00       	nop
      90:	e4 c0       	rjmp	.+456    	; 0x25a <__bad_interrupt>
      92:	00 00       	nop
      94:	e2 c0       	rjmp	.+452    	; 0x25a <__bad_interrupt>
      96:	00 00       	nop
      98:	e0 c0       	rjmp	.+448    	; 0x25a <__bad_interrupt>
      9a:	00 00       	nop
      9c:	a7 c2       	rjmp	.+1358   	; 0x5ec <__vector_39>
      9e:	00 00       	nop
      a0:	17 c3       	rjmp	.+1582   	; 0x6d0 <__vector_40>
      a2:	00 00       	nop
      a4:	87 c3       	rjmp	.+1806   	; 0x7b4 <__vector_41>
      a6:	00 00       	nop
      a8:	f7 c3       	rjmp	.+2030   	; 0x898 <__vector_42>
      aa:	00 00       	nop
      ac:	d6 c0       	rjmp	.+428    	; 0x25a <__bad_interrupt>
      ae:	00 00       	nop
      b0:	d4 c0       	rjmp	.+424    	; 0x25a <__bad_interrupt>
      b2:	00 00       	nop
      b4:	d2 c0       	rjmp	.+420    	; 0x25a <__bad_interrupt>
      b6:	00 00       	nop
      b8:	d0 c0       	rjmp	.+416    	; 0x25a <__bad_interrupt>
      ba:	00 00       	nop
      bc:	0c 94 6d 0e 	jmp	0x1cda	; 0x1cda <__vector_47>
      c0:	0c 94 aa 0e 	jmp	0x1d54	; 0x1d54 <__vector_48>
      c4:	0c 94 e7 0e 	jmp	0x1dce	; 0x1dce <__vector_49>
      c8:	0c 94 24 0f 	jmp	0x1e48	; 0x1e48 <__vector_50>
      cc:	0c 94 61 0f 	jmp	0x1ec2	; 0x1ec2 <__vector_51>
      d0:	0c 94 9e 0f 	jmp	0x1f3c	; 0x1f3c <__vector_52>
      d4:	0c 94 db 0f 	jmp	0x1fb6	; 0x1fb6 <__vector_53>
      d8:	0c 94 18 10 	jmp	0x2030	; 0x2030 <__vector_54>
      dc:	0c 94 55 10 	jmp	0x20aa	; 0x20aa <__vector_55>
      e0:	0c 94 92 10 	jmp	0x2124	; 0x2124 <__vector_56>
      e4:	ba c0       	rjmp	.+372    	; 0x25a <__bad_interrupt>
      e6:	00 00       	nop
      e8:	b8 c0       	rjmp	.+368    	; 0x25a <__bad_interrupt>
      ea:	00 00       	nop
      ec:	b6 c0       	rjmp	.+364    	; 0x25a <__bad_interrupt>
      ee:	00 00       	nop
      f0:	b4 c0       	rjmp	.+360    	; 0x25a <__bad_interrupt>
      f2:	00 00       	nop
      f4:	b2 c0       	rjmp	.+356    	; 0x25a <__bad_interrupt>
      f6:	00 00       	nop
      f8:	b0 c0       	rjmp	.+352    	; 0x25a <__bad_interrupt>
      fa:	00 00       	nop
      fc:	ae c0       	rjmp	.+348    	; 0x25a <__bad_interrupt>
      fe:	00 00       	nop
     100:	ac c0       	rjmp	.+344    	; 0x25a <__bad_interrupt>
     102:	00 00       	nop
     104:	aa c0       	rjmp	.+340    	; 0x25a <__bad_interrupt>
     106:	00 00       	nop
     108:	a8 c0       	rjmp	.+336    	; 0x25a <__bad_interrupt>
     10a:	00 00       	nop
     10c:	a6 c0       	rjmp	.+332    	; 0x25a <__bad_interrupt>
     10e:	00 00       	nop
     110:	a4 c0       	rjmp	.+328    	; 0x25a <__bad_interrupt>
     112:	00 00       	nop
     114:	a2 c0       	rjmp	.+324    	; 0x25a <__bad_interrupt>
     116:	00 00       	nop
     118:	a0 c0       	rjmp	.+320    	; 0x25a <__bad_interrupt>
     11a:	00 00       	nop
     11c:	9f c0       	rjmp	.+318    	; 0x25c <__vector_71>
     11e:	00 00       	nop
     120:	0f c1       	rjmp	.+542    	; 0x340 <__vector_72>
     122:	00 00       	nop
     124:	7f c1       	rjmp	.+766    	; 0x424 <__vector_73>
     126:	00 00       	nop
     128:	ef c1       	rjmp	.+990    	; 0x508 <__vector_74>
     12a:	00 00       	nop
     12c:	96 c0       	rjmp	.+300    	; 0x25a <__bad_interrupt>
     12e:	00 00       	nop
     130:	94 c0       	rjmp	.+296    	; 0x25a <__bad_interrupt>
     132:	00 00       	nop
     134:	0c 94 0b 0c 	jmp	0x1816	; 0x1816 <__vector_77>
     138:	0c 94 48 0c 	jmp	0x1890	; 0x1890 <__vector_78>
     13c:	0c 94 85 0c 	jmp	0x190a	; 0x190a <__vector_79>
     140:	0c 94 c2 0c 	jmp	0x1984	; 0x1984 <__vector_80>
     144:	0c 94 ff 0c 	jmp	0x19fe	; 0x19fe <__vector_81>
     148:	0c 94 3c 0d 	jmp	0x1a78	; 0x1a78 <__vector_82>
     14c:	0c 94 79 0d 	jmp	0x1af2	; 0x1af2 <__vector_83>
     150:	0c 94 b6 0d 	jmp	0x1b6c	; 0x1b6c <__vector_84>
     154:	0c 94 f3 0d 	jmp	0x1be6	; 0x1be6 <__vector_85>
     158:	0c 94 30 0e 	jmp	0x1c60	; 0x1c60 <__vector_86>
     15c:	7e c0       	rjmp	.+252    	; 0x25a <__bad_interrupt>
     15e:	00 00       	nop
     160:	7c c0       	rjmp	.+248    	; 0x25a <__bad_interrupt>
     162:	00 00       	nop
     164:	7a c0       	rjmp	.+244    	; 0x25a <__bad_interrupt>
     166:	00 00       	nop
     168:	78 c0       	rjmp	.+240    	; 0x25a <__bad_interrupt>
     16a:	00 00       	nop
     16c:	76 c0       	rjmp	.+236    	; 0x25a <__bad_interrupt>
     16e:	00 00       	nop
     170:	74 c0       	rjmp	.+232    	; 0x25a <__bad_interrupt>
     172:	00 00       	nop
     174:	72 c0       	rjmp	.+228    	; 0x25a <__bad_interrupt>
     176:	00 00       	nop
     178:	70 c0       	rjmp	.+224    	; 0x25a <__bad_interrupt>
     17a:	00 00       	nop
     17c:	6e c0       	rjmp	.+220    	; 0x25a <__bad_interrupt>
     17e:	00 00       	nop
     180:	6c c0       	rjmp	.+216    	; 0x25a <__bad_interrupt>
     182:	00 00       	nop
     184:	6a c0       	rjmp	.+212    	; 0x25a <__bad_interrupt>
     186:	00 00       	nop
     188:	68 c0       	rjmp	.+208    	; 0x25a <__bad_interrupt>
     18a:	00 00       	nop
     18c:	66 c0       	rjmp	.+204    	; 0x25a <__bad_interrupt>
     18e:	00 00       	nop
     190:	64 c0       	rjmp	.+200    	; 0x25a <__bad_interrupt>
     192:	00 00       	nop
     194:	62 c0       	rjmp	.+196    	; 0x25a <__bad_interrupt>
     196:	00 00       	nop
     198:	60 c0       	rjmp	.+192    	; 0x25a <__bad_interrupt>
     19a:	00 00       	nop
     19c:	5e c0       	rjmp	.+188    	; 0x25a <__bad_interrupt>
     19e:	00 00       	nop
     1a0:	5c c0       	rjmp	.+184    	; 0x25a <__bad_interrupt>
     1a2:	00 00       	nop
     1a4:	5a c0       	rjmp	.+180    	; 0x25a <__bad_interrupt>
     1a6:	00 00       	nop
     1a8:	58 c0       	rjmp	.+176    	; 0x25a <__bad_interrupt>
     1aa:	00 00       	nop
     1ac:	56 c0       	rjmp	.+172    	; 0x25a <__bad_interrupt>
     1ae:	00 00       	nop
     1b0:	0c 94 cf 10 	jmp	0x219e	; 0x219e <__vector_108>
     1b4:	0c 94 0c 11 	jmp	0x2218	; 0x2218 <__vector_109>
     1b8:	0c 94 49 11 	jmp	0x2292	; 0x2292 <__vector_110>
     1bc:	0c 94 86 11 	jmp	0x230c	; 0x230c <__vector_111>
     1c0:	0c 94 c3 11 	jmp	0x2386	; 0x2386 <__vector_112>
     1c4:	0c 94 00 12 	jmp	0x2400	; 0x2400 <__vector_113>
     1c8:	48 c0       	rjmp	.+144    	; 0x25a <__bad_interrupt>
     1ca:	00 00       	nop
     1cc:	46 c0       	rjmp	.+140    	; 0x25a <__bad_interrupt>
     1ce:	00 00       	nop
     1d0:	44 c0       	rjmp	.+136    	; 0x25a <__bad_interrupt>
     1d2:	00 00       	nop
     1d4:	42 c0       	rjmp	.+132    	; 0x25a <__bad_interrupt>
     1d6:	00 00       	nop
     1d8:	40 c0       	rjmp	.+128    	; 0x25a <__bad_interrupt>
     1da:	00 00       	nop
     1dc:	3e c0       	rjmp	.+124    	; 0x25a <__bad_interrupt>
     1de:	00 00       	nop
     1e0:	3c c0       	rjmp	.+120    	; 0x25a <__bad_interrupt>
     1e2:	00 00       	nop
     1e4:	3a c0       	rjmp	.+116    	; 0x25a <__bad_interrupt>
     1e6:	00 00       	nop
     1e8:	38 c0       	rjmp	.+112    	; 0x25a <__bad_interrupt>
     1ea:	00 00       	nop
     1ec:	36 c0       	rjmp	.+108    	; 0x25a <__bad_interrupt>
     1ee:	00 00       	nop
     1f0:	34 c0       	rjmp	.+104    	; 0x25a <__bad_interrupt>
     1f2:	00 00       	nop
     1f4:	0c 94 b8 32 	jmp	0x6570	; 0x6570 <__vector_125>
     1f8:	0c 94 5e 33 	jmp	0x66bc	; 0x66bc <__vector_126>
     1fc:	25 07       	cpc	r18, r21
     1fe:	46 07       	cpc	r20, r22
     200:	67 07       	cpc	r22, r23
     202:	88 07       	cpc	r24, r24
     204:	a9 07       	cpc	r26, r25
     206:	ca 07       	cpc	r28, r26
     208:	eb 07       	cpc	r30, r27
     20a:	e2 37       	cpi	r30, 0x72	; 114
     20c:	e5 37       	cpi	r30, 0x75	; 117
     20e:	e8 37       	cpi	r30, 0x78	; 120
     210:	eb 37       	cpi	r30, 0x7B	; 123
     212:	ee 37       	cpi	r30, 0x7E	; 126
     214:	f1 37       	cpi	r31, 0x71	; 113
     216:	f4 37       	cpi	r31, 0x74	; 116

00000218 <__ctors_end>:
     218:	11 24       	eor	r1, r1
     21a:	1f be       	out	0x3f, r1	; 63
     21c:	cf ef       	ldi	r28, 0xFF	; 255
     21e:	cd bf       	out	0x3d, r28	; 61
     220:	df e5       	ldi	r29, 0x5F	; 95
     222:	de bf       	out	0x3e, r29	; 62
     224:	00 e0       	ldi	r16, 0x00	; 0
     226:	0c bf       	out	0x3c, r16	; 60

00000228 <__do_copy_data>:
     228:	12 e2       	ldi	r17, 0x22	; 34
     22a:	a0 e0       	ldi	r26, 0x00	; 0
     22c:	b0 e2       	ldi	r27, 0x20	; 32
     22e:	ec eb       	ldi	r30, 0xBC	; 188
     230:	f2 e8       	ldi	r31, 0x82	; 130
     232:	00 e0       	ldi	r16, 0x00	; 0
     234:	0b bf       	out	0x3b, r16	; 59
     236:	02 c0       	rjmp	.+4      	; 0x23c <__do_copy_data+0x14>
     238:	07 90       	elpm	r0, Z+
     23a:	0d 92       	st	X+, r0
     23c:	ae 33       	cpi	r26, 0x3E	; 62
     23e:	b1 07       	cpc	r27, r17
     240:	d9 f7       	brne	.-10     	; 0x238 <__do_copy_data+0x10>

00000242 <__do_clear_bss>:
     242:	29 e2       	ldi	r18, 0x29	; 41
     244:	ae e3       	ldi	r26, 0x3E	; 62
     246:	b2 e2       	ldi	r27, 0x22	; 34
     248:	01 c0       	rjmp	.+2      	; 0x24c <.do_clear_bss_start>

0000024a <.do_clear_bss_loop>:
     24a:	1d 92       	st	X+, r1

0000024c <.do_clear_bss_start>:
     24c:	a4 36       	cpi	r26, 0x64	; 100
     24e:	b2 07       	cpc	r27, r18
     250:	e1 f7       	brne	.-8      	; 0x24a <.do_clear_bss_loop>
     252:	0e 94 d2 1c 	call	0x39a4	; 0x39a4 <main>
     256:	0c 94 5c 41 	jmp	0x82b8	; 0x82b8 <_exit>

0000025a <__bad_interrupt>:
     25a:	d2 ce       	rjmp	.-604    	; 0x0 <__vectors>

0000025c <__vector_71>:
     25c:	1f 92       	push	r1
     25e:	0f 92       	push	r0
     260:	00 90 3f 00 	lds	r0, 0x003F	; 0x80003f <__TEXT_REGION_LENGTH__+0x70003f>
     264:	0f 92       	push	r0
     266:	11 24       	eor	r1, r1
     268:	00 90 3b 00 	lds	r0, 0x003B	; 0x80003b <__TEXT_REGION_LENGTH__+0x70003b>
     26c:	0f 92       	push	r0
     26e:	2f 93       	push	r18
     270:	3f 93       	push	r19
     272:	4f 93       	push	r20
     274:	5f 93       	push	r21
     276:	6f 93       	push	r22
     278:	7f 93       	push	r23
     27a:	8f 93       	push	r24
     27c:	9f 93       	push	r25
     27e:	af 93       	push	r26
     280:	bf 93       	push	r27
     282:	ef 93       	push	r30
     284:	ff 93       	push	r31
     286:	cf 93       	push	r28
     288:	df 93       	push	r29
     28a:	00 d0       	rcall	.+0      	; 0x28c <__vector_71+0x30>
     28c:	1f 92       	push	r1
     28e:	cd b7       	in	r28, 0x3d	; 61
     290:	de b7       	in	r29, 0x3e	; 62
     292:	20 91 fc 28 	lds	r18, 0x28FC	; 0x8028fc <adca_callback>
     296:	30 91 fd 28 	lds	r19, 0x28FD	; 0x8028fd <adca_callback+0x1>
     29a:	80 e0       	ldi	r24, 0x00	; 0
     29c:	92 e0       	ldi	r25, 0x02	; 2
     29e:	89 83       	std	Y+1, r24	; 0x01
     2a0:	9a 83       	std	Y+2, r25	; 0x02
     2a2:	81 e0       	ldi	r24, 0x01	; 1
     2a4:	8b 83       	std	Y+3, r24	; 0x03
     2a6:	1c 82       	std	Y+4, r1	; 0x04
     2a8:	8b 81       	ldd	r24, Y+3	; 0x03
     2aa:	88 2f       	mov	r24, r24
     2ac:	90 e0       	ldi	r25, 0x00	; 0
     2ae:	83 70       	andi	r24, 0x03	; 3
     2b0:	99 27       	eor	r25, r25
     2b2:	89 2b       	or	r24, r25
     2b4:	39 f4       	brne	.+14     	; 0x2c4 <__vector_71+0x68>
     2b6:	8c 81       	ldd	r24, Y+4	; 0x04
     2b8:	8e 5f       	subi	r24, 0xFE	; 254
     2ba:	8c 83       	std	Y+4, r24	; 0x04
     2bc:	8b 81       	ldd	r24, Y+3	; 0x03
     2be:	86 95       	lsr	r24
     2c0:	86 95       	lsr	r24
     2c2:	8b 83       	std	Y+3, r24	; 0x03
     2c4:	8b 81       	ldd	r24, Y+3	; 0x03
     2c6:	88 2f       	mov	r24, r24
     2c8:	90 e0       	ldi	r25, 0x00	; 0
     2ca:	81 70       	andi	r24, 0x01	; 1
     2cc:	99 27       	eor	r25, r25
     2ce:	89 2b       	or	r24, r25
     2d0:	19 f4       	brne	.+6      	; 0x2d8 <__vector_71+0x7c>
     2d2:	8c 81       	ldd	r24, Y+4	; 0x04
     2d4:	8f 5f       	subi	r24, 0xFF	; 255
     2d6:	8c 83       	std	Y+4, r24	; 0x04
     2d8:	89 81       	ldd	r24, Y+1	; 0x01
     2da:	9a 81       	ldd	r25, Y+2	; 0x02
     2dc:	ac 01       	movw	r20, r24
     2de:	40 5e       	subi	r20, 0xE0	; 224
     2e0:	5f 4f       	sbci	r21, 0xFF	; 255
     2e2:	8c 81       	ldd	r24, Y+4	; 0x04
     2e4:	88 2f       	mov	r24, r24
     2e6:	90 e0       	ldi	r25, 0x00	; 0
     2e8:	88 0f       	add	r24, r24
     2ea:	99 1f       	adc	r25, r25
     2ec:	88 0f       	add	r24, r24
     2ee:	99 1f       	adc	r25, r25
     2f0:	88 0f       	add	r24, r24
     2f2:	99 1f       	adc	r25, r25
     2f4:	84 0f       	add	r24, r20
     2f6:	95 1f       	adc	r25, r21
     2f8:	fc 01       	movw	r30, r24
     2fa:	84 81       	ldd	r24, Z+4	; 0x04
     2fc:	95 81       	ldd	r25, Z+5	; 0x05
     2fe:	ac 01       	movw	r20, r24
     300:	61 e0       	ldi	r22, 0x01	; 1
     302:	80 e0       	ldi	r24, 0x00	; 0
     304:	92 e0       	ldi	r25, 0x02	; 2
     306:	f9 01       	movw	r30, r18
     308:	19 95       	eicall
     30a:	00 00       	nop
     30c:	24 96       	adiw	r28, 0x04	; 4
     30e:	cd bf       	out	0x3d, r28	; 61
     310:	de bf       	out	0x3e, r29	; 62
     312:	df 91       	pop	r29
     314:	cf 91       	pop	r28
     316:	ff 91       	pop	r31
     318:	ef 91       	pop	r30
     31a:	bf 91       	pop	r27
     31c:	af 91       	pop	r26
     31e:	9f 91       	pop	r25
     320:	8f 91       	pop	r24
     322:	7f 91       	pop	r23
     324:	6f 91       	pop	r22
     326:	5f 91       	pop	r21
     328:	4f 91       	pop	r20
     32a:	3f 91       	pop	r19
     32c:	2f 91       	pop	r18
     32e:	0f 90       	pop	r0
     330:	00 92 3b 00 	sts	0x003B, r0	; 0x80003b <__TEXT_REGION_LENGTH__+0x70003b>
     334:	0f 90       	pop	r0
     336:	00 92 3f 00 	sts	0x003F, r0	; 0x80003f <__TEXT_REGION_LENGTH__+0x70003f>
     33a:	0f 90       	pop	r0
     33c:	1f 90       	pop	r1
     33e:	18 95       	reti

00000340 <__vector_72>:
     340:	1f 92       	push	r1
     342:	0f 92       	push	r0
     344:	00 90 3f 00 	lds	r0, 0x003F	; 0x80003f <__TEXT_REGION_LENGTH__+0x70003f>
     348:	0f 92       	push	r0
     34a:	11 24       	eor	r1, r1
     34c:	00 90 3b 00 	lds	r0, 0x003B	; 0x80003b <__TEXT_REGION_LENGTH__+0x70003b>
     350:	0f 92       	push	r0
     352:	2f 93       	push	r18
     354:	3f 93       	push	r19
     356:	4f 93       	push	r20
     358:	5f 93       	push	r21
     35a:	6f 93       	push	r22
     35c:	7f 93       	push	r23
     35e:	8f 93       	push	r24
     360:	9f 93       	push	r25
     362:	af 93       	push	r26
     364:	bf 93       	push	r27
     366:	ef 93       	push	r30
     368:	ff 93       	push	r31
     36a:	cf 93       	push	r28
     36c:	df 93       	push	r29
     36e:	00 d0       	rcall	.+0      	; 0x370 <__vector_72+0x30>
     370:	1f 92       	push	r1
     372:	cd b7       	in	r28, 0x3d	; 61
     374:	de b7       	in	r29, 0x3e	; 62
     376:	20 91 fc 28 	lds	r18, 0x28FC	; 0x8028fc <adca_callback>
     37a:	30 91 fd 28 	lds	r19, 0x28FD	; 0x8028fd <adca_callback+0x1>
     37e:	80 e0       	ldi	r24, 0x00	; 0
     380:	92 e0       	ldi	r25, 0x02	; 2
     382:	89 83       	std	Y+1, r24	; 0x01
     384:	9a 83       	std	Y+2, r25	; 0x02
     386:	82 e0       	ldi	r24, 0x02	; 2
     388:	8b 83       	std	Y+3, r24	; 0x03
     38a:	1c 82       	std	Y+4, r1	; 0x04
     38c:	8b 81       	ldd	r24, Y+3	; 0x03
     38e:	88 2f       	mov	r24, r24
     390:	90 e0       	ldi	r25, 0x00	; 0
     392:	83 70       	andi	r24, 0x03	; 3
     394:	99 27       	eor	r25, r25
     396:	89 2b       	or	r24, r25
     398:	39 f4       	brne	.+14     	; 0x3a8 <__vector_72+0x68>
     39a:	8c 81       	ldd	r24, Y+4	; 0x04
     39c:	8e 5f       	subi	r24, 0xFE	; 254
     39e:	8c 83       	std	Y+4, r24	; 0x04
     3a0:	8b 81       	ldd	r24, Y+3	; 0x03
     3a2:	86 95       	lsr	r24
     3a4:	86 95       	lsr	r24
     3a6:	8b 83       	std	Y+3, r24	; 0x03
     3a8:	8b 81       	ldd	r24, Y+3	; 0x03
     3aa:	88 2f       	mov	r24, r24
     3ac:	90 e0       	ldi	r25, 0x00	; 0
     3ae:	81 70       	andi	r24, 0x01	; 1
     3b0:	99 27       	eor	r25, r25
     3b2:	89 2b       	or	r24, r25
     3b4:	19 f4       	brne	.+6      	; 0x3bc <__vector_72+0x7c>
     3b6:	8c 81       	ldd	r24, Y+4	; 0x04
     3b8:	8f 5f       	subi	r24, 0xFF	; 255
     3ba:	8c 83       	std	Y+4, r24	; 0x04
     3bc:	89 81       	ldd	r24, Y+1	; 0x01
     3be:	9a 81       	ldd	r25, Y+2	; 0x02
     3c0:	ac 01       	movw	r20, r24
     3c2:	40 5e       	subi	r20, 0xE0	; 224
     3c4:	5f 4f       	sbci	r21, 0xFF	; 255
     3c6:	8c 81       	ldd	r24, Y+4	; 0x04
     3c8:	88 2f       	mov	r24, r24
     3ca:	90 e0       	ldi	r25, 0x00	; 0
     3cc:	88 0f       	add	r24, r24
     3ce:	99 1f       	adc	r25, r25
     3d0:	88 0f       	add	r24, r24
     3d2:	99 1f       	adc	r25, r25
     3d4:	88 0f       	add	r24, r24
     3d6:	99 1f       	adc	r25, r25
     3d8:	84 0f       	add	r24, r20
     3da:	95 1f       	adc	r25, r21
     3dc:	fc 01       	movw	r30, r24
     3de:	84 81       	ldd	r24, Z+4	; 0x04
     3e0:	95 81       	ldd	r25, Z+5	; 0x05
     3e2:	ac 01       	movw	r20, r24
     3e4:	62 e0       	ldi	r22, 0x02	; 2
     3e6:	80 e0       	ldi	r24, 0x00	; 0
     3e8:	92 e0       	ldi	r25, 0x02	; 2
     3ea:	f9 01       	movw	r30, r18
     3ec:	19 95       	eicall
     3ee:	00 00       	nop
     3f0:	24 96       	adiw	r28, 0x04	; 4
     3f2:	cd bf       	out	0x3d, r28	; 61
     3f4:	de bf       	out	0x3e, r29	; 62
     3f6:	df 91       	pop	r29
     3f8:	cf 91       	pop	r28
     3fa:	ff 91       	pop	r31
     3fc:	ef 91       	pop	r30
     3fe:	bf 91       	pop	r27
     400:	af 91       	pop	r26
     402:	9f 91       	pop	r25
     404:	8f 91       	pop	r24
     406:	7f 91       	pop	r23
     408:	6f 91       	pop	r22
     40a:	5f 91       	pop	r21
     40c:	4f 91       	pop	r20
     40e:	3f 91       	pop	r19
     410:	2f 91       	pop	r18
     412:	0f 90       	pop	r0
     414:	00 92 3b 00 	sts	0x003B, r0	; 0x80003b <__TEXT_REGION_LENGTH__+0x70003b>
     418:	0f 90       	pop	r0
     41a:	00 92 3f 00 	sts	0x003F, r0	; 0x80003f <__TEXT_REGION_LENGTH__+0x70003f>
     41e:	0f 90       	pop	r0
     420:	1f 90       	pop	r1
     422:	18 95       	reti

00000424 <__vector_73>:
     424:	1f 92       	push	r1
     426:	0f 92       	push	r0
     428:	00 90 3f 00 	lds	r0, 0x003F	; 0x80003f <__TEXT_REGION_LENGTH__+0x70003f>
     42c:	0f 92       	push	r0
     42e:	11 24       	eor	r1, r1
     430:	00 90 3b 00 	lds	r0, 0x003B	; 0x80003b <__TEXT_REGION_LENGTH__+0x70003b>
     434:	0f 92       	push	r0
     436:	2f 93       	push	r18
     438:	3f 93       	push	r19
     43a:	4f 93       	push	r20
     43c:	5f 93       	push	r21
     43e:	6f 93       	push	r22
     440:	7f 93       	push	r23
     442:	8f 93       	push	r24
     444:	9f 93       	push	r25
     446:	af 93       	push	r26
     448:	bf 93       	push	r27
     44a:	ef 93       	push	r30
     44c:	ff 93       	push	r31
     44e:	cf 93       	push	r28
     450:	df 93       	push	r29
     452:	00 d0       	rcall	.+0      	; 0x454 <__vector_73+0x30>
     454:	1f 92       	push	r1
     456:	cd b7       	in	r28, 0x3d	; 61
     458:	de b7       	in	r29, 0x3e	; 62
     45a:	20 91 fc 28 	lds	r18, 0x28FC	; 0x8028fc <adca_callback>
     45e:	30 91 fd 28 	lds	r19, 0x28FD	; 0x8028fd <adca_callback+0x1>
     462:	80 e0       	ldi	r24, 0x00	; 0
     464:	92 e0       	ldi	r25, 0x02	; 2
     466:	89 83       	std	Y+1, r24	; 0x01
     468:	9a 83       	std	Y+2, r25	; 0x02
     46a:	84 e0       	ldi	r24, 0x04	; 4
     46c:	8b 83       	std	Y+3, r24	; 0x03
     46e:	1c 82       	std	Y+4, r1	; 0x04
     470:	8b 81       	ldd	r24, Y+3	; 0x03
     472:	88 2f       	mov	r24, r24
     474:	90 e0       	ldi	r25, 0x00	; 0
     476:	83 70       	andi	r24, 0x03	; 3
     478:	99 27       	eor	r25, r25
     47a:	89 2b       	or	r24, r25
     47c:	39 f4       	brne	.+14     	; 0x48c <__vector_73+0x68>
     47e:	8c 81       	ldd	r24, Y+4	; 0x04
     480:	8e 5f       	subi	r24, 0xFE	; 254
     482:	8c 83       	std	Y+4, r24	; 0x04
     484:	8b 81       	ldd	r24, Y+3	; 0x03
     486:	86 95       	lsr	r24
     488:	86 95       	lsr	r24
     48a:	8b 83       	std	Y+3, r24	; 0x03
     48c:	8b 81       	ldd	r24, Y+3	; 0x03
     48e:	88 2f       	mov	r24, r24
     490:	90 e0       	ldi	r25, 0x00	; 0
     492:	81 70       	andi	r24, 0x01	; 1
     494:	99 27       	eor	r25, r25
     496:	89 2b       	or	r24, r25
     498:	19 f4       	brne	.+6      	; 0x4a0 <__vector_73+0x7c>
     49a:	8c 81       	ldd	r24, Y+4	; 0x04
     49c:	8f 5f       	subi	r24, 0xFF	; 255
     49e:	8c 83       	std	Y+4, r24	; 0x04
     4a0:	89 81       	ldd	r24, Y+1	; 0x01
     4a2:	9a 81       	ldd	r25, Y+2	; 0x02
     4a4:	ac 01       	movw	r20, r24
     4a6:	40 5e       	subi	r20, 0xE0	; 224
     4a8:	5f 4f       	sbci	r21, 0xFF	; 255
     4aa:	8c 81       	ldd	r24, Y+4	; 0x04
     4ac:	88 2f       	mov	r24, r24
     4ae:	90 e0       	ldi	r25, 0x00	; 0
     4b0:	88 0f       	add	r24, r24
     4b2:	99 1f       	adc	r25, r25
     4b4:	88 0f       	add	r24, r24
     4b6:	99 1f       	adc	r25, r25
     4b8:	88 0f       	add	r24, r24
     4ba:	99 1f       	adc	r25, r25
     4bc:	84 0f       	add	r24, r20
     4be:	95 1f       	adc	r25, r21
     4c0:	fc 01       	movw	r30, r24
     4c2:	84 81       	ldd	r24, Z+4	; 0x04
     4c4:	95 81       	ldd	r25, Z+5	; 0x05
     4c6:	ac 01       	movw	r20, r24
     4c8:	64 e0       	ldi	r22, 0x04	; 4
     4ca:	80 e0       	ldi	r24, 0x00	; 0
     4cc:	92 e0       	ldi	r25, 0x02	; 2
     4ce:	f9 01       	movw	r30, r18
     4d0:	19 95       	eicall
     4d2:	00 00       	nop
     4d4:	24 96       	adiw	r28, 0x04	; 4
     4d6:	cd bf       	out	0x3d, r28	; 61
     4d8:	de bf       	out	0x3e, r29	; 62
     4da:	df 91       	pop	r29
     4dc:	cf 91       	pop	r28
     4de:	ff 91       	pop	r31
     4e0:	ef 91       	pop	r30
     4e2:	bf 91       	pop	r27
     4e4:	af 91       	pop	r26
     4e6:	9f 91       	pop	r25
     4e8:	8f 91       	pop	r24
     4ea:	7f 91       	pop	r23
     4ec:	6f 91       	pop	r22
     4ee:	5f 91       	pop	r21
     4f0:	4f 91       	pop	r20
     4f2:	3f 91       	pop	r19
     4f4:	2f 91       	pop	r18
     4f6:	0f 90       	pop	r0
     4f8:	00 92 3b 00 	sts	0x003B, r0	; 0x80003b <__TEXT_REGION_LENGTH__+0x70003b>
     4fc:	0f 90       	pop	r0
     4fe:	00 92 3f 00 	sts	0x003F, r0	; 0x80003f <__TEXT_REGION_LENGTH__+0x70003f>
     502:	0f 90       	pop	r0
     504:	1f 90       	pop	r1
     506:	18 95       	reti

00000508 <__vector_74>:
     508:	1f 92       	push	r1
     50a:	0f 92       	push	r0
     50c:	00 90 3f 00 	lds	r0, 0x003F	; 0x80003f <__TEXT_REGION_LENGTH__+0x70003f>
     510:	0f 92       	push	r0
     512:	11 24       	eor	r1, r1
     514:	00 90 3b 00 	lds	r0, 0x003B	; 0x80003b <__TEXT_REGION_LENGTH__+0x70003b>
     518:	0f 92       	push	r0
     51a:	2f 93       	push	r18
     51c:	3f 93       	push	r19
     51e:	4f 93       	push	r20
     520:	5f 93       	push	r21
     522:	6f 93       	push	r22
     524:	7f 93       	push	r23
     526:	8f 93       	push	r24
     528:	9f 93       	push	r25
     52a:	af 93       	push	r26
     52c:	bf 93       	push	r27
     52e:	ef 93       	push	r30
     530:	ff 93       	push	r31
     532:	cf 93       	push	r28
     534:	df 93       	push	r29
     536:	00 d0       	rcall	.+0      	; 0x538 <__vector_74+0x30>
     538:	1f 92       	push	r1
     53a:	cd b7       	in	r28, 0x3d	; 61
     53c:	de b7       	in	r29, 0x3e	; 62
     53e:	20 91 fc 28 	lds	r18, 0x28FC	; 0x8028fc <adca_callback>
     542:	30 91 fd 28 	lds	r19, 0x28FD	; 0x8028fd <adca_callback+0x1>
     546:	80 e0       	ldi	r24, 0x00	; 0
     548:	92 e0       	ldi	r25, 0x02	; 2
     54a:	89 83       	std	Y+1, r24	; 0x01
     54c:	9a 83       	std	Y+2, r25	; 0x02
     54e:	88 e0       	ldi	r24, 0x08	; 8
     550:	8b 83       	std	Y+3, r24	; 0x03
     552:	1c 82       	std	Y+4, r1	; 0x04
     554:	8b 81       	ldd	r24, Y+3	; 0x03
     556:	88 2f       	mov	r24, r24
     558:	90 e0       	ldi	r25, 0x00	; 0
     55a:	83 70       	andi	r24, 0x03	; 3
     55c:	99 27       	eor	r25, r25
     55e:	89 2b       	or	r24, r25
     560:	39 f4       	brne	.+14     	; 0x570 <__vector_74+0x68>
     562:	8c 81       	ldd	r24, Y+4	; 0x04
     564:	8e 5f       	subi	r24, 0xFE	; 254
     566:	8c 83       	std	Y+4, r24	; 0x04
     568:	8b 81       	ldd	r24, Y+3	; 0x03
     56a:	86 95       	lsr	r24
     56c:	86 95       	lsr	r24
     56e:	8b 83       	std	Y+3, r24	; 0x03
     570:	8b 81       	ldd	r24, Y+3	; 0x03
     572:	88 2f       	mov	r24, r24
     574:	90 e0       	ldi	r25, 0x00	; 0
     576:	81 70       	andi	r24, 0x01	; 1
     578:	99 27       	eor	r25, r25
     57a:	89 2b       	or	r24, r25
     57c:	19 f4       	brne	.+6      	; 0x584 <__vector_74+0x7c>
     57e:	8c 81       	ldd	r24, Y+4	; 0x04
     580:	8f 5f       	subi	r24, 0xFF	; 255
     582:	8c 83       	std	Y+4, r24	; 0x04
     584:	89 81       	ldd	r24, Y+1	; 0x01
     586:	9a 81       	ldd	r25, Y+2	; 0x02
     588:	ac 01       	movw	r20, r24
     58a:	40 5e       	subi	r20, 0xE0	; 224
     58c:	5f 4f       	sbci	r21, 0xFF	; 255
     58e:	8c 81       	ldd	r24, Y+4	; 0x04
     590:	88 2f       	mov	r24, r24
     592:	90 e0       	ldi	r25, 0x00	; 0
     594:	88 0f       	add	r24, r24
     596:	99 1f       	adc	r25, r25
     598:	88 0f       	add	r24, r24
     59a:	99 1f       	adc	r25, r25
     59c:	88 0f       	add	r24, r24
     59e:	99 1f       	adc	r25, r25
     5a0:	84 0f       	add	r24, r20
     5a2:	95 1f       	adc	r25, r21
     5a4:	fc 01       	movw	r30, r24
     5a6:	84 81       	ldd	r24, Z+4	; 0x04
     5a8:	95 81       	ldd	r25, Z+5	; 0x05
     5aa:	ac 01       	movw	r20, r24
     5ac:	68 e0       	ldi	r22, 0x08	; 8
     5ae:	80 e0       	ldi	r24, 0x00	; 0
     5b0:	92 e0       	ldi	r25, 0x02	; 2
     5b2:	f9 01       	movw	r30, r18
     5b4:	19 95       	eicall
     5b6:	00 00       	nop
     5b8:	24 96       	adiw	r28, 0x04	; 4
     5ba:	cd bf       	out	0x3d, r28	; 61
     5bc:	de bf       	out	0x3e, r29	; 62
     5be:	df 91       	pop	r29
     5c0:	cf 91       	pop	r28
     5c2:	ff 91       	pop	r31
     5c4:	ef 91       	pop	r30
     5c6:	bf 91       	pop	r27
     5c8:	af 91       	pop	r26
     5ca:	9f 91       	pop	r25
     5cc:	8f 91       	pop	r24
     5ce:	7f 91       	pop	r23
     5d0:	6f 91       	pop	r22
     5d2:	5f 91       	pop	r21
     5d4:	4f 91       	pop	r20
     5d6:	3f 91       	pop	r19
     5d8:	2f 91       	pop	r18
     5da:	0f 90       	pop	r0
     5dc:	00 92 3b 00 	sts	0x003B, r0	; 0x80003b <__TEXT_REGION_LENGTH__+0x70003b>
     5e0:	0f 90       	pop	r0
     5e2:	00 92 3f 00 	sts	0x003F, r0	; 0x80003f <__TEXT_REGION_LENGTH__+0x70003f>
     5e6:	0f 90       	pop	r0
     5e8:	1f 90       	pop	r1
     5ea:	18 95       	reti

000005ec <__vector_39>:
     5ec:	1f 92       	push	r1
     5ee:	0f 92       	push	r0
     5f0:	00 90 3f 00 	lds	r0, 0x003F	; 0x80003f <__TEXT_REGION_LENGTH__+0x70003f>
     5f4:	0f 92       	push	r0
     5f6:	11 24       	eor	r1, r1
     5f8:	00 90 3b 00 	lds	r0, 0x003B	; 0x80003b <__TEXT_REGION_LENGTH__+0x70003b>
     5fc:	0f 92       	push	r0
     5fe:	2f 93       	push	r18
     600:	3f 93       	push	r19
     602:	4f 93       	push	r20
     604:	5f 93       	push	r21
     606:	6f 93       	push	r22
     608:	7f 93       	push	r23
     60a:	8f 93       	push	r24
     60c:	9f 93       	push	r25
     60e:	af 93       	push	r26
     610:	bf 93       	push	r27
     612:	ef 93       	push	r30
     614:	ff 93       	push	r31
     616:	cf 93       	push	r28
     618:	df 93       	push	r29
     61a:	00 d0       	rcall	.+0      	; 0x61c <__vector_39+0x30>
     61c:	1f 92       	push	r1
     61e:	cd b7       	in	r28, 0x3d	; 61
     620:	de b7       	in	r29, 0x3e	; 62
     622:	20 91 fa 28 	lds	r18, 0x28FA	; 0x8028fa <adcb_callback>
     626:	30 91 fb 28 	lds	r19, 0x28FB	; 0x8028fb <adcb_callback+0x1>
     62a:	80 e4       	ldi	r24, 0x40	; 64
     62c:	92 e0       	ldi	r25, 0x02	; 2
     62e:	89 83       	std	Y+1, r24	; 0x01
     630:	9a 83       	std	Y+2, r25	; 0x02
     632:	81 e0       	ldi	r24, 0x01	; 1
     634:	8b 83       	std	Y+3, r24	; 0x03
     636:	1c 82       	std	Y+4, r1	; 0x04
     638:	8b 81       	ldd	r24, Y+3	; 0x03
     63a:	88 2f       	mov	r24, r24
     63c:	90 e0       	ldi	r25, 0x00	; 0
     63e:	83 70       	andi	r24, 0x03	; 3
     640:	99 27       	eor	r25, r25
     642:	89 2b       	or	r24, r25
     644:	39 f4       	brne	.+14     	; 0x654 <__vector_39+0x68>
     646:	8c 81       	ldd	r24, Y+4	; 0x04
     648:	8e 5f       	subi	r24, 0xFE	; 254
     64a:	8c 83       	std	Y+4, r24	; 0x04
     64c:	8b 81       	ldd	r24, Y+3	; 0x03
     64e:	86 95       	lsr	r24
     650:	86 95       	lsr	r24
     652:	8b 83       	std	Y+3, r24	; 0x03
     654:	8b 81       	ldd	r24, Y+3	; 0x03
     656:	88 2f       	mov	r24, r24
     658:	90 e0       	ldi	r25, 0x00	; 0
     65a:	81 70       	andi	r24, 0x01	; 1
     65c:	99 27       	eor	r25, r25
     65e:	89 2b       	or	r24, r25
     660:	19 f4       	brne	.+6      	; 0x668 <__vector_39+0x7c>
     662:	8c 81       	ldd	r24, Y+4	; 0x04
     664:	8f 5f       	subi	r24, 0xFF	; 255
     666:	8c 83       	std	Y+4, r24	; 0x04
     668:	89 81       	ldd	r24, Y+1	; 0x01
     66a:	9a 81       	ldd	r25, Y+2	; 0x02
     66c:	ac 01       	movw	r20, r24
     66e:	40 5e       	subi	r20, 0xE0	; 224
     670:	5f 4f       	sbci	r21, 0xFF	; 255
     672:	8c 81       	ldd	r24, Y+4	; 0x04
     674:	88 2f       	mov	r24, r24
     676:	90 e0       	ldi	r25, 0x00	; 0
     678:	88 0f       	add	r24, r24
     67a:	99 1f       	adc	r25, r25
     67c:	88 0f       	add	r24, r24
     67e:	99 1f       	adc	r25, r25
     680:	88 0f       	add	r24, r24
     682:	99 1f       	adc	r25, r25
     684:	84 0f       	add	r24, r20
     686:	95 1f       	adc	r25, r21
     688:	fc 01       	movw	r30, r24
     68a:	84 81       	ldd	r24, Z+4	; 0x04
     68c:	95 81       	ldd	r25, Z+5	; 0x05
     68e:	ac 01       	movw	r20, r24
     690:	61 e0       	ldi	r22, 0x01	; 1
     692:	80 e4       	ldi	r24, 0x40	; 64
     694:	92 e0       	ldi	r25, 0x02	; 2
     696:	f9 01       	movw	r30, r18
     698:	19 95       	eicall
     69a:	00 00       	nop
     69c:	24 96       	adiw	r28, 0x04	; 4
     69e:	cd bf       	out	0x3d, r28	; 61
     6a0:	de bf       	out	0x3e, r29	; 62
     6a2:	df 91       	pop	r29
     6a4:	cf 91       	pop	r28
     6a6:	ff 91       	pop	r31
     6a8:	ef 91       	pop	r30
     6aa:	bf 91       	pop	r27
     6ac:	af 91       	pop	r26
     6ae:	9f 91       	pop	r25
     6b0:	8f 91       	pop	r24
     6b2:	7f 91       	pop	r23
     6b4:	6f 91       	pop	r22
     6b6:	5f 91       	pop	r21
     6b8:	4f 91       	pop	r20
     6ba:	3f 91       	pop	r19
     6bc:	2f 91       	pop	r18
     6be:	0f 90       	pop	r0
     6c0:	00 92 3b 00 	sts	0x003B, r0	; 0x80003b <__TEXT_REGION_LENGTH__+0x70003b>
     6c4:	0f 90       	pop	r0
     6c6:	00 92 3f 00 	sts	0x003F, r0	; 0x80003f <__TEXT_REGION_LENGTH__+0x70003f>
     6ca:	0f 90       	pop	r0
     6cc:	1f 90       	pop	r1
     6ce:	18 95       	reti

000006d0 <__vector_40>:
     6d0:	1f 92       	push	r1
     6d2:	0f 92       	push	r0
     6d4:	00 90 3f 00 	lds	r0, 0x003F	; 0x80003f <__TEXT_REGION_LENGTH__+0x70003f>
     6d8:	0f 92       	push	r0
     6da:	11 24       	eor	r1, r1
     6dc:	00 90 3b 00 	lds	r0, 0x003B	; 0x80003b <__TEXT_REGION_LENGTH__+0x70003b>
     6e0:	0f 92       	push	r0
     6e2:	2f 93       	push	r18
     6e4:	3f 93       	push	r19
     6e6:	4f 93       	push	r20
     6e8:	5f 93       	push	r21
     6ea:	6f 93       	push	r22
     6ec:	7f 93       	push	r23
     6ee:	8f 93       	push	r24
     6f0:	9f 93       	push	r25
     6f2:	af 93       	push	r26
     6f4:	bf 93       	push	r27
     6f6:	ef 93       	push	r30
     6f8:	ff 93       	push	r31
     6fa:	cf 93       	push	r28
     6fc:	df 93       	push	r29
     6fe:	00 d0       	rcall	.+0      	; 0x700 <__vector_40+0x30>
     700:	1f 92       	push	r1
     702:	cd b7       	in	r28, 0x3d	; 61
     704:	de b7       	in	r29, 0x3e	; 62
     706:	20 91 fa 28 	lds	r18, 0x28FA	; 0x8028fa <adcb_callback>
     70a:	30 91 fb 28 	lds	r19, 0x28FB	; 0x8028fb <adcb_callback+0x1>
     70e:	80 e4       	ldi	r24, 0x40	; 64
     710:	92 e0       	ldi	r25, 0x02	; 2
     712:	89 83       	std	Y+1, r24	; 0x01
     714:	9a 83       	std	Y+2, r25	; 0x02
     716:	82 e0       	ldi	r24, 0x02	; 2
     718:	8b 83       	std	Y+3, r24	; 0x03
     71a:	1c 82       	std	Y+4, r1	; 0x04
     71c:	8b 81       	ldd	r24, Y+3	; 0x03
     71e:	88 2f       	mov	r24, r24
     720:	90 e0       	ldi	r25, 0x00	; 0
     722:	83 70       	andi	r24, 0x03	; 3
     724:	99 27       	eor	r25, r25
     726:	89 2b       	or	r24, r25
     728:	39 f4       	brne	.+14     	; 0x738 <__vector_40+0x68>
     72a:	8c 81       	ldd	r24, Y+4	; 0x04
     72c:	8e 5f       	subi	r24, 0xFE	; 254
     72e:	8c 83       	std	Y+4, r24	; 0x04
     730:	8b 81       	ldd	r24, Y+3	; 0x03
     732:	86 95       	lsr	r24
     734:	86 95       	lsr	r24
     736:	8b 83       	std	Y+3, r24	; 0x03
     738:	8b 81       	ldd	r24, Y+3	; 0x03
     73a:	88 2f       	mov	r24, r24
     73c:	90 e0       	ldi	r25, 0x00	; 0
     73e:	81 70       	andi	r24, 0x01	; 1
     740:	99 27       	eor	r25, r25
     742:	89 2b       	or	r24, r25
     744:	19 f4       	brne	.+6      	; 0x74c <__vector_40+0x7c>
     746:	8c 81       	ldd	r24, Y+4	; 0x04
     748:	8f 5f       	subi	r24, 0xFF	; 255
     74a:	8c 83       	std	Y+4, r24	; 0x04
     74c:	89 81       	ldd	r24, Y+1	; 0x01
     74e:	9a 81       	ldd	r25, Y+2	; 0x02
     750:	ac 01       	movw	r20, r24
     752:	40 5e       	subi	r20, 0xE0	; 224
     754:	5f 4f       	sbci	r21, 0xFF	; 255
     756:	8c 81       	ldd	r24, Y+4	; 0x04
     758:	88 2f       	mov	r24, r24
     75a:	90 e0       	ldi	r25, 0x00	; 0
     75c:	88 0f       	add	r24, r24
     75e:	99 1f       	adc	r25, r25
     760:	88 0f       	add	r24, r24
     762:	99 1f       	adc	r25, r25
     764:	88 0f       	add	r24, r24
     766:	99 1f       	adc	r25, r25
     768:	84 0f       	add	r24, r20
     76a:	95 1f       	adc	r25, r21
     76c:	fc 01       	movw	r30, r24
     76e:	84 81       	ldd	r24, Z+4	; 0x04
     770:	95 81       	ldd	r25, Z+5	; 0x05
     772:	ac 01       	movw	r20, r24
     774:	62 e0       	ldi	r22, 0x02	; 2
     776:	80 e4       	ldi	r24, 0x40	; 64
     778:	92 e0       	ldi	r25, 0x02	; 2
     77a:	f9 01       	movw	r30, r18
     77c:	19 95       	eicall
     77e:	00 00       	nop
     780:	24 96       	adiw	r28, 0x04	; 4
     782:	cd bf       	out	0x3d, r28	; 61
     784:	de bf       	out	0x3e, r29	; 62
     786:	df 91       	pop	r29
     788:	cf 91       	pop	r28
     78a:	ff 91       	pop	r31
     78c:	ef 91       	pop	r30
     78e:	bf 91       	pop	r27
     790:	af 91       	pop	r26
     792:	9f 91       	pop	r25
     794:	8f 91       	pop	r24
     796:	7f 91       	pop	r23
     798:	6f 91       	pop	r22
     79a:	5f 91       	pop	r21
     79c:	4f 91       	pop	r20
     79e:	3f 91       	pop	r19
     7a0:	2f 91       	pop	r18
     7a2:	0f 90       	pop	r0
     7a4:	00 92 3b 00 	sts	0x003B, r0	; 0x80003b <__TEXT_REGION_LENGTH__+0x70003b>
     7a8:	0f 90       	pop	r0
     7aa:	00 92 3f 00 	sts	0x003F, r0	; 0x80003f <__TEXT_REGION_LENGTH__+0x70003f>
     7ae:	0f 90       	pop	r0
     7b0:	1f 90       	pop	r1
     7b2:	18 95       	reti

000007b4 <__vector_41>:
     7b4:	1f 92       	push	r1
     7b6:	0f 92       	push	r0
     7b8:	00 90 3f 00 	lds	r0, 0x003F	; 0x80003f <__TEXT_REGION_LENGTH__+0x70003f>
     7bc:	0f 92       	push	r0
     7be:	11 24       	eor	r1, r1
     7c0:	00 90 3b 00 	lds	r0, 0x003B	; 0x80003b <__TEXT_REGION_LENGTH__+0x70003b>
     7c4:	0f 92       	push	r0
     7c6:	2f 93       	push	r18
     7c8:	3f 93       	push	r19
     7ca:	4f 93       	push	r20
     7cc:	5f 93       	push	r21
     7ce:	6f 93       	push	r22
     7d0:	7f 93       	push	r23
     7d2:	8f 93       	push	r24
     7d4:	9f 93       	push	r25
     7d6:	af 93       	push	r26
     7d8:	bf 93       	push	r27
     7da:	ef 93       	push	r30
     7dc:	ff 93       	push	r31
     7de:	cf 93       	push	r28
     7e0:	df 93       	push	r29
     7e2:	00 d0       	rcall	.+0      	; 0x7e4 <__vector_41+0x30>
     7e4:	1f 92       	push	r1
     7e6:	cd b7       	in	r28, 0x3d	; 61
     7e8:	de b7       	in	r29, 0x3e	; 62
     7ea:	20 91 fa 28 	lds	r18, 0x28FA	; 0x8028fa <adcb_callback>
     7ee:	30 91 fb 28 	lds	r19, 0x28FB	; 0x8028fb <adcb_callback+0x1>
     7f2:	80 e4       	ldi	r24, 0x40	; 64
     7f4:	92 e0       	ldi	r25, 0x02	; 2
     7f6:	89 83       	std	Y+1, r24	; 0x01
     7f8:	9a 83       	std	Y+2, r25	; 0x02
     7fa:	84 e0       	ldi	r24, 0x04	; 4
     7fc:	8b 83       	std	Y+3, r24	; 0x03
     7fe:	1c 82       	std	Y+4, r1	; 0x04
     800:	8b 81       	ldd	r24, Y+3	; 0x03
     802:	88 2f       	mov	r24, r24
     804:	90 e0       	ldi	r25, 0x00	; 0
     806:	83 70       	andi	r24, 0x03	; 3
     808:	99 27       	eor	r25, r25
     80a:	89 2b       	or	r24, r25
     80c:	39 f4       	brne	.+14     	; 0x81c <__vector_41+0x68>
     80e:	8c 81       	ldd	r24, Y+4	; 0x04
     810:	8e 5f       	subi	r24, 0xFE	; 254
     812:	8c 83       	std	Y+4, r24	; 0x04
     814:	8b 81       	ldd	r24, Y+3	; 0x03
     816:	86 95       	lsr	r24
     818:	86 95       	lsr	r24
     81a:	8b 83       	std	Y+3, r24	; 0x03
     81c:	8b 81       	ldd	r24, Y+3	; 0x03
     81e:	88 2f       	mov	r24, r24
     820:	90 e0       	ldi	r25, 0x00	; 0
     822:	81 70       	andi	r24, 0x01	; 1
     824:	99 27       	eor	r25, r25
     826:	89 2b       	or	r24, r25
     828:	19 f4       	brne	.+6      	; 0x830 <__vector_41+0x7c>
     82a:	8c 81       	ldd	r24, Y+4	; 0x04
     82c:	8f 5f       	subi	r24, 0xFF	; 255
     82e:	8c 83       	std	Y+4, r24	; 0x04
     830:	89 81       	ldd	r24, Y+1	; 0x01
     832:	9a 81       	ldd	r25, Y+2	; 0x02
     834:	ac 01       	movw	r20, r24
     836:	40 5e       	subi	r20, 0xE0	; 224
     838:	5f 4f       	sbci	r21, 0xFF	; 255
     83a:	8c 81       	ldd	r24, Y+4	; 0x04
     83c:	88 2f       	mov	r24, r24
     83e:	90 e0       	ldi	r25, 0x00	; 0
     840:	88 0f       	add	r24, r24
     842:	99 1f       	adc	r25, r25
     844:	88 0f       	add	r24, r24
     846:	99 1f       	adc	r25, r25
     848:	88 0f       	add	r24, r24
     84a:	99 1f       	adc	r25, r25
     84c:	84 0f       	add	r24, r20
     84e:	95 1f       	adc	r25, r21
     850:	fc 01       	movw	r30, r24
     852:	84 81       	ldd	r24, Z+4	; 0x04
     854:	95 81       	ldd	r25, Z+5	; 0x05
     856:	ac 01       	movw	r20, r24
     858:	64 e0       	ldi	r22, 0x04	; 4
     85a:	80 e4       	ldi	r24, 0x40	; 64
     85c:	92 e0       	ldi	r25, 0x02	; 2
     85e:	f9 01       	movw	r30, r18
     860:	19 95       	eicall
     862:	00 00       	nop
     864:	24 96       	adiw	r28, 0x04	; 4
     866:	cd bf       	out	0x3d, r28	; 61
     868:	de bf       	out	0x3e, r29	; 62
     86a:	df 91       	pop	r29
     86c:	cf 91       	pop	r28
     86e:	ff 91       	pop	r31
     870:	ef 91       	pop	r30
     872:	bf 91       	pop	r27
     874:	af 91       	pop	r26
     876:	9f 91       	pop	r25
     878:	8f 91       	pop	r24
     87a:	7f 91       	pop	r23
     87c:	6f 91       	pop	r22
     87e:	5f 91       	pop	r21
     880:	4f 91       	pop	r20
     882:	3f 91       	pop	r19
     884:	2f 91       	pop	r18
     886:	0f 90       	pop	r0
     888:	00 92 3b 00 	sts	0x003B, r0	; 0x80003b <__TEXT_REGION_LENGTH__+0x70003b>
     88c:	0f 90       	pop	r0
     88e:	00 92 3f 00 	sts	0x003F, r0	; 0x80003f <__TEXT_REGION_LENGTH__+0x70003f>
     892:	0f 90       	pop	r0
     894:	1f 90       	pop	r1
     896:	18 95       	reti

00000898 <__vector_42>:
     898:	1f 92       	push	r1
     89a:	0f 92       	push	r0
     89c:	00 90 3f 00 	lds	r0, 0x003F	; 0x80003f <__TEXT_REGION_LENGTH__+0x70003f>
     8a0:	0f 92       	push	r0
     8a2:	11 24       	eor	r1, r1
     8a4:	00 90 3b 00 	lds	r0, 0x003B	; 0x80003b <__TEXT_REGION_LENGTH__+0x70003b>
     8a8:	0f 92       	push	r0
     8aa:	2f 93       	push	r18
     8ac:	3f 93       	push	r19
     8ae:	4f 93       	push	r20
     8b0:	5f 93       	push	r21
     8b2:	6f 93       	push	r22
     8b4:	7f 93       	push	r23
     8b6:	8f 93       	push	r24
     8b8:	9f 93       	push	r25
     8ba:	af 93       	push	r26
     8bc:	bf 93       	push	r27
     8be:	ef 93       	push	r30
     8c0:	ff 93       	push	r31
     8c2:	cf 93       	push	r28
     8c4:	df 93       	push	r29
     8c6:	00 d0       	rcall	.+0      	; 0x8c8 <__vector_42+0x30>
     8c8:	1f 92       	push	r1
     8ca:	cd b7       	in	r28, 0x3d	; 61
     8cc:	de b7       	in	r29, 0x3e	; 62
     8ce:	20 91 fa 28 	lds	r18, 0x28FA	; 0x8028fa <adcb_callback>
     8d2:	30 91 fb 28 	lds	r19, 0x28FB	; 0x8028fb <adcb_callback+0x1>
     8d6:	80 e4       	ldi	r24, 0x40	; 64
     8d8:	92 e0       	ldi	r25, 0x02	; 2
     8da:	89 83       	std	Y+1, r24	; 0x01
     8dc:	9a 83       	std	Y+2, r25	; 0x02
     8de:	88 e0       	ldi	r24, 0x08	; 8
     8e0:	8b 83       	std	Y+3, r24	; 0x03
     8e2:	1c 82       	std	Y+4, r1	; 0x04
     8e4:	8b 81       	ldd	r24, Y+3	; 0x03
     8e6:	88 2f       	mov	r24, r24
     8e8:	90 e0       	ldi	r25, 0x00	; 0
     8ea:	83 70       	andi	r24, 0x03	; 3
     8ec:	99 27       	eor	r25, r25
     8ee:	89 2b       	or	r24, r25
     8f0:	39 f4       	brne	.+14     	; 0x900 <__vector_42+0x68>
     8f2:	8c 81       	ldd	r24, Y+4	; 0x04
     8f4:	8e 5f       	subi	r24, 0xFE	; 254
     8f6:	8c 83       	std	Y+4, r24	; 0x04
     8f8:	8b 81       	ldd	r24, Y+3	; 0x03
     8fa:	86 95       	lsr	r24
     8fc:	86 95       	lsr	r24
     8fe:	8b 83       	std	Y+3, r24	; 0x03
     900:	8b 81       	ldd	r24, Y+3	; 0x03
     902:	88 2f       	mov	r24, r24
     904:	90 e0       	ldi	r25, 0x00	; 0
     906:	81 70       	andi	r24, 0x01	; 1
     908:	99 27       	eor	r25, r25
     90a:	89 2b       	or	r24, r25
     90c:	19 f4       	brne	.+6      	; 0x914 <__vector_42+0x7c>
     90e:	8c 81       	ldd	r24, Y+4	; 0x04
     910:	8f 5f       	subi	r24, 0xFF	; 255
     912:	8c 83       	std	Y+4, r24	; 0x04
     914:	89 81       	ldd	r24, Y+1	; 0x01
     916:	9a 81       	ldd	r25, Y+2	; 0x02
     918:	ac 01       	movw	r20, r24
     91a:	40 5e       	subi	r20, 0xE0	; 224
     91c:	5f 4f       	sbci	r21, 0xFF	; 255
     91e:	8c 81       	ldd	r24, Y+4	; 0x04
     920:	88 2f       	mov	r24, r24
     922:	90 e0       	ldi	r25, 0x00	; 0
     924:	88 0f       	add	r24, r24
     926:	99 1f       	adc	r25, r25
     928:	88 0f       	add	r24, r24
     92a:	99 1f       	adc	r25, r25
     92c:	88 0f       	add	r24, r24
     92e:	99 1f       	adc	r25, r25
     930:	84 0f       	add	r24, r20
     932:	95 1f       	adc	r25, r21
     934:	fc 01       	movw	r30, r24
     936:	84 81       	ldd	r24, Z+4	; 0x04
     938:	95 81       	ldd	r25, Z+5	; 0x05
     93a:	ac 01       	movw	r20, r24
     93c:	68 e0       	ldi	r22, 0x08	; 8
     93e:	80 e4       	ldi	r24, 0x40	; 64
     940:	92 e0       	ldi	r25, 0x02	; 2
     942:	f9 01       	movw	r30, r18
     944:	19 95       	eicall
     946:	00 00       	nop
     948:	24 96       	adiw	r28, 0x04	; 4
     94a:	cd bf       	out	0x3d, r28	; 61
     94c:	de bf       	out	0x3e, r29	; 62
     94e:	df 91       	pop	r29
     950:	cf 91       	pop	r28
     952:	ff 91       	pop	r31
     954:	ef 91       	pop	r30
     956:	bf 91       	pop	r27
     958:	af 91       	pop	r26
     95a:	9f 91       	pop	r25
     95c:	8f 91       	pop	r24
     95e:	7f 91       	pop	r23
     960:	6f 91       	pop	r22
     962:	5f 91       	pop	r21
     964:	4f 91       	pop	r20
     966:	3f 91       	pop	r19
     968:	2f 91       	pop	r18
     96a:	0f 90       	pop	r0
     96c:	00 92 3b 00 	sts	0x003B, r0	; 0x80003b <__TEXT_REGION_LENGTH__+0x70003b>
     970:	0f 90       	pop	r0
     972:	00 92 3f 00 	sts	0x003F, r0	; 0x80003f <__TEXT_REGION_LENGTH__+0x70003f>
     976:	0f 90       	pop	r0
     978:	1f 90       	pop	r1
     97a:	18 95       	reti

0000097c <sysclk_get_main_hz>:
     97c:	cf 93       	push	r28
     97e:	df 93       	push	r29
     980:	cd b7       	in	r28, 0x3d	; 61
     982:	de b7       	in	r29, 0x3e	; 62
     984:	80 e0       	ldi	r24, 0x00	; 0
     986:	9c e6       	ldi	r25, 0x6C	; 108
     988:	ac ed       	ldi	r26, 0xDC	; 220
     98a:	b2 e0       	ldi	r27, 0x02	; 2
     98c:	bc 01       	movw	r22, r24
     98e:	cd 01       	movw	r24, r26
     990:	df 91       	pop	r29
     992:	cf 91       	pop	r28
     994:	08 95       	ret

00000996 <sysclk_get_per4_hz>:
     996:	cf 93       	push	r28
     998:	df 93       	push	r29
     99a:	1f 92       	push	r1
     99c:	cd b7       	in	r28, 0x3d	; 61
     99e:	de b7       	in	r29, 0x3e	; 62
     9a0:	19 82       	std	Y+1, r1	; 0x01
     9a2:	81 e0       	ldi	r24, 0x01	; 1
     9a4:	89 83       	std	Y+1, r24	; 0x01
     9a6:	ea df       	rcall	.-44     	; 0x97c <sysclk_get_main_hz>
     9a8:	dc 01       	movw	r26, r24
     9aa:	cb 01       	movw	r24, r22
     9ac:	29 81       	ldd	r18, Y+1	; 0x01
     9ae:	22 2f       	mov	r18, r18
     9b0:	30 e0       	ldi	r19, 0x00	; 0
     9b2:	04 c0       	rjmp	.+8      	; 0x9bc <sysclk_get_per4_hz+0x26>
     9b4:	b6 95       	lsr	r27
     9b6:	a7 95       	ror	r26
     9b8:	97 95       	ror	r25
     9ba:	87 95       	ror	r24
     9bc:	2a 95       	dec	r18
     9be:	d2 f7       	brpl	.-12     	; 0x9b4 <sysclk_get_per4_hz+0x1e>
     9c0:	bc 01       	movw	r22, r24
     9c2:	cd 01       	movw	r24, r26
     9c4:	0f 90       	pop	r0
     9c6:	df 91       	pop	r29
     9c8:	cf 91       	pop	r28
     9ca:	08 95       	ret

000009cc <sysclk_get_per2_hz>:
     9cc:	cf 93       	push	r28
     9ce:	df 93       	push	r29
     9d0:	cd b7       	in	r28, 0x3d	; 61
     9d2:	de b7       	in	r29, 0x3e	; 62
     9d4:	e0 df       	rcall	.-64     	; 0x996 <sysclk_get_per4_hz>
     9d6:	dc 01       	movw	r26, r24
     9d8:	cb 01       	movw	r24, r22
     9da:	bc 01       	movw	r22, r24
     9dc:	cd 01       	movw	r24, r26
     9de:	df 91       	pop	r29
     9e0:	cf 91       	pop	r28
     9e2:	08 95       	ret

000009e4 <sysclk_get_per_hz>:
     9e4:	cf 93       	push	r28
     9e6:	df 93       	push	r29
     9e8:	cd b7       	in	r28, 0x3d	; 61
     9ea:	de b7       	in	r29, 0x3e	; 62
     9ec:	ef df       	rcall	.-34     	; 0x9cc <sysclk_get_per2_hz>
     9ee:	dc 01       	movw	r26, r24
     9f0:	cb 01       	movw	r24, r22
     9f2:	bc 01       	movw	r22, r24
     9f4:	cd 01       	movw	r24, r26
     9f6:	df 91       	pop	r29
     9f8:	cf 91       	pop	r28
     9fa:	08 95       	ret

000009fc <sysclk_get_cpu_hz>:
     9fc:	cf 93       	push	r28
     9fe:	df 93       	push	r29
     a00:	cd b7       	in	r28, 0x3d	; 61
     a02:	de b7       	in	r29, 0x3e	; 62
     a04:	ef df       	rcall	.-34     	; 0x9e4 <sysclk_get_per_hz>
     a06:	dc 01       	movw	r26, r24
     a08:	cb 01       	movw	r24, r22
     a0a:	bc 01       	movw	r22, r24
     a0c:	cd 01       	movw	r24, r26
     a0e:	df 91       	pop	r29
     a10:	cf 91       	pop	r28
     a12:	08 95       	ret

00000a14 <tc_write_clock_source>:
     a14:	cf 93       	push	r28
     a16:	df 93       	push	r29
     a18:	00 d0       	rcall	.+0      	; 0xa1a <tc_write_clock_source+0x6>
     a1a:	cd b7       	in	r28, 0x3d	; 61
     a1c:	de b7       	in	r29, 0x3e	; 62
     a1e:	89 83       	std	Y+1, r24	; 0x01
     a20:	9a 83       	std	Y+2, r25	; 0x02
     a22:	6b 83       	std	Y+3, r22	; 0x03
     a24:	89 81       	ldd	r24, Y+1	; 0x01
     a26:	9a 81       	ldd	r25, Y+2	; 0x02
     a28:	fc 01       	movw	r30, r24
     a2a:	80 81       	ld	r24, Z
     a2c:	98 2f       	mov	r25, r24
     a2e:	90 7f       	andi	r25, 0xF0	; 240
     a30:	8b 81       	ldd	r24, Y+3	; 0x03
     a32:	89 2b       	or	r24, r25
     a34:	28 2f       	mov	r18, r24
     a36:	89 81       	ldd	r24, Y+1	; 0x01
     a38:	9a 81       	ldd	r25, Y+2	; 0x02
     a3a:	fc 01       	movw	r30, r24
     a3c:	20 83       	st	Z, r18
     a3e:	00 00       	nop
     a40:	23 96       	adiw	r28, 0x03	; 3
     a42:	cd bf       	out	0x3d, r28	; 61
     a44:	de bf       	out	0x3e, r29	; 62
     a46:	df 91       	pop	r29
     a48:	cf 91       	pop	r28
     a4a:	08 95       	ret

00000a4c <tc_write_period>:
     a4c:	cf 93       	push	r28
     a4e:	df 93       	push	r29
     a50:	00 d0       	rcall	.+0      	; 0xa52 <tc_write_period+0x6>
     a52:	1f 92       	push	r1
     a54:	cd b7       	in	r28, 0x3d	; 61
     a56:	de b7       	in	r29, 0x3e	; 62
     a58:	89 83       	std	Y+1, r24	; 0x01
     a5a:	9a 83       	std	Y+2, r25	; 0x02
     a5c:	6b 83       	std	Y+3, r22	; 0x03
     a5e:	7c 83       	std	Y+4, r23	; 0x04
     a60:	89 81       	ldd	r24, Y+1	; 0x01
     a62:	9a 81       	ldd	r25, Y+2	; 0x02
     a64:	2b 81       	ldd	r18, Y+3	; 0x03
     a66:	3c 81       	ldd	r19, Y+4	; 0x04
     a68:	fc 01       	movw	r30, r24
     a6a:	26 a3       	std	Z+38, r18	; 0x26
     a6c:	37 a3       	std	Z+39, r19	; 0x27
     a6e:	00 00       	nop
     a70:	24 96       	adiw	r28, 0x04	; 4
     a72:	cd bf       	out	0x3d, r28	; 61
     a74:	de bf       	out	0x3e, r29	; 62
     a76:	df 91       	pop	r29
     a78:	cf 91       	pop	r28
     a7a:	08 95       	ret

00000a7c <tc_enable_cc_channels>:
     a7c:	cf 93       	push	r28
     a7e:	df 93       	push	r29
     a80:	00 d0       	rcall	.+0      	; 0xa82 <tc_enable_cc_channels+0x6>
     a82:	cd b7       	in	r28, 0x3d	; 61
     a84:	de b7       	in	r29, 0x3e	; 62
     a86:	89 83       	std	Y+1, r24	; 0x01
     a88:	9a 83       	std	Y+2, r25	; 0x02
     a8a:	6b 83       	std	Y+3, r22	; 0x03
     a8c:	89 81       	ldd	r24, Y+1	; 0x01
     a8e:	9a 81       	ldd	r25, Y+2	; 0x02
     a90:	80 74       	andi	r24, 0x40	; 64
     a92:	99 27       	eor	r25, r25
     a94:	89 2b       	or	r24, r25
     a96:	61 f4       	brne	.+24     	; 0xab0 <tc_enable_cc_channels+0x34>
     a98:	89 81       	ldd	r24, Y+1	; 0x01
     a9a:	9a 81       	ldd	r25, Y+2	; 0x02
     a9c:	fc 01       	movw	r30, r24
     a9e:	91 81       	ldd	r25, Z+1	; 0x01
     aa0:	8b 81       	ldd	r24, Y+3	; 0x03
     aa2:	29 2f       	mov	r18, r25
     aa4:	28 2b       	or	r18, r24
     aa6:	89 81       	ldd	r24, Y+1	; 0x01
     aa8:	9a 81       	ldd	r25, Y+2	; 0x02
     aaa:	fc 01       	movw	r30, r24
     aac:	21 83       	std	Z+1, r18	; 0x01
     aae:	13 c0       	rjmp	.+38     	; 0xad6 <tc_enable_cc_channels+0x5a>
     ab0:	89 81       	ldd	r24, Y+1	; 0x01
     ab2:	9a 81       	ldd	r25, Y+2	; 0x02
     ab4:	80 74       	andi	r24, 0x40	; 64
     ab6:	99 27       	eor	r25, r25
     ab8:	89 2b       	or	r24, r25
     aba:	69 f0       	breq	.+26     	; 0xad6 <tc_enable_cc_channels+0x5a>
     abc:	89 81       	ldd	r24, Y+1	; 0x01
     abe:	9a 81       	ldd	r25, Y+2	; 0x02
     ac0:	fc 01       	movw	r30, r24
     ac2:	81 81       	ldd	r24, Z+1	; 0x01
     ac4:	98 2f       	mov	r25, r24
     ac6:	8b 81       	ldd	r24, Y+3	; 0x03
     ac8:	80 73       	andi	r24, 0x30	; 48
     aca:	89 2b       	or	r24, r25
     acc:	28 2f       	mov	r18, r24
     ace:	89 81       	ldd	r24, Y+1	; 0x01
     ad0:	9a 81       	ldd	r25, Y+2	; 0x02
     ad2:	fc 01       	movw	r30, r24
     ad4:	21 83       	std	Z+1, r18	; 0x01
     ad6:	00 00       	nop
     ad8:	23 96       	adiw	r28, 0x03	; 3
     ada:	cd bf       	out	0x3d, r28	; 61
     adc:	de bf       	out	0x3e, r29	; 62
     ade:	df 91       	pop	r29
     ae0:	cf 91       	pop	r28
     ae2:	08 95       	ret

00000ae4 <tc_write_cc_buffer>:
     ae4:	cf 93       	push	r28
     ae6:	df 93       	push	r29
     ae8:	cd b7       	in	r28, 0x3d	; 61
     aea:	de b7       	in	r29, 0x3e	; 62
     aec:	25 97       	sbiw	r28, 0x05	; 5
     aee:	cd bf       	out	0x3d, r28	; 61
     af0:	de bf       	out	0x3e, r29	; 62
     af2:	89 83       	std	Y+1, r24	; 0x01
     af4:	9a 83       	std	Y+2, r25	; 0x02
     af6:	6b 83       	std	Y+3, r22	; 0x03
     af8:	4c 83       	std	Y+4, r20	; 0x04
     afa:	5d 83       	std	Y+5, r21	; 0x05
     afc:	89 81       	ldd	r24, Y+1	; 0x01
     afe:	9a 81       	ldd	r25, Y+2	; 0x02
     b00:	80 74       	andi	r24, 0x40	; 64
     b02:	99 27       	eor	r25, r25
     b04:	89 2b       	or	r24, r25
     b06:	99 f5       	brne	.+102    	; 0xb6e <tc_write_cc_buffer+0x8a>
     b08:	8b 81       	ldd	r24, Y+3	; 0x03
     b0a:	88 2f       	mov	r24, r24
     b0c:	90 e0       	ldi	r25, 0x00	; 0
     b0e:	82 30       	cpi	r24, 0x02	; 2
     b10:	91 05       	cpc	r25, r1
     b12:	a1 f0       	breq	.+40     	; 0xb3c <tc_write_cc_buffer+0x58>
     b14:	83 30       	cpi	r24, 0x03	; 3
     b16:	91 05       	cpc	r25, r1
     b18:	1c f4       	brge	.+6      	; 0xb20 <tc_write_cc_buffer+0x3c>
     b1a:	01 97       	sbiw	r24, 0x01	; 1
     b1c:	39 f0       	breq	.+14     	; 0xb2c <tc_write_cc_buffer+0x48>
     b1e:	46 c0       	rjmp	.+140    	; 0xbac <tc_write_cc_buffer+0xc8>
     b20:	83 30       	cpi	r24, 0x03	; 3
     b22:	91 05       	cpc	r25, r1
     b24:	99 f0       	breq	.+38     	; 0xb4c <tc_write_cc_buffer+0x68>
     b26:	04 97       	sbiw	r24, 0x04	; 4
     b28:	c9 f0       	breq	.+50     	; 0xb5c <tc_write_cc_buffer+0x78>
     b2a:	40 c0       	rjmp	.+128    	; 0xbac <tc_write_cc_buffer+0xc8>
     b2c:	89 81       	ldd	r24, Y+1	; 0x01
     b2e:	9a 81       	ldd	r25, Y+2	; 0x02
     b30:	2c 81       	ldd	r18, Y+4	; 0x04
     b32:	3d 81       	ldd	r19, Y+5	; 0x05
     b34:	fc 01       	movw	r30, r24
     b36:	20 af       	std	Z+56, r18	; 0x38
     b38:	31 af       	std	Z+57, r19	; 0x39
     b3a:	38 c0       	rjmp	.+112    	; 0xbac <tc_write_cc_buffer+0xc8>
     b3c:	89 81       	ldd	r24, Y+1	; 0x01
     b3e:	9a 81       	ldd	r25, Y+2	; 0x02
     b40:	2c 81       	ldd	r18, Y+4	; 0x04
     b42:	3d 81       	ldd	r19, Y+5	; 0x05
     b44:	fc 01       	movw	r30, r24
     b46:	22 af       	std	Z+58, r18	; 0x3a
     b48:	33 af       	std	Z+59, r19	; 0x3b
     b4a:	30 c0       	rjmp	.+96     	; 0xbac <tc_write_cc_buffer+0xc8>
     b4c:	89 81       	ldd	r24, Y+1	; 0x01
     b4e:	9a 81       	ldd	r25, Y+2	; 0x02
     b50:	2c 81       	ldd	r18, Y+4	; 0x04
     b52:	3d 81       	ldd	r19, Y+5	; 0x05
     b54:	fc 01       	movw	r30, r24
     b56:	24 af       	std	Z+60, r18	; 0x3c
     b58:	35 af       	std	Z+61, r19	; 0x3d
     b5a:	28 c0       	rjmp	.+80     	; 0xbac <tc_write_cc_buffer+0xc8>
     b5c:	89 81       	ldd	r24, Y+1	; 0x01
     b5e:	9a 81       	ldd	r25, Y+2	; 0x02
     b60:	2c 81       	ldd	r18, Y+4	; 0x04
     b62:	3d 81       	ldd	r19, Y+5	; 0x05
     b64:	fc 01       	movw	r30, r24
     b66:	26 af       	std	Z+62, r18	; 0x3e
     b68:	37 af       	std	Z+63, r19	; 0x3f
     b6a:	00 00       	nop
     b6c:	1f c0       	rjmp	.+62     	; 0xbac <tc_write_cc_buffer+0xc8>
     b6e:	89 81       	ldd	r24, Y+1	; 0x01
     b70:	9a 81       	ldd	r25, Y+2	; 0x02
     b72:	80 74       	andi	r24, 0x40	; 64
     b74:	99 27       	eor	r25, r25
     b76:	89 2b       	or	r24, r25
     b78:	c9 f0       	breq	.+50     	; 0xbac <tc_write_cc_buffer+0xc8>
     b7a:	8b 81       	ldd	r24, Y+3	; 0x03
     b7c:	88 2f       	mov	r24, r24
     b7e:	90 e0       	ldi	r25, 0x00	; 0
     b80:	81 30       	cpi	r24, 0x01	; 1
     b82:	91 05       	cpc	r25, r1
     b84:	19 f0       	breq	.+6      	; 0xb8c <tc_write_cc_buffer+0xa8>
     b86:	02 97       	sbiw	r24, 0x02	; 2
     b88:	49 f0       	breq	.+18     	; 0xb9c <tc_write_cc_buffer+0xb8>
     b8a:	10 c0       	rjmp	.+32     	; 0xbac <tc_write_cc_buffer+0xc8>
     b8c:	89 81       	ldd	r24, Y+1	; 0x01
     b8e:	9a 81       	ldd	r25, Y+2	; 0x02
     b90:	2c 81       	ldd	r18, Y+4	; 0x04
     b92:	3d 81       	ldd	r19, Y+5	; 0x05
     b94:	fc 01       	movw	r30, r24
     b96:	20 af       	std	Z+56, r18	; 0x38
     b98:	31 af       	std	Z+57, r19	; 0x39
     b9a:	08 c0       	rjmp	.+16     	; 0xbac <tc_write_cc_buffer+0xc8>
     b9c:	89 81       	ldd	r24, Y+1	; 0x01
     b9e:	9a 81       	ldd	r25, Y+2	; 0x02
     ba0:	2c 81       	ldd	r18, Y+4	; 0x04
     ba2:	3d 81       	ldd	r19, Y+5	; 0x05
     ba4:	fc 01       	movw	r30, r24
     ba6:	22 af       	std	Z+58, r18	; 0x3a
     ba8:	33 af       	std	Z+59, r19	; 0x3b
     baa:	00 00       	nop
     bac:	25 96       	adiw	r28, 0x05	; 5
     bae:	cd bf       	out	0x3d, r28	; 61
     bb0:	de bf       	out	0x3e, r29	; 62
     bb2:	df 91       	pop	r29
     bb4:	cf 91       	pop	r28
     bb6:	08 95       	ret

00000bb8 <tc_set_wgm>:
     bb8:	cf 93       	push	r28
     bba:	df 93       	push	r29
     bbc:	00 d0       	rcall	.+0      	; 0xbbe <tc_set_wgm+0x6>
     bbe:	cd b7       	in	r28, 0x3d	; 61
     bc0:	de b7       	in	r29, 0x3e	; 62
     bc2:	89 83       	std	Y+1, r24	; 0x01
     bc4:	9a 83       	std	Y+2, r25	; 0x02
     bc6:	6b 83       	std	Y+3, r22	; 0x03
     bc8:	89 81       	ldd	r24, Y+1	; 0x01
     bca:	9a 81       	ldd	r25, Y+2	; 0x02
     bcc:	fc 01       	movw	r30, r24
     bce:	81 81       	ldd	r24, Z+1	; 0x01
     bd0:	98 2f       	mov	r25, r24
     bd2:	98 7f       	andi	r25, 0xF8	; 248
     bd4:	8b 81       	ldd	r24, Y+3	; 0x03
     bd6:	89 2b       	or	r24, r25
     bd8:	28 2f       	mov	r18, r24
     bda:	89 81       	ldd	r24, Y+1	; 0x01
     bdc:	9a 81       	ldd	r25, Y+2	; 0x02
     bde:	fc 01       	movw	r30, r24
     be0:	21 83       	std	Z+1, r18	; 0x01
     be2:	00 00       	nop
     be4:	23 96       	adiw	r28, 0x03	; 3
     be6:	cd bf       	out	0x3d, r28	; 61
     be8:	de bf       	out	0x3e, r29	; 62
     bea:	df 91       	pop	r29
     bec:	cf 91       	pop	r28
     bee:	08 95       	ret

00000bf0 <pwm_set_duty_cycle_percent>:
     bf0:	cf 93       	push	r28
     bf2:	df 93       	push	r29
     bf4:	00 d0       	rcall	.+0      	; 0xbf6 <pwm_set_duty_cycle_percent+0x6>
     bf6:	cd b7       	in	r28, 0x3d	; 61
     bf8:	de b7       	in	r29, 0x3e	; 62
     bfa:	89 83       	std	Y+1, r24	; 0x01
     bfc:	9a 83       	std	Y+2, r25	; 0x02
     bfe:	6b 83       	std	Y+3, r22	; 0x03
     c00:	89 81       	ldd	r24, Y+1	; 0x01
     c02:	9a 81       	ldd	r25, Y+2	; 0x02
     c04:	fc 01       	movw	r30, r24
     c06:	85 81       	ldd	r24, Z+5	; 0x05
     c08:	96 81       	ldd	r25, Z+6	; 0x06
     c0a:	9c 01       	movw	r18, r24
     c0c:	40 e0       	ldi	r20, 0x00	; 0
     c0e:	50 e0       	ldi	r21, 0x00	; 0
     c10:	8b 81       	ldd	r24, Y+3	; 0x03
     c12:	88 2f       	mov	r24, r24
     c14:	90 e0       	ldi	r25, 0x00	; 0
     c16:	a0 e0       	ldi	r26, 0x00	; 0
     c18:	b0 e0       	ldi	r27, 0x00	; 0
     c1a:	bc 01       	movw	r22, r24
     c1c:	cd 01       	movw	r24, r26
     c1e:	0e 94 a7 3c 	call	0x794e	; 0x794e <__mulsi3>
     c22:	dc 01       	movw	r26, r24
     c24:	cb 01       	movw	r24, r22
     c26:	24 e6       	ldi	r18, 0x64	; 100
     c28:	30 e0       	ldi	r19, 0x00	; 0
     c2a:	40 e0       	ldi	r20, 0x00	; 0
     c2c:	50 e0       	ldi	r21, 0x00	; 0
     c2e:	bc 01       	movw	r22, r24
     c30:	cd 01       	movw	r24, r26
     c32:	0e 94 ca 3c 	call	0x7994	; 0x7994 <__udivmodsi4>
     c36:	da 01       	movw	r26, r20
     c38:	c9 01       	movw	r24, r18
     c3a:	9c 01       	movw	r18, r24
     c3c:	89 81       	ldd	r24, Y+1	; 0x01
     c3e:	9a 81       	ldd	r25, Y+2	; 0x02
     c40:	fc 01       	movw	r30, r24
     c42:	62 81       	ldd	r22, Z+2	; 0x02
     c44:	89 81       	ldd	r24, Y+1	; 0x01
     c46:	9a 81       	ldd	r25, Y+2	; 0x02
     c48:	fc 01       	movw	r30, r24
     c4a:	80 81       	ld	r24, Z
     c4c:	91 81       	ldd	r25, Z+1	; 0x01
     c4e:	a9 01       	movw	r20, r18
     c50:	49 df       	rcall	.-366    	; 0xae4 <tc_write_cc_buffer>
     c52:	00 00       	nop
     c54:	23 96       	adiw	r28, 0x03	; 3
     c56:	cd bf       	out	0x3d, r28	; 61
     c58:	de bf       	out	0x3e, r29	; 62
     c5a:	df 91       	pop	r29
     c5c:	cf 91       	pop	r28
     c5e:	08 95       	ret

00000c60 <pwm_set_frequency>:
     c60:	ef 92       	push	r14
     c62:	ff 92       	push	r15
     c64:	0f 93       	push	r16
     c66:	1f 93       	push	r17
     c68:	cf 93       	push	r28
     c6a:	df 93       	push	r29
     c6c:	cd b7       	in	r28, 0x3d	; 61
     c6e:	de b7       	in	r29, 0x3e	; 62
     c70:	2c 97       	sbiw	r28, 0x0c	; 12
     c72:	cd bf       	out	0x3d, r28	; 61
     c74:	de bf       	out	0x3e, r29	; 62
     c76:	89 87       	std	Y+9, r24	; 0x09
     c78:	9a 87       	std	Y+10, r25	; 0x0a
     c7a:	6b 87       	std	Y+11, r22	; 0x0b
     c7c:	7c 87       	std	Y+12, r23	; 0x0c
     c7e:	be de       	rcall	.-644    	; 0x9fc <sysclk_get_cpu_hz>
     c80:	dc 01       	movw	r26, r24
     c82:	cb 01       	movw	r24, r22
     c84:	8b 83       	std	Y+3, r24	; 0x03
     c86:	9c 83       	std	Y+4, r25	; 0x04
     c88:	ad 83       	std	Y+5, r26	; 0x05
     c8a:	be 83       	std	Y+6, r27	; 0x06
     c8c:	8b 85       	ldd	r24, Y+11	; 0x0b
     c8e:	9c 85       	ldd	r25, Y+12	; 0x0c
     c90:	9c 01       	movw	r18, r24
     c92:	40 e0       	ldi	r20, 0x00	; 0
     c94:	50 e0       	ldi	r21, 0x00	; 0
     c96:	8b 81       	ldd	r24, Y+3	; 0x03
     c98:	9c 81       	ldd	r25, Y+4	; 0x04
     c9a:	ad 81       	ldd	r26, Y+5	; 0x05
     c9c:	be 81       	ldd	r27, Y+6	; 0x06
     c9e:	bc 01       	movw	r22, r24
     ca0:	cd 01       	movw	r24, r26
     ca2:	0e 94 ca 3c 	call	0x7994	; 0x7994 <__udivmodsi4>
     ca6:	da 01       	movw	r26, r20
     ca8:	c9 01       	movw	r24, r18
     caa:	2f ef       	ldi	r18, 0xFF	; 255
     cac:	3f ef       	ldi	r19, 0xFF	; 255
     cae:	40 e0       	ldi	r20, 0x00	; 0
     cb0:	50 e0       	ldi	r21, 0x00	; 0
     cb2:	bc 01       	movw	r22, r24
     cb4:	cd 01       	movw	r24, r26
     cb6:	0e 94 ca 3c 	call	0x7994	; 0x7994 <__udivmodsi4>
     cba:	da 01       	movw	r26, r20
     cbc:	c9 01       	movw	r24, r18
     cbe:	8f 83       	std	Y+7, r24	; 0x07
     cc0:	98 87       	std	Y+8, r25	; 0x08
     cc2:	8f 81       	ldd	r24, Y+7	; 0x07
     cc4:	98 85       	ldd	r25, Y+8	; 0x08
     cc6:	89 2b       	or	r24, r25
     cc8:	51 f4       	brne	.+20     	; 0xcde <pwm_set_frequency+0x7e>
     cca:	81 e0       	ldi	r24, 0x01	; 1
     ccc:	90 e0       	ldi	r25, 0x00	; 0
     cce:	89 83       	std	Y+1, r24	; 0x01
     cd0:	9a 83       	std	Y+2, r25	; 0x02
     cd2:	89 85       	ldd	r24, Y+9	; 0x09
     cd4:	9a 85       	ldd	r25, Y+10	; 0x0a
     cd6:	21 e0       	ldi	r18, 0x01	; 1
     cd8:	fc 01       	movw	r30, r24
     cda:	24 83       	std	Z+4, r18	; 0x04
     cdc:	52 c0       	rjmp	.+164    	; 0xd82 <pwm_set_frequency+0x122>
     cde:	8f 81       	ldd	r24, Y+7	; 0x07
     ce0:	98 85       	ldd	r25, Y+8	; 0x08
     ce2:	02 97       	sbiw	r24, 0x02	; 2
     ce4:	50 f4       	brcc	.+20     	; 0xcfa <pwm_set_frequency+0x9a>
     ce6:	82 e0       	ldi	r24, 0x02	; 2
     ce8:	90 e0       	ldi	r25, 0x00	; 0
     cea:	89 83       	std	Y+1, r24	; 0x01
     cec:	9a 83       	std	Y+2, r25	; 0x02
     cee:	89 85       	ldd	r24, Y+9	; 0x09
     cf0:	9a 85       	ldd	r25, Y+10	; 0x0a
     cf2:	22 e0       	ldi	r18, 0x02	; 2
     cf4:	fc 01       	movw	r30, r24
     cf6:	24 83       	std	Z+4, r18	; 0x04
     cf8:	44 c0       	rjmp	.+136    	; 0xd82 <pwm_set_frequency+0x122>
     cfa:	8f 81       	ldd	r24, Y+7	; 0x07
     cfc:	98 85       	ldd	r25, Y+8	; 0x08
     cfe:	04 97       	sbiw	r24, 0x04	; 4
     d00:	50 f4       	brcc	.+20     	; 0xd16 <pwm_set_frequency+0xb6>
     d02:	84 e0       	ldi	r24, 0x04	; 4
     d04:	90 e0       	ldi	r25, 0x00	; 0
     d06:	89 83       	std	Y+1, r24	; 0x01
     d08:	9a 83       	std	Y+2, r25	; 0x02
     d0a:	89 85       	ldd	r24, Y+9	; 0x09
     d0c:	9a 85       	ldd	r25, Y+10	; 0x0a
     d0e:	23 e0       	ldi	r18, 0x03	; 3
     d10:	fc 01       	movw	r30, r24
     d12:	24 83       	std	Z+4, r18	; 0x04
     d14:	36 c0       	rjmp	.+108    	; 0xd82 <pwm_set_frequency+0x122>
     d16:	8f 81       	ldd	r24, Y+7	; 0x07
     d18:	98 85       	ldd	r25, Y+8	; 0x08
     d1a:	08 97       	sbiw	r24, 0x08	; 8
     d1c:	50 f4       	brcc	.+20     	; 0xd32 <pwm_set_frequency+0xd2>
     d1e:	88 e0       	ldi	r24, 0x08	; 8
     d20:	90 e0       	ldi	r25, 0x00	; 0
     d22:	89 83       	std	Y+1, r24	; 0x01
     d24:	9a 83       	std	Y+2, r25	; 0x02
     d26:	89 85       	ldd	r24, Y+9	; 0x09
     d28:	9a 85       	ldd	r25, Y+10	; 0x0a
     d2a:	24 e0       	ldi	r18, 0x04	; 4
     d2c:	fc 01       	movw	r30, r24
     d2e:	24 83       	std	Z+4, r18	; 0x04
     d30:	28 c0       	rjmp	.+80     	; 0xd82 <pwm_set_frequency+0x122>
     d32:	8f 81       	ldd	r24, Y+7	; 0x07
     d34:	98 85       	ldd	r25, Y+8	; 0x08
     d36:	80 34       	cpi	r24, 0x40	; 64
     d38:	91 05       	cpc	r25, r1
     d3a:	50 f4       	brcc	.+20     	; 0xd50 <pwm_set_frequency+0xf0>
     d3c:	80 e4       	ldi	r24, 0x40	; 64
     d3e:	90 e0       	ldi	r25, 0x00	; 0
     d40:	89 83       	std	Y+1, r24	; 0x01
     d42:	9a 83       	std	Y+2, r25	; 0x02
     d44:	89 85       	ldd	r24, Y+9	; 0x09
     d46:	9a 85       	ldd	r25, Y+10	; 0x0a
     d48:	25 e0       	ldi	r18, 0x05	; 5
     d4a:	fc 01       	movw	r30, r24
     d4c:	24 83       	std	Z+4, r18	; 0x04
     d4e:	19 c0       	rjmp	.+50     	; 0xd82 <pwm_set_frequency+0x122>
     d50:	8f 81       	ldd	r24, Y+7	; 0x07
     d52:	98 85       	ldd	r25, Y+8	; 0x08
     d54:	8f 3f       	cpi	r24, 0xFF	; 255
     d56:	91 05       	cpc	r25, r1
     d58:	09 f0       	breq	.+2      	; 0xd5c <pwm_set_frequency+0xfc>
     d5a:	50 f4       	brcc	.+20     	; 0xd70 <pwm_set_frequency+0x110>
     d5c:	80 e0       	ldi	r24, 0x00	; 0
     d5e:	91 e0       	ldi	r25, 0x01	; 1
     d60:	89 83       	std	Y+1, r24	; 0x01
     d62:	9a 83       	std	Y+2, r25	; 0x02
     d64:	89 85       	ldd	r24, Y+9	; 0x09
     d66:	9a 85       	ldd	r25, Y+10	; 0x0a
     d68:	26 e0       	ldi	r18, 0x06	; 6
     d6a:	fc 01       	movw	r30, r24
     d6c:	24 83       	std	Z+4, r18	; 0x04
     d6e:	09 c0       	rjmp	.+18     	; 0xd82 <pwm_set_frequency+0x122>
     d70:	80 e0       	ldi	r24, 0x00	; 0
     d72:	94 e0       	ldi	r25, 0x04	; 4
     d74:	89 83       	std	Y+1, r24	; 0x01
     d76:	9a 83       	std	Y+2, r25	; 0x02
     d78:	89 85       	ldd	r24, Y+9	; 0x09
     d7a:	9a 85       	ldd	r25, Y+10	; 0x0a
     d7c:	27 e0       	ldi	r18, 0x07	; 7
     d7e:	fc 01       	movw	r30, r24
     d80:	24 83       	std	Z+4, r18	; 0x04
     d82:	89 81       	ldd	r24, Y+1	; 0x01
     d84:	9a 81       	ldd	r25, Y+2	; 0x02
     d86:	9c 01       	movw	r18, r24
     d88:	40 e0       	ldi	r20, 0x00	; 0
     d8a:	50 e0       	ldi	r21, 0x00	; 0
     d8c:	8b 81       	ldd	r24, Y+3	; 0x03
     d8e:	9c 81       	ldd	r25, Y+4	; 0x04
     d90:	ad 81       	ldd	r26, Y+5	; 0x05
     d92:	be 81       	ldd	r27, Y+6	; 0x06
     d94:	bc 01       	movw	r22, r24
     d96:	cd 01       	movw	r24, r26
     d98:	0e 94 ca 3c 	call	0x7994	; 0x7994 <__udivmodsi4>
     d9c:	da 01       	movw	r26, r20
     d9e:	c9 01       	movw	r24, r18
     da0:	7c 01       	movw	r14, r24
     da2:	8d 01       	movw	r16, r26
     da4:	8b 85       	ldd	r24, Y+11	; 0x0b
     da6:	9c 85       	ldd	r25, Y+12	; 0x0c
     da8:	9c 01       	movw	r18, r24
     daa:	40 e0       	ldi	r20, 0x00	; 0
     dac:	50 e0       	ldi	r21, 0x00	; 0
     dae:	c8 01       	movw	r24, r16
     db0:	b7 01       	movw	r22, r14
     db2:	0e 94 ca 3c 	call	0x7994	; 0x7994 <__udivmodsi4>
     db6:	da 01       	movw	r26, r20
     db8:	c9 01       	movw	r24, r18
     dba:	9c 01       	movw	r18, r24
     dbc:	89 85       	ldd	r24, Y+9	; 0x09
     dbe:	9a 85       	ldd	r25, Y+10	; 0x0a
     dc0:	fc 01       	movw	r30, r24
     dc2:	25 83       	std	Z+5, r18	; 0x05
     dc4:	36 83       	std	Z+6, r19	; 0x06
     dc6:	89 85       	ldd	r24, Y+9	; 0x09
     dc8:	9a 85       	ldd	r25, Y+10	; 0x0a
     dca:	fc 01       	movw	r30, r24
     dcc:	85 81       	ldd	r24, Z+5	; 0x05
     dce:	96 81       	ldd	r25, Z+6	; 0x06
     dd0:	84 36       	cpi	r24, 0x64	; 100
     dd2:	91 05       	cpc	r25, r1
     dd4:	48 f4       	brcc	.+18     	; 0xde8 <pwm_set_frequency+0x188>
     dd6:	89 85       	ldd	r24, Y+9	; 0x09
     dd8:	9a 85       	ldd	r25, Y+10	; 0x0a
     dda:	fc 01       	movw	r30, r24
     ddc:	14 82       	std	Z+4, r1	; 0x04
     dde:	89 85       	ldd	r24, Y+9	; 0x09
     de0:	9a 85       	ldd	r25, Y+10	; 0x0a
     de2:	fc 01       	movw	r30, r24
     de4:	15 82       	std	Z+5, r1	; 0x05
     de6:	16 82       	std	Z+6, r1	; 0x06
     de8:	00 00       	nop
     dea:	2c 96       	adiw	r28, 0x0c	; 12
     dec:	cd bf       	out	0x3d, r28	; 61
     dee:	de bf       	out	0x3e, r29	; 62
     df0:	df 91       	pop	r29
     df2:	cf 91       	pop	r28
     df4:	1f 91       	pop	r17
     df6:	0f 91       	pop	r16
     df8:	ff 90       	pop	r15
     dfa:	ef 90       	pop	r14
     dfc:	08 95       	ret

00000dfe <pwm_init>:
     dfe:	cf 93       	push	r28
     e00:	df 93       	push	r29
     e02:	cd b7       	in	r28, 0x3d	; 61
     e04:	de b7       	in	r29, 0x3e	; 62
     e06:	27 97       	sbiw	r28, 0x07	; 7
     e08:	cd bf       	out	0x3d, r28	; 61
     e0a:	de bf       	out	0x3e, r29	; 62
     e0c:	8a 83       	std	Y+2, r24	; 0x02
     e0e:	9b 83       	std	Y+3, r25	; 0x03
     e10:	6c 83       	std	Y+4, r22	; 0x04
     e12:	4d 83       	std	Y+5, r20	; 0x05
     e14:	2e 83       	std	Y+6, r18	; 0x06
     e16:	3f 83       	std	Y+7, r19	; 0x07
     e18:	19 82       	std	Y+1, r1	; 0x01
     e1a:	8c 81       	ldd	r24, Y+4	; 0x04
     e1c:	88 2f       	mov	r24, r24
     e1e:	90 e0       	ldi	r25, 0x00	; 0
     e20:	09 2e       	mov	r0, r25
     e22:	00 0c       	add	r0, r0
     e24:	aa 0b       	sbc	r26, r26
     e26:	bb 0b       	sbc	r27, r27
     e28:	40 e0       	ldi	r20, 0x00	; 0
     e2a:	50 e0       	ldi	r21, 0x00	; 0
     e2c:	26 e0       	ldi	r18, 0x06	; 6
     e2e:	30 e0       	ldi	r19, 0x00	; 0
     e30:	84 1b       	sub	r24, r20
     e32:	95 0b       	sbc	r25, r21
     e34:	28 17       	cp	r18, r24
     e36:	39 07       	cpc	r19, r25
     e38:	08 f4       	brcc	.+2      	; 0xe3c <pwm_init+0x3e>
     e3a:	ee c0       	rjmp	.+476    	; 0x1018 <pwm_init+0x21a>
     e3c:	fc 01       	movw	r30, r24
     e3e:	88 27       	eor	r24, r24
     e40:	e2 50       	subi	r30, 0x02	; 2
     e42:	ff 4f       	sbci	r31, 0xFF	; 255
     e44:	8f 4f       	sbci	r24, 0xFF	; 255
     e46:	0c 94 ec 3c 	jmp	0x79d8	; 0x79d8 <__tablejump2__>
     e4a:	8a 81       	ldd	r24, Y+2	; 0x02
     e4c:	9b 81       	ldd	r25, Y+3	; 0x03
     e4e:	20 e0       	ldi	r18, 0x00	; 0
     e50:	38 e0       	ldi	r19, 0x08	; 8
     e52:	fc 01       	movw	r30, r24
     e54:	20 83       	st	Z, r18
     e56:	31 83       	std	Z+1, r19	; 0x01
     e58:	80 e4       	ldi	r24, 0x40	; 64
     e5a:	96 e0       	ldi	r25, 0x06	; 6
     e5c:	20 e4       	ldi	r18, 0x40	; 64
     e5e:	36 e0       	ldi	r19, 0x06	; 6
     e60:	f9 01       	movw	r30, r18
     e62:	20 81       	ld	r18, Z
     e64:	62 2f       	mov	r22, r18
     e66:	2d 81       	ldd	r18, Y+5	; 0x05
     e68:	22 2f       	mov	r18, r18
     e6a:	30 e0       	ldi	r19, 0x00	; 0
     e6c:	a9 01       	movw	r20, r18
     e6e:	41 50       	subi	r20, 0x01	; 1
     e70:	51 09       	sbc	r21, r1
     e72:	21 e0       	ldi	r18, 0x01	; 1
     e74:	30 e0       	ldi	r19, 0x00	; 0
     e76:	02 c0       	rjmp	.+4      	; 0xe7c <pwm_init+0x7e>
     e78:	22 0f       	add	r18, r18
     e7a:	33 1f       	adc	r19, r19
     e7c:	4a 95       	dec	r20
     e7e:	e2 f7       	brpl	.-8      	; 0xe78 <pwm_init+0x7a>
     e80:	26 2b       	or	r18, r22
     e82:	fc 01       	movw	r30, r24
     e84:	20 83       	st	Z, r18
     e86:	84 e0       	ldi	r24, 0x04	; 4
     e88:	89 83       	std	Y+1, r24	; 0x01
     e8a:	c7 c0       	rjmp	.+398    	; 0x101a <pwm_init+0x21c>
     e8c:	8a 81       	ldd	r24, Y+2	; 0x02
     e8e:	9b 81       	ldd	r25, Y+3	; 0x03
     e90:	20 e4       	ldi	r18, 0x40	; 64
     e92:	38 e0       	ldi	r19, 0x08	; 8
     e94:	fc 01       	movw	r30, r24
     e96:	20 83       	st	Z, r18
     e98:	31 83       	std	Z+1, r19	; 0x01
     e9a:	80 e4       	ldi	r24, 0x40	; 64
     e9c:	96 e0       	ldi	r25, 0x06	; 6
     e9e:	20 e4       	ldi	r18, 0x40	; 64
     ea0:	36 e0       	ldi	r19, 0x06	; 6
     ea2:	f9 01       	movw	r30, r18
     ea4:	20 81       	ld	r18, Z
     ea6:	62 2f       	mov	r22, r18
     ea8:	2d 81       	ldd	r18, Y+5	; 0x05
     eaa:	22 2f       	mov	r18, r18
     eac:	30 e0       	ldi	r19, 0x00	; 0
     eae:	a9 01       	movw	r20, r18
     eb0:	4d 5f       	subi	r20, 0xFD	; 253
     eb2:	5f 4f       	sbci	r21, 0xFF	; 255
     eb4:	21 e0       	ldi	r18, 0x01	; 1
     eb6:	30 e0       	ldi	r19, 0x00	; 0
     eb8:	02 c0       	rjmp	.+4      	; 0xebe <pwm_init+0xc0>
     eba:	22 0f       	add	r18, r18
     ebc:	33 1f       	adc	r19, r19
     ebe:	4a 95       	dec	r20
     ec0:	e2 f7       	brpl	.-8      	; 0xeba <pwm_init+0xbc>
     ec2:	26 2b       	or	r18, r22
     ec4:	fc 01       	movw	r30, r24
     ec6:	20 83       	st	Z, r18
     ec8:	82 e0       	ldi	r24, 0x02	; 2
     eca:	89 83       	std	Y+1, r24	; 0x01
     ecc:	a6 c0       	rjmp	.+332    	; 0x101a <pwm_init+0x21c>
     ece:	8a 81       	ldd	r24, Y+2	; 0x02
     ed0:	9b 81       	ldd	r25, Y+3	; 0x03
     ed2:	20 e0       	ldi	r18, 0x00	; 0
     ed4:	39 e0       	ldi	r19, 0x09	; 9
     ed6:	fc 01       	movw	r30, r24
     ed8:	20 83       	st	Z, r18
     eda:	31 83       	std	Z+1, r19	; 0x01
     edc:	80 e6       	ldi	r24, 0x60	; 96
     ede:	96 e0       	ldi	r25, 0x06	; 6
     ee0:	20 e6       	ldi	r18, 0x60	; 96
     ee2:	36 e0       	ldi	r19, 0x06	; 6
     ee4:	f9 01       	movw	r30, r18
     ee6:	20 81       	ld	r18, Z
     ee8:	62 2f       	mov	r22, r18
     eea:	2d 81       	ldd	r18, Y+5	; 0x05
     eec:	22 2f       	mov	r18, r18
     eee:	30 e0       	ldi	r19, 0x00	; 0
     ef0:	a9 01       	movw	r20, r18
     ef2:	41 50       	subi	r20, 0x01	; 1
     ef4:	51 09       	sbc	r21, r1
     ef6:	21 e0       	ldi	r18, 0x01	; 1
     ef8:	30 e0       	ldi	r19, 0x00	; 0
     efa:	02 c0       	rjmp	.+4      	; 0xf00 <pwm_init+0x102>
     efc:	22 0f       	add	r18, r18
     efe:	33 1f       	adc	r19, r19
     f00:	4a 95       	dec	r20
     f02:	e2 f7       	brpl	.-8      	; 0xefc <pwm_init+0xfe>
     f04:	26 2b       	or	r18, r22
     f06:	fc 01       	movw	r30, r24
     f08:	20 83       	st	Z, r18
     f0a:	84 e0       	ldi	r24, 0x04	; 4
     f0c:	89 83       	std	Y+1, r24	; 0x01
     f0e:	85 c0       	rjmp	.+266    	; 0x101a <pwm_init+0x21c>
     f10:	8a 81       	ldd	r24, Y+2	; 0x02
     f12:	9b 81       	ldd	r25, Y+3	; 0x03
     f14:	20 e4       	ldi	r18, 0x40	; 64
     f16:	39 e0       	ldi	r19, 0x09	; 9
     f18:	fc 01       	movw	r30, r24
     f1a:	20 83       	st	Z, r18
     f1c:	31 83       	std	Z+1, r19	; 0x01
     f1e:	80 e6       	ldi	r24, 0x60	; 96
     f20:	96 e0       	ldi	r25, 0x06	; 6
     f22:	20 e6       	ldi	r18, 0x60	; 96
     f24:	36 e0       	ldi	r19, 0x06	; 6
     f26:	f9 01       	movw	r30, r18
     f28:	20 81       	ld	r18, Z
     f2a:	62 2f       	mov	r22, r18
     f2c:	2d 81       	ldd	r18, Y+5	; 0x05
     f2e:	22 2f       	mov	r18, r18
     f30:	30 e0       	ldi	r19, 0x00	; 0
     f32:	a9 01       	movw	r20, r18
     f34:	4d 5f       	subi	r20, 0xFD	; 253
     f36:	5f 4f       	sbci	r21, 0xFF	; 255
     f38:	21 e0       	ldi	r18, 0x01	; 1
     f3a:	30 e0       	ldi	r19, 0x00	; 0
     f3c:	02 c0       	rjmp	.+4      	; 0xf42 <pwm_init+0x144>
     f3e:	22 0f       	add	r18, r18
     f40:	33 1f       	adc	r19, r19
     f42:	4a 95       	dec	r20
     f44:	e2 f7       	brpl	.-8      	; 0xf3e <pwm_init+0x140>
     f46:	26 2b       	or	r18, r22
     f48:	fc 01       	movw	r30, r24
     f4a:	20 83       	st	Z, r18
     f4c:	82 e0       	ldi	r24, 0x02	; 2
     f4e:	89 83       	std	Y+1, r24	; 0x01
     f50:	64 c0       	rjmp	.+200    	; 0x101a <pwm_init+0x21c>
     f52:	8a 81       	ldd	r24, Y+2	; 0x02
     f54:	9b 81       	ldd	r25, Y+3	; 0x03
     f56:	20 e0       	ldi	r18, 0x00	; 0
     f58:	3a e0       	ldi	r19, 0x0A	; 10
     f5a:	fc 01       	movw	r30, r24
     f5c:	20 83       	st	Z, r18
     f5e:	31 83       	std	Z+1, r19	; 0x01
     f60:	80 e8       	ldi	r24, 0x80	; 128
     f62:	96 e0       	ldi	r25, 0x06	; 6
     f64:	20 e8       	ldi	r18, 0x80	; 128
     f66:	36 e0       	ldi	r19, 0x06	; 6
     f68:	f9 01       	movw	r30, r18
     f6a:	20 81       	ld	r18, Z
     f6c:	62 2f       	mov	r22, r18
     f6e:	2d 81       	ldd	r18, Y+5	; 0x05
     f70:	22 2f       	mov	r18, r18
     f72:	30 e0       	ldi	r19, 0x00	; 0
     f74:	a9 01       	movw	r20, r18
     f76:	41 50       	subi	r20, 0x01	; 1
     f78:	51 09       	sbc	r21, r1
     f7a:	21 e0       	ldi	r18, 0x01	; 1
     f7c:	30 e0       	ldi	r19, 0x00	; 0
     f7e:	02 c0       	rjmp	.+4      	; 0xf84 <pwm_init+0x186>
     f80:	22 0f       	add	r18, r18
     f82:	33 1f       	adc	r19, r19
     f84:	4a 95       	dec	r20
     f86:	e2 f7       	brpl	.-8      	; 0xf80 <pwm_init+0x182>
     f88:	26 2b       	or	r18, r22
     f8a:	fc 01       	movw	r30, r24
     f8c:	20 83       	st	Z, r18
     f8e:	84 e0       	ldi	r24, 0x04	; 4
     f90:	89 83       	std	Y+1, r24	; 0x01
     f92:	43 c0       	rjmp	.+134    	; 0x101a <pwm_init+0x21c>
     f94:	8a 81       	ldd	r24, Y+2	; 0x02
     f96:	9b 81       	ldd	r25, Y+3	; 0x03
     f98:	20 e4       	ldi	r18, 0x40	; 64
     f9a:	3a e0       	ldi	r19, 0x0A	; 10
     f9c:	fc 01       	movw	r30, r24
     f9e:	20 83       	st	Z, r18
     fa0:	31 83       	std	Z+1, r19	; 0x01
     fa2:	80 e8       	ldi	r24, 0x80	; 128
     fa4:	96 e0       	ldi	r25, 0x06	; 6
     fa6:	20 e8       	ldi	r18, 0x80	; 128
     fa8:	36 e0       	ldi	r19, 0x06	; 6
     faa:	f9 01       	movw	r30, r18
     fac:	20 81       	ld	r18, Z
     fae:	62 2f       	mov	r22, r18
     fb0:	2d 81       	ldd	r18, Y+5	; 0x05
     fb2:	22 2f       	mov	r18, r18
     fb4:	30 e0       	ldi	r19, 0x00	; 0
     fb6:	a9 01       	movw	r20, r18
     fb8:	4d 5f       	subi	r20, 0xFD	; 253
     fba:	5f 4f       	sbci	r21, 0xFF	; 255
     fbc:	21 e0       	ldi	r18, 0x01	; 1
     fbe:	30 e0       	ldi	r19, 0x00	; 0
     fc0:	02 c0       	rjmp	.+4      	; 0xfc6 <pwm_init+0x1c8>
     fc2:	22 0f       	add	r18, r18
     fc4:	33 1f       	adc	r19, r19
     fc6:	4a 95       	dec	r20
     fc8:	e2 f7       	brpl	.-8      	; 0xfc2 <pwm_init+0x1c4>
     fca:	26 2b       	or	r18, r22
     fcc:	fc 01       	movw	r30, r24
     fce:	20 83       	st	Z, r18
     fd0:	82 e0       	ldi	r24, 0x02	; 2
     fd2:	89 83       	std	Y+1, r24	; 0x01
     fd4:	22 c0       	rjmp	.+68     	; 0x101a <pwm_init+0x21c>
     fd6:	8a 81       	ldd	r24, Y+2	; 0x02
     fd8:	9b 81       	ldd	r25, Y+3	; 0x03
     fda:	20 e0       	ldi	r18, 0x00	; 0
     fdc:	3b e0       	ldi	r19, 0x0B	; 11
     fde:	fc 01       	movw	r30, r24
     fe0:	20 83       	st	Z, r18
     fe2:	31 83       	std	Z+1, r19	; 0x01
     fe4:	80 ea       	ldi	r24, 0xA0	; 160
     fe6:	96 e0       	ldi	r25, 0x06	; 6
     fe8:	20 ea       	ldi	r18, 0xA0	; 160
     fea:	36 e0       	ldi	r19, 0x06	; 6
     fec:	f9 01       	movw	r30, r18
     fee:	20 81       	ld	r18, Z
     ff0:	62 2f       	mov	r22, r18
     ff2:	2d 81       	ldd	r18, Y+5	; 0x05
     ff4:	22 2f       	mov	r18, r18
     ff6:	30 e0       	ldi	r19, 0x00	; 0
     ff8:	a9 01       	movw	r20, r18
     ffa:	41 50       	subi	r20, 0x01	; 1
     ffc:	51 09       	sbc	r21, r1
     ffe:	21 e0       	ldi	r18, 0x01	; 1
    1000:	30 e0       	ldi	r19, 0x00	; 0
    1002:	02 c0       	rjmp	.+4      	; 0x1008 <pwm_init+0x20a>
    1004:	22 0f       	add	r18, r18
    1006:	33 1f       	adc	r19, r19
    1008:	4a 95       	dec	r20
    100a:	e2 f7       	brpl	.-8      	; 0x1004 <pwm_init+0x206>
    100c:	26 2b       	or	r18, r22
    100e:	fc 01       	movw	r30, r24
    1010:	20 83       	st	Z, r18
    1012:	84 e0       	ldi	r24, 0x04	; 4
    1014:	89 83       	std	Y+1, r24	; 0x01
    1016:	01 c0       	rjmp	.+2      	; 0x101a <pwm_init+0x21c>
    1018:	00 00       	nop
    101a:	8a 81       	ldd	r24, Y+2	; 0x02
    101c:	9b 81       	ldd	r25, Y+3	; 0x03
    101e:	2d 81       	ldd	r18, Y+5	; 0x05
    1020:	fc 01       	movw	r30, r24
    1022:	22 83       	std	Z+2, r18	; 0x02
    1024:	8d 81       	ldd	r24, Y+5	; 0x05
    1026:	88 2f       	mov	r24, r24
    1028:	90 e0       	ldi	r25, 0x00	; 0
    102a:	82 30       	cpi	r24, 0x02	; 2
    102c:	91 05       	cpc	r25, r1
    102e:	91 f0       	breq	.+36     	; 0x1054 <pwm_init+0x256>
    1030:	83 30       	cpi	r24, 0x03	; 3
    1032:	91 05       	cpc	r25, r1
    1034:	1c f4       	brge	.+6      	; 0x103c <pwm_init+0x23e>
    1036:	01 97       	sbiw	r24, 0x01	; 1
    1038:	39 f0       	breq	.+14     	; 0x1048 <pwm_init+0x24a>
    103a:	1e c0       	rjmp	.+60     	; 0x1078 <pwm_init+0x27a>
    103c:	83 30       	cpi	r24, 0x03	; 3
    103e:	91 05       	cpc	r25, r1
    1040:	79 f0       	breq	.+30     	; 0x1060 <pwm_init+0x262>
    1042:	04 97       	sbiw	r24, 0x04	; 4
    1044:	99 f0       	breq	.+38     	; 0x106c <pwm_init+0x26e>
    1046:	18 c0       	rjmp	.+48     	; 0x1078 <pwm_init+0x27a>
    1048:	8a 81       	ldd	r24, Y+2	; 0x02
    104a:	9b 81       	ldd	r25, Y+3	; 0x03
    104c:	20 e1       	ldi	r18, 0x10	; 16
    104e:	fc 01       	movw	r30, r24
    1050:	23 83       	std	Z+3, r18	; 0x03
    1052:	12 c0       	rjmp	.+36     	; 0x1078 <pwm_init+0x27a>
    1054:	8a 81       	ldd	r24, Y+2	; 0x02
    1056:	9b 81       	ldd	r25, Y+3	; 0x03
    1058:	20 e2       	ldi	r18, 0x20	; 32
    105a:	fc 01       	movw	r30, r24
    105c:	23 83       	std	Z+3, r18	; 0x03
    105e:	0c c0       	rjmp	.+24     	; 0x1078 <pwm_init+0x27a>
    1060:	8a 81       	ldd	r24, Y+2	; 0x02
    1062:	9b 81       	ldd	r25, Y+3	; 0x03
    1064:	20 e4       	ldi	r18, 0x40	; 64
    1066:	fc 01       	movw	r30, r24
    1068:	23 83       	std	Z+3, r18	; 0x03
    106a:	06 c0       	rjmp	.+12     	; 0x1078 <pwm_init+0x27a>
    106c:	8a 81       	ldd	r24, Y+2	; 0x02
    106e:	9b 81       	ldd	r25, Y+3	; 0x03
    1070:	20 e8       	ldi	r18, 0x80	; 128
    1072:	fc 01       	movw	r30, r24
    1074:	23 83       	std	Z+3, r18	; 0x03
    1076:	00 00       	nop
    1078:	8a 81       	ldd	r24, Y+2	; 0x02
    107a:	9b 81       	ldd	r25, Y+3	; 0x03
    107c:	fc 01       	movw	r30, r24
    107e:	80 81       	ld	r24, Z
    1080:	91 81       	ldd	r25, Z+1	; 0x01
    1082:	0e 94 3d 12 	call	0x247a	; 0x247a <tc_enable>
    1086:	8a 81       	ldd	r24, Y+2	; 0x02
    1088:	9b 81       	ldd	r25, Y+3	; 0x03
    108a:	fc 01       	movw	r30, r24
    108c:	80 81       	ld	r24, Z
    108e:	91 81       	ldd	r25, Z+1	; 0x01
    1090:	63 e0       	ldi	r22, 0x03	; 3
    1092:	92 dd       	rcall	.-1244   	; 0xbb8 <tc_set_wgm>
    1094:	8a 81       	ldd	r24, Y+2	; 0x02
    1096:	9b 81       	ldd	r25, Y+3	; 0x03
    1098:	fc 01       	movw	r30, r24
    109a:	15 82       	std	Z+5, r1	; 0x05
    109c:	16 82       	std	Z+6, r1	; 0x06
    109e:	8a 81       	ldd	r24, Y+2	; 0x02
    10a0:	9b 81       	ldd	r25, Y+3	; 0x03
    10a2:	fc 01       	movw	r30, r24
    10a4:	14 82       	std	Z+4, r1	; 0x04
    10a6:	8a 81       	ldd	r24, Y+2	; 0x02
    10a8:	9b 81       	ldd	r25, Y+3	; 0x03
    10aa:	fc 01       	movw	r30, r24
    10ac:	80 81       	ld	r24, Z
    10ae:	91 81       	ldd	r25, Z+1	; 0x01
    10b0:	60 e0       	ldi	r22, 0x00	; 0
    10b2:	b0 dc       	rcall	.-1696   	; 0xa14 <tc_write_clock_source>
    10b4:	2e 81       	ldd	r18, Y+6	; 0x06
    10b6:	3f 81       	ldd	r19, Y+7	; 0x07
    10b8:	8a 81       	ldd	r24, Y+2	; 0x02
    10ba:	9b 81       	ldd	r25, Y+3	; 0x03
    10bc:	b9 01       	movw	r22, r18
    10be:	d0 dd       	rcall	.-1120   	; 0xc60 <pwm_set_frequency>
    10c0:	00 00       	nop
    10c2:	27 96       	adiw	r28, 0x07	; 7
    10c4:	cd bf       	out	0x3d, r28	; 61
    10c6:	de bf       	out	0x3e, r29	; 62
    10c8:	df 91       	pop	r29
    10ca:	cf 91       	pop	r28
    10cc:	08 95       	ret

000010ce <pwm_start>:
    10ce:	cf 93       	push	r28
    10d0:	df 93       	push	r29
    10d2:	00 d0       	rcall	.+0      	; 0x10d4 <pwm_start+0x6>
    10d4:	cd b7       	in	r28, 0x3d	; 61
    10d6:	de b7       	in	r29, 0x3e	; 62
    10d8:	89 83       	std	Y+1, r24	; 0x01
    10da:	9a 83       	std	Y+2, r25	; 0x02
    10dc:	6b 83       	std	Y+3, r22	; 0x03
    10de:	89 81       	ldd	r24, Y+1	; 0x01
    10e0:	9a 81       	ldd	r25, Y+2	; 0x02
    10e2:	6b 81       	ldd	r22, Y+3	; 0x03
    10e4:	85 dd       	rcall	.-1270   	; 0xbf0 <pwm_set_duty_cycle_percent>
    10e6:	89 81       	ldd	r24, Y+1	; 0x01
    10e8:	9a 81       	ldd	r25, Y+2	; 0x02
    10ea:	fc 01       	movw	r30, r24
    10ec:	25 81       	ldd	r18, Z+5	; 0x05
    10ee:	36 81       	ldd	r19, Z+6	; 0x06
    10f0:	89 81       	ldd	r24, Y+1	; 0x01
    10f2:	9a 81       	ldd	r25, Y+2	; 0x02
    10f4:	fc 01       	movw	r30, r24
    10f6:	80 81       	ld	r24, Z
    10f8:	91 81       	ldd	r25, Z+1	; 0x01
    10fa:	b9 01       	movw	r22, r18
    10fc:	a7 dc       	rcall	.-1714   	; 0xa4c <tc_write_period>
    10fe:	89 81       	ldd	r24, Y+1	; 0x01
    1100:	9a 81       	ldd	r25, Y+2	; 0x02
    1102:	fc 01       	movw	r30, r24
    1104:	23 81       	ldd	r18, Z+3	; 0x03
    1106:	89 81       	ldd	r24, Y+1	; 0x01
    1108:	9a 81       	ldd	r25, Y+2	; 0x02
    110a:	fc 01       	movw	r30, r24
    110c:	80 81       	ld	r24, Z
    110e:	91 81       	ldd	r25, Z+1	; 0x01
    1110:	62 2f       	mov	r22, r18
    1112:	b4 dc       	rcall	.-1688   	; 0xa7c <tc_enable_cc_channels>
    1114:	89 81       	ldd	r24, Y+1	; 0x01
    1116:	9a 81       	ldd	r25, Y+2	; 0x02
    1118:	fc 01       	movw	r30, r24
    111a:	24 81       	ldd	r18, Z+4	; 0x04
    111c:	89 81       	ldd	r24, Y+1	; 0x01
    111e:	9a 81       	ldd	r25, Y+2	; 0x02
    1120:	fc 01       	movw	r30, r24
    1122:	80 81       	ld	r24, Z
    1124:	91 81       	ldd	r25, Z+1	; 0x01
    1126:	62 2f       	mov	r22, r18
    1128:	75 dc       	rcall	.-1814   	; 0xa14 <tc_write_clock_source>
    112a:	00 00       	nop
    112c:	23 96       	adiw	r28, 0x03	; 3
    112e:	cd bf       	out	0x3d, r28	; 61
    1130:	de bf       	out	0x3e, r29	; 62
    1132:	df 91       	pop	r29
    1134:	cf 91       	pop	r28
    1136:	08 95       	ret

00001138 <__iCliRetVal>:
    1138:	cf 93       	push	r28
    113a:	df 93       	push	r29
    113c:	cd b7       	in	r28, 0x3d	; 61
    113e:	de b7       	in	r29, 0x3e	; 62
    1140:	f8 94       	cli
    1142:	81 e0       	ldi	r24, 0x01	; 1
    1144:	df 91       	pop	r29
    1146:	cf 91       	pop	r28
    1148:	08 95       	ret

0000114a <__iSeiParam>:
    114a:	cf 93       	push	r28
    114c:	df 93       	push	r29
    114e:	1f 92       	push	r1
    1150:	1f 92       	push	r1
    1152:	cd b7       	in	r28, 0x3d	; 61
    1154:	de b7       	in	r29, 0x3e	; 62
    1156:	89 83       	std	Y+1, r24	; 0x01
    1158:	9a 83       	std	Y+2, r25	; 0x02
    115a:	78 94       	sei
    115c:	00 00       	nop
    115e:	0f 90       	pop	r0
    1160:	0f 90       	pop	r0
    1162:	df 91       	pop	r29
    1164:	cf 91       	pop	r28
    1166:	08 95       	ret

00001168 <print_value32>:
    1168:	cf 93       	push	r28
    116a:	df 93       	push	r29
    116c:	cd b7       	in	r28, 0x3d	; 61
    116e:	de b7       	in	r29, 0x3e	; 62
    1170:	2f 97       	sbiw	r28, 0x0f	; 15
    1172:	cd bf       	out	0x3d, r28	; 61
    1174:	de bf       	out	0x3e, r29	; 62
    1176:	6c 87       	std	Y+12, r22	; 0x0c
    1178:	7d 87       	std	Y+13, r23	; 0x0d
    117a:	8e 87       	std	Y+14, r24	; 0x0e
    117c:	9f 87       	std	Y+15, r25	; 0x0f
    117e:	8f 85       	ldd	r24, Y+15	; 0x0f
    1180:	8f 93       	push	r24
    1182:	8e 85       	ldd	r24, Y+14	; 0x0e
    1184:	8f 93       	push	r24
    1186:	8d 85       	ldd	r24, Y+13	; 0x0d
    1188:	8f 93       	push	r24
    118a:	8c 85       	ldd	r24, Y+12	; 0x0c
    118c:	8f 93       	push	r24
    118e:	83 ef       	ldi	r24, 0xF3	; 243
    1190:	90 e2       	ldi	r25, 0x20	; 32
    1192:	89 2f       	mov	r24, r25
    1194:	8f 93       	push	r24
    1196:	83 ef       	ldi	r24, 0xF3	; 243
    1198:	90 e2       	ldi	r25, 0x20	; 32
    119a:	8f 93       	push	r24
    119c:	ce 01       	movw	r24, r28
    119e:	01 96       	adiw	r24, 0x01	; 1
    11a0:	9f 93       	push	r25
    11a2:	8f 93       	push	r24
    11a4:	0e 94 8a 3e 	call	0x7d14	; 0x7d14 <sprintf>
    11a8:	8d b7       	in	r24, 0x3d	; 61
    11aa:	9e b7       	in	r25, 0x3e	; 62
    11ac:	08 96       	adiw	r24, 0x08	; 8
    11ae:	cd bf       	out	0x3d, r28	; 61
    11b0:	de bf       	out	0x3e, r29	; 62
    11b2:	ce 01       	movw	r24, r28
    11b4:	01 96       	adiw	r24, 0x01	; 1
    11b6:	2e d0       	rcall	.+92     	; 0x1214 <udi_cdc_puts>
    11b8:	00 00       	nop
    11ba:	2f 96       	adiw	r28, 0x0f	; 15
    11bc:	cd bf       	out	0x3d, r28	; 61
    11be:	de bf       	out	0x3e, r29	; 62
    11c0:	df 91       	pop	r29
    11c2:	cf 91       	pop	r28
    11c4:	08 95       	ret

000011c6 <copy_command>:
    11c6:	cf 93       	push	r28
    11c8:	df 93       	push	r29
    11ca:	1f 92       	push	r1
    11cc:	1f 92       	push	r1
    11ce:	cd b7       	in	r28, 0x3d	; 61
    11d0:	de b7       	in	r29, 0x3e	; 62
    11d2:	1a 82       	std	Y+2, r1	; 0x02
    11d4:	b1 df       	rcall	.-158    	; 0x1138 <__iCliRetVal>
    11d6:	89 83       	std	Y+1, r24	; 0x01
    11d8:	11 c0       	rjmp	.+34     	; 0x11fc <copy_command+0x36>
    11da:	4f e1       	ldi	r20, 0x1F	; 31
    11dc:	50 e0       	ldi	r21, 0x00	; 0
    11de:	6d e1       	ldi	r22, 0x1D	; 29
    11e0:	79 e2       	ldi	r23, 0x29	; 41
    11e2:	8f ef       	ldi	r24, 0xFF	; 255
    11e4:	98 e2       	ldi	r25, 0x28	; 40
    11e6:	0e 94 6b 3e 	call	0x7cd6	; 0x7cd6 <memcpy>
    11ea:	4f e1       	ldi	r20, 0x1F	; 31
    11ec:	50 e0       	ldi	r21, 0x00	; 0
    11ee:	60 e0       	ldi	r22, 0x00	; 0
    11f0:	70 e0       	ldi	r23, 0x00	; 0
    11f2:	8d e1       	ldi	r24, 0x1D	; 29
    11f4:	99 e2       	ldi	r25, 0x29	; 41
    11f6:	0e 94 74 3e 	call	0x7ce8	; 0x7ce8 <memset>
    11fa:	19 82       	std	Y+1, r1	; 0x01
    11fc:	89 81       	ldd	r24, Y+1	; 0x01
    11fe:	88 23       	and	r24, r24
    1200:	61 f7       	brne	.-40     	; 0x11da <copy_command+0x14>
    1202:	ce 01       	movw	r24, r28
    1204:	02 96       	adiw	r24, 0x02	; 2
    1206:	a1 df       	rcall	.-190    	; 0x114a <__iSeiParam>
    1208:	00 00       	nop
    120a:	0f 90       	pop	r0
    120c:	0f 90       	pop	r0
    120e:	df 91       	pop	r29
    1210:	cf 91       	pop	r28
    1212:	08 95       	ret

00001214 <udi_cdc_puts>:
    1214:	cf 93       	push	r28
    1216:	df 93       	push	r29
    1218:	1f 92       	push	r1
    121a:	1f 92       	push	r1
    121c:	cd b7       	in	r28, 0x3d	; 61
    121e:	de b7       	in	r29, 0x3e	; 62
    1220:	89 83       	std	Y+1, r24	; 0x01
    1222:	9a 83       	std	Y+2, r25	; 0x02
    1224:	0e c0       	rjmp	.+28     	; 0x1242 <udi_cdc_puts+0x2e>
    1226:	89 81       	ldd	r24, Y+1	; 0x01
    1228:	9a 81       	ldd	r25, Y+2	; 0x02
    122a:	9c 01       	movw	r18, r24
    122c:	2f 5f       	subi	r18, 0xFF	; 255
    122e:	3f 4f       	sbci	r19, 0xFF	; 255
    1230:	29 83       	std	Y+1, r18	; 0x01
    1232:	3a 83       	std	Y+2, r19	; 0x02
    1234:	fc 01       	movw	r30, r24
    1236:	80 81       	ld	r24, Z
    1238:	08 2e       	mov	r0, r24
    123a:	00 0c       	add	r0, r0
    123c:	99 0b       	sbc	r25, r25
    123e:	0e 94 7c 28 	call	0x50f8	; 0x50f8 <udi_cdc_putc>
    1242:	89 81       	ldd	r24, Y+1	; 0x01
    1244:	9a 81       	ldd	r25, Y+2	; 0x02
    1246:	fc 01       	movw	r30, r24
    1248:	80 81       	ld	r24, Z
    124a:	88 23       	and	r24, r24
    124c:	61 f7       	brne	.-40     	; 0x1226 <udi_cdc_puts+0x12>
    124e:	00 00       	nop
    1250:	0f 90       	pop	r0
    1252:	0f 90       	pop	r0
    1254:	df 91       	pop	r29
    1256:	cf 91       	pop	r28
    1258:	08 95       	ret

0000125a <usb_cdc_interface_rx_notify>:
    125a:	0f 93       	push	r16
    125c:	1f 93       	push	r17
    125e:	cf 93       	push	r28
    1260:	df 93       	push	r29
    1262:	1f 92       	push	r1
    1264:	cd b7       	in	r28, 0x3d	; 61
    1266:	de b7       	in	r29, 0x3e	; 62
    1268:	89 83       	std	Y+1, r24	; 0x01
    126a:	0e 94 90 26 	call	0x4d20	; 0x4d20 <udi_cdc_is_rx_ready>
    126e:	88 23       	and	r24, r24
    1270:	59 f1       	breq	.+86     	; 0x12c8 <usb_cdc_interface_rx_notify+0x6e>
    1272:	80 91 fe 28 	lds	r24, 0x28FE	; 0x8028fe <data_count>
    1276:	08 2f       	mov	r16, r24
    1278:	10 e0       	ldi	r17, 0x00	; 0
    127a:	0e 94 42 27 	call	0x4e84	; 0x4e84 <udi_cdc_getc>
    127e:	28 2f       	mov	r18, r24
    1280:	c8 01       	movw	r24, r16
    1282:	83 5e       	subi	r24, 0xE3	; 227
    1284:	96 4d       	sbci	r25, 0xD6	; 214
    1286:	fc 01       	movw	r30, r24
    1288:	20 83       	st	Z, r18
    128a:	80 91 fe 28 	lds	r24, 0x28FE	; 0x8028fe <data_count>
    128e:	88 2f       	mov	r24, r24
    1290:	90 e0       	ldi	r25, 0x00	; 0
    1292:	83 5e       	subi	r24, 0xE3	; 227
    1294:	96 4d       	sbci	r25, 0xD6	; 214
    1296:	fc 01       	movw	r30, r24
    1298:	80 81       	ld	r24, Z
    129a:	8d 30       	cpi	r24, 0x0D	; 13
    129c:	51 f0       	breq	.+20     	; 0x12b2 <usb_cdc_interface_rx_notify+0x58>
    129e:	80 91 fe 28 	lds	r24, 0x28FE	; 0x8028fe <data_count>
    12a2:	88 2f       	mov	r24, r24
    12a4:	90 e0       	ldi	r25, 0x00	; 0
    12a6:	83 5e       	subi	r24, 0xE3	; 227
    12a8:	96 4d       	sbci	r25, 0xD6	; 214
    12aa:	fc 01       	movw	r30, r24
    12ac:	80 81       	ld	r24, Z
    12ae:	8a 30       	cpi	r24, 0x0A	; 10
    12b0:	31 f4       	brne	.+12     	; 0x12be <usb_cdc_interface_rx_notify+0x64>
    12b2:	81 e0       	ldi	r24, 0x01	; 1
    12b4:	80 93 3b 29 	sts	0x293B, r24	; 0x80293b <command_ready>
    12b8:	10 92 fe 28 	sts	0x28FE, r1	; 0x8028fe <data_count>
    12bc:	05 c0       	rjmp	.+10     	; 0x12c8 <usb_cdc_interface_rx_notify+0x6e>
    12be:	80 91 fe 28 	lds	r24, 0x28FE	; 0x8028fe <data_count>
    12c2:	8f 5f       	subi	r24, 0xFF	; 255
    12c4:	80 93 fe 28 	sts	0x28FE, r24	; 0x8028fe <data_count>
    12c8:	00 00       	nop
    12ca:	0f 90       	pop	r0
    12cc:	df 91       	pop	r29
    12ce:	cf 91       	pop	r28
    12d0:	1f 91       	pop	r17
    12d2:	0f 91       	pop	r16
    12d4:	08 95       	ret

000012d6 <cpu_irq_save>:
    12d6:	cf 93       	push	r28
    12d8:	df 93       	push	r29
    12da:	1f 92       	push	r1
    12dc:	cd b7       	in	r28, 0x3d	; 61
    12de:	de b7       	in	r29, 0x3e	; 62
    12e0:	8f e3       	ldi	r24, 0x3F	; 63
    12e2:	90 e0       	ldi	r25, 0x00	; 0
    12e4:	fc 01       	movw	r30, r24
    12e6:	80 81       	ld	r24, Z
    12e8:	89 83       	std	Y+1, r24	; 0x01
    12ea:	f8 94       	cli
    12ec:	89 81       	ldd	r24, Y+1	; 0x01
    12ee:	0f 90       	pop	r0
    12f0:	df 91       	pop	r29
    12f2:	cf 91       	pop	r28
    12f4:	08 95       	ret

000012f6 <cpu_irq_restore>:
    12f6:	cf 93       	push	r28
    12f8:	df 93       	push	r29
    12fa:	1f 92       	push	r1
    12fc:	cd b7       	in	r28, 0x3d	; 61
    12fe:	de b7       	in	r29, 0x3e	; 62
    1300:	89 83       	std	Y+1, r24	; 0x01
    1302:	8f e3       	ldi	r24, 0x3F	; 63
    1304:	90 e0       	ldi	r25, 0x00	; 0
    1306:	29 81       	ldd	r18, Y+1	; 0x01
    1308:	fc 01       	movw	r30, r24
    130a:	20 83       	st	Z, r18
    130c:	00 00       	nop
    130e:	0f 90       	pop	r0
    1310:	df 91       	pop	r29
    1312:	cf 91       	pop	r28
    1314:	08 95       	ret

00001316 <sleepmgr_lock_mode>:
    1316:	cf 93       	push	r28
    1318:	df 93       	push	r29
    131a:	1f 92       	push	r1
    131c:	1f 92       	push	r1
    131e:	cd b7       	in	r28, 0x3d	; 61
    1320:	de b7       	in	r29, 0x3e	; 62
    1322:	8a 83       	std	Y+2, r24	; 0x02
    1324:	d8 df       	rcall	.-80     	; 0x12d6 <cpu_irq_save>
    1326:	89 83       	std	Y+1, r24	; 0x01
    1328:	8a 81       	ldd	r24, Y+2	; 0x02
    132a:	88 2f       	mov	r24, r24
    132c:	90 e0       	ldi	r25, 0x00	; 0
    132e:	9c 01       	movw	r18, r24
    1330:	24 5b       	subi	r18, 0xB4	; 180
    1332:	36 4d       	sbci	r19, 0xD6	; 214
    1334:	f9 01       	movw	r30, r18
    1336:	20 81       	ld	r18, Z
    1338:	2f 5f       	subi	r18, 0xFF	; 255
    133a:	84 5b       	subi	r24, 0xB4	; 180
    133c:	96 4d       	sbci	r25, 0xD6	; 214
    133e:	fc 01       	movw	r30, r24
    1340:	20 83       	st	Z, r18
    1342:	89 81       	ldd	r24, Y+1	; 0x01
    1344:	d8 df       	rcall	.-80     	; 0x12f6 <cpu_irq_restore>
    1346:	00 00       	nop
    1348:	0f 90       	pop	r0
    134a:	0f 90       	pop	r0
    134c:	df 91       	pop	r29
    134e:	cf 91       	pop	r28
    1350:	08 95       	ret

00001352 <__vector_14>:
    1352:	1f 92       	push	r1
    1354:	0f 92       	push	r0
    1356:	00 90 3f 00 	lds	r0, 0x003F	; 0x80003f <__TEXT_REGION_LENGTH__+0x70003f>
    135a:	0f 92       	push	r0
    135c:	11 24       	eor	r1, r1
    135e:	00 90 3b 00 	lds	r0, 0x003B	; 0x80003b <__TEXT_REGION_LENGTH__+0x70003b>
    1362:	0f 92       	push	r0
    1364:	2f 93       	push	r18
    1366:	3f 93       	push	r19
    1368:	4f 93       	push	r20
    136a:	5f 93       	push	r21
    136c:	6f 93       	push	r22
    136e:	7f 93       	push	r23
    1370:	8f 93       	push	r24
    1372:	9f 93       	push	r25
    1374:	af 93       	push	r26
    1376:	bf 93       	push	r27
    1378:	ef 93       	push	r30
    137a:	ff 93       	push	r31
    137c:	cf 93       	push	r28
    137e:	df 93       	push	r29
    1380:	cd b7       	in	r28, 0x3d	; 61
    1382:	de b7       	in	r29, 0x3e	; 62
    1384:	80 91 3e 22 	lds	r24, 0x223E	; 0x80223e <__data_end>
    1388:	90 91 3f 22 	lds	r25, 0x223F	; 0x80223f <__data_end+0x1>
    138c:	89 2b       	or	r24, r25
    138e:	31 f0       	breq	.+12     	; 0x139c <__vector_14+0x4a>
    1390:	80 91 3e 22 	lds	r24, 0x223E	; 0x80223e <__data_end>
    1394:	90 91 3f 22 	lds	r25, 0x223F	; 0x80223f <__data_end+0x1>
    1398:	fc 01       	movw	r30, r24
    139a:	19 95       	eicall
    139c:	00 00       	nop
    139e:	df 91       	pop	r29
    13a0:	cf 91       	pop	r28
    13a2:	ff 91       	pop	r31
    13a4:	ef 91       	pop	r30
    13a6:	bf 91       	pop	r27
    13a8:	af 91       	pop	r26
    13aa:	9f 91       	pop	r25
    13ac:	8f 91       	pop	r24
    13ae:	7f 91       	pop	r23
    13b0:	6f 91       	pop	r22
    13b2:	5f 91       	pop	r21
    13b4:	4f 91       	pop	r20
    13b6:	3f 91       	pop	r19
    13b8:	2f 91       	pop	r18
    13ba:	0f 90       	pop	r0
    13bc:	00 92 3b 00 	sts	0x003B, r0	; 0x80003b <__TEXT_REGION_LENGTH__+0x70003b>
    13c0:	0f 90       	pop	r0
    13c2:	00 92 3f 00 	sts	0x003F, r0	; 0x80003f <__TEXT_REGION_LENGTH__+0x70003f>
    13c6:	0f 90       	pop	r0
    13c8:	1f 90       	pop	r1
    13ca:	18 95       	reti

000013cc <__vector_15>:
    13cc:	1f 92       	push	r1
    13ce:	0f 92       	push	r0
    13d0:	00 90 3f 00 	lds	r0, 0x003F	; 0x80003f <__TEXT_REGION_LENGTH__+0x70003f>
    13d4:	0f 92       	push	r0
    13d6:	11 24       	eor	r1, r1
    13d8:	00 90 3b 00 	lds	r0, 0x003B	; 0x80003b <__TEXT_REGION_LENGTH__+0x70003b>
    13dc:	0f 92       	push	r0
    13de:	2f 93       	push	r18
    13e0:	3f 93       	push	r19
    13e2:	4f 93       	push	r20
    13e4:	5f 93       	push	r21
    13e6:	6f 93       	push	r22
    13e8:	7f 93       	push	r23
    13ea:	8f 93       	push	r24
    13ec:	9f 93       	push	r25
    13ee:	af 93       	push	r26
    13f0:	bf 93       	push	r27
    13f2:	ef 93       	push	r30
    13f4:	ff 93       	push	r31
    13f6:	cf 93       	push	r28
    13f8:	df 93       	push	r29
    13fa:	cd b7       	in	r28, 0x3d	; 61
    13fc:	de b7       	in	r29, 0x3e	; 62
    13fe:	80 91 40 22 	lds	r24, 0x2240	; 0x802240 <tc_tcc0_err_callback>
    1402:	90 91 41 22 	lds	r25, 0x2241	; 0x802241 <tc_tcc0_err_callback+0x1>
    1406:	89 2b       	or	r24, r25
    1408:	31 f0       	breq	.+12     	; 0x1416 <__vector_15+0x4a>
    140a:	80 91 40 22 	lds	r24, 0x2240	; 0x802240 <tc_tcc0_err_callback>
    140e:	90 91 41 22 	lds	r25, 0x2241	; 0x802241 <tc_tcc0_err_callback+0x1>
    1412:	fc 01       	movw	r30, r24
    1414:	19 95       	eicall
    1416:	00 00       	nop
    1418:	df 91       	pop	r29
    141a:	cf 91       	pop	r28
    141c:	ff 91       	pop	r31
    141e:	ef 91       	pop	r30
    1420:	bf 91       	pop	r27
    1422:	af 91       	pop	r26
    1424:	9f 91       	pop	r25
    1426:	8f 91       	pop	r24
    1428:	7f 91       	pop	r23
    142a:	6f 91       	pop	r22
    142c:	5f 91       	pop	r21
    142e:	4f 91       	pop	r20
    1430:	3f 91       	pop	r19
    1432:	2f 91       	pop	r18
    1434:	0f 90       	pop	r0
    1436:	00 92 3b 00 	sts	0x003B, r0	; 0x80003b <__TEXT_REGION_LENGTH__+0x70003b>
    143a:	0f 90       	pop	r0
    143c:	00 92 3f 00 	sts	0x003F, r0	; 0x80003f <__TEXT_REGION_LENGTH__+0x70003f>
    1440:	0f 90       	pop	r0
    1442:	1f 90       	pop	r1
    1444:	18 95       	reti

00001446 <__vector_16>:
    1446:	1f 92       	push	r1
    1448:	0f 92       	push	r0
    144a:	00 90 3f 00 	lds	r0, 0x003F	; 0x80003f <__TEXT_REGION_LENGTH__+0x70003f>
    144e:	0f 92       	push	r0
    1450:	11 24       	eor	r1, r1
    1452:	00 90 3b 00 	lds	r0, 0x003B	; 0x80003b <__TEXT_REGION_LENGTH__+0x70003b>
    1456:	0f 92       	push	r0
    1458:	2f 93       	push	r18
    145a:	3f 93       	push	r19
    145c:	4f 93       	push	r20
    145e:	5f 93       	push	r21
    1460:	6f 93       	push	r22
    1462:	7f 93       	push	r23
    1464:	8f 93       	push	r24
    1466:	9f 93       	push	r25
    1468:	af 93       	push	r26
    146a:	bf 93       	push	r27
    146c:	ef 93       	push	r30
    146e:	ff 93       	push	r31
    1470:	cf 93       	push	r28
    1472:	df 93       	push	r29
    1474:	cd b7       	in	r28, 0x3d	; 61
    1476:	de b7       	in	r29, 0x3e	; 62
    1478:	80 91 42 22 	lds	r24, 0x2242	; 0x802242 <tc_tcc0_cca_callback>
    147c:	90 91 43 22 	lds	r25, 0x2243	; 0x802243 <tc_tcc0_cca_callback+0x1>
    1480:	89 2b       	or	r24, r25
    1482:	31 f0       	breq	.+12     	; 0x1490 <__vector_16+0x4a>
    1484:	80 91 42 22 	lds	r24, 0x2242	; 0x802242 <tc_tcc0_cca_callback>
    1488:	90 91 43 22 	lds	r25, 0x2243	; 0x802243 <tc_tcc0_cca_callback+0x1>
    148c:	fc 01       	movw	r30, r24
    148e:	19 95       	eicall
    1490:	00 00       	nop
    1492:	df 91       	pop	r29
    1494:	cf 91       	pop	r28
    1496:	ff 91       	pop	r31
    1498:	ef 91       	pop	r30
    149a:	bf 91       	pop	r27
    149c:	af 91       	pop	r26
    149e:	9f 91       	pop	r25
    14a0:	8f 91       	pop	r24
    14a2:	7f 91       	pop	r23
    14a4:	6f 91       	pop	r22
    14a6:	5f 91       	pop	r21
    14a8:	4f 91       	pop	r20
    14aa:	3f 91       	pop	r19
    14ac:	2f 91       	pop	r18
    14ae:	0f 90       	pop	r0
    14b0:	00 92 3b 00 	sts	0x003B, r0	; 0x80003b <__TEXT_REGION_LENGTH__+0x70003b>
    14b4:	0f 90       	pop	r0
    14b6:	00 92 3f 00 	sts	0x003F, r0	; 0x80003f <__TEXT_REGION_LENGTH__+0x70003f>
    14ba:	0f 90       	pop	r0
    14bc:	1f 90       	pop	r1
    14be:	18 95       	reti

000014c0 <__vector_17>:
    14c0:	1f 92       	push	r1
    14c2:	0f 92       	push	r0
    14c4:	00 90 3f 00 	lds	r0, 0x003F	; 0x80003f <__TEXT_REGION_LENGTH__+0x70003f>
    14c8:	0f 92       	push	r0
    14ca:	11 24       	eor	r1, r1
    14cc:	00 90 3b 00 	lds	r0, 0x003B	; 0x80003b <__TEXT_REGION_LENGTH__+0x70003b>
    14d0:	0f 92       	push	r0
    14d2:	2f 93       	push	r18
    14d4:	3f 93       	push	r19
    14d6:	4f 93       	push	r20
    14d8:	5f 93       	push	r21
    14da:	6f 93       	push	r22
    14dc:	7f 93       	push	r23
    14de:	8f 93       	push	r24
    14e0:	9f 93       	push	r25
    14e2:	af 93       	push	r26
    14e4:	bf 93       	push	r27
    14e6:	ef 93       	push	r30
    14e8:	ff 93       	push	r31
    14ea:	cf 93       	push	r28
    14ec:	df 93       	push	r29
    14ee:	cd b7       	in	r28, 0x3d	; 61
    14f0:	de b7       	in	r29, 0x3e	; 62
    14f2:	80 91 44 22 	lds	r24, 0x2244	; 0x802244 <tc_tcc0_ccb_callback>
    14f6:	90 91 45 22 	lds	r25, 0x2245	; 0x802245 <tc_tcc0_ccb_callback+0x1>
    14fa:	89 2b       	or	r24, r25
    14fc:	31 f0       	breq	.+12     	; 0x150a <__vector_17+0x4a>
    14fe:	80 91 44 22 	lds	r24, 0x2244	; 0x802244 <tc_tcc0_ccb_callback>
    1502:	90 91 45 22 	lds	r25, 0x2245	; 0x802245 <tc_tcc0_ccb_callback+0x1>
    1506:	fc 01       	movw	r30, r24
    1508:	19 95       	eicall
    150a:	00 00       	nop
    150c:	df 91       	pop	r29
    150e:	cf 91       	pop	r28
    1510:	ff 91       	pop	r31
    1512:	ef 91       	pop	r30
    1514:	bf 91       	pop	r27
    1516:	af 91       	pop	r26
    1518:	9f 91       	pop	r25
    151a:	8f 91       	pop	r24
    151c:	7f 91       	pop	r23
    151e:	6f 91       	pop	r22
    1520:	5f 91       	pop	r21
    1522:	4f 91       	pop	r20
    1524:	3f 91       	pop	r19
    1526:	2f 91       	pop	r18
    1528:	0f 90       	pop	r0
    152a:	00 92 3b 00 	sts	0x003B, r0	; 0x80003b <__TEXT_REGION_LENGTH__+0x70003b>
    152e:	0f 90       	pop	r0
    1530:	00 92 3f 00 	sts	0x003F, r0	; 0x80003f <__TEXT_REGION_LENGTH__+0x70003f>
    1534:	0f 90       	pop	r0
    1536:	1f 90       	pop	r1
    1538:	18 95       	reti

0000153a <__vector_18>:
    153a:	1f 92       	push	r1
    153c:	0f 92       	push	r0
    153e:	00 90 3f 00 	lds	r0, 0x003F	; 0x80003f <__TEXT_REGION_LENGTH__+0x70003f>
    1542:	0f 92       	push	r0
    1544:	11 24       	eor	r1, r1
    1546:	00 90 3b 00 	lds	r0, 0x003B	; 0x80003b <__TEXT_REGION_LENGTH__+0x70003b>
    154a:	0f 92       	push	r0
    154c:	2f 93       	push	r18
    154e:	3f 93       	push	r19
    1550:	4f 93       	push	r20
    1552:	5f 93       	push	r21
    1554:	6f 93       	push	r22
    1556:	7f 93       	push	r23
    1558:	8f 93       	push	r24
    155a:	9f 93       	push	r25
    155c:	af 93       	push	r26
    155e:	bf 93       	push	r27
    1560:	ef 93       	push	r30
    1562:	ff 93       	push	r31
    1564:	cf 93       	push	r28
    1566:	df 93       	push	r29
    1568:	cd b7       	in	r28, 0x3d	; 61
    156a:	de b7       	in	r29, 0x3e	; 62
    156c:	80 91 46 22 	lds	r24, 0x2246	; 0x802246 <tc_tcc0_ccc_callback>
    1570:	90 91 47 22 	lds	r25, 0x2247	; 0x802247 <tc_tcc0_ccc_callback+0x1>
    1574:	89 2b       	or	r24, r25
    1576:	31 f0       	breq	.+12     	; 0x1584 <__vector_18+0x4a>
    1578:	80 91 46 22 	lds	r24, 0x2246	; 0x802246 <tc_tcc0_ccc_callback>
    157c:	90 91 47 22 	lds	r25, 0x2247	; 0x802247 <tc_tcc0_ccc_callback+0x1>
    1580:	fc 01       	movw	r30, r24
    1582:	19 95       	eicall
    1584:	00 00       	nop
    1586:	df 91       	pop	r29
    1588:	cf 91       	pop	r28
    158a:	ff 91       	pop	r31
    158c:	ef 91       	pop	r30
    158e:	bf 91       	pop	r27
    1590:	af 91       	pop	r26
    1592:	9f 91       	pop	r25
    1594:	8f 91       	pop	r24
    1596:	7f 91       	pop	r23
    1598:	6f 91       	pop	r22
    159a:	5f 91       	pop	r21
    159c:	4f 91       	pop	r20
    159e:	3f 91       	pop	r19
    15a0:	2f 91       	pop	r18
    15a2:	0f 90       	pop	r0
    15a4:	00 92 3b 00 	sts	0x003B, r0	; 0x80003b <__TEXT_REGION_LENGTH__+0x70003b>
    15a8:	0f 90       	pop	r0
    15aa:	00 92 3f 00 	sts	0x003F, r0	; 0x80003f <__TEXT_REGION_LENGTH__+0x70003f>
    15ae:	0f 90       	pop	r0
    15b0:	1f 90       	pop	r1
    15b2:	18 95       	reti

000015b4 <__vector_19>:
    15b4:	1f 92       	push	r1
    15b6:	0f 92       	push	r0
    15b8:	00 90 3f 00 	lds	r0, 0x003F	; 0x80003f <__TEXT_REGION_LENGTH__+0x70003f>
    15bc:	0f 92       	push	r0
    15be:	11 24       	eor	r1, r1
    15c0:	00 90 3b 00 	lds	r0, 0x003B	; 0x80003b <__TEXT_REGION_LENGTH__+0x70003b>
    15c4:	0f 92       	push	r0
    15c6:	2f 93       	push	r18
    15c8:	3f 93       	push	r19
    15ca:	4f 93       	push	r20
    15cc:	5f 93       	push	r21
    15ce:	6f 93       	push	r22
    15d0:	7f 93       	push	r23
    15d2:	8f 93       	push	r24
    15d4:	9f 93       	push	r25
    15d6:	af 93       	push	r26
    15d8:	bf 93       	push	r27
    15da:	ef 93       	push	r30
    15dc:	ff 93       	push	r31
    15de:	cf 93       	push	r28
    15e0:	df 93       	push	r29
    15e2:	cd b7       	in	r28, 0x3d	; 61
    15e4:	de b7       	in	r29, 0x3e	; 62
    15e6:	80 91 48 22 	lds	r24, 0x2248	; 0x802248 <tc_tcc0_ccd_callback>
    15ea:	90 91 49 22 	lds	r25, 0x2249	; 0x802249 <tc_tcc0_ccd_callback+0x1>
    15ee:	89 2b       	or	r24, r25
    15f0:	31 f0       	breq	.+12     	; 0x15fe <__vector_19+0x4a>
    15f2:	80 91 48 22 	lds	r24, 0x2248	; 0x802248 <tc_tcc0_ccd_callback>
    15f6:	90 91 49 22 	lds	r25, 0x2249	; 0x802249 <tc_tcc0_ccd_callback+0x1>
    15fa:	fc 01       	movw	r30, r24
    15fc:	19 95       	eicall
    15fe:	00 00       	nop
    1600:	df 91       	pop	r29
    1602:	cf 91       	pop	r28
    1604:	ff 91       	pop	r31
    1606:	ef 91       	pop	r30
    1608:	bf 91       	pop	r27
    160a:	af 91       	pop	r26
    160c:	9f 91       	pop	r25
    160e:	8f 91       	pop	r24
    1610:	7f 91       	pop	r23
    1612:	6f 91       	pop	r22
    1614:	5f 91       	pop	r21
    1616:	4f 91       	pop	r20
    1618:	3f 91       	pop	r19
    161a:	2f 91       	pop	r18
    161c:	0f 90       	pop	r0
    161e:	00 92 3b 00 	sts	0x003B, r0	; 0x80003b <__TEXT_REGION_LENGTH__+0x70003b>
    1622:	0f 90       	pop	r0
    1624:	00 92 3f 00 	sts	0x003F, r0	; 0x80003f <__TEXT_REGION_LENGTH__+0x70003f>
    1628:	0f 90       	pop	r0
    162a:	1f 90       	pop	r1
    162c:	18 95       	reti

0000162e <__vector_20>:
    162e:	1f 92       	push	r1
    1630:	0f 92       	push	r0
    1632:	00 90 3f 00 	lds	r0, 0x003F	; 0x80003f <__TEXT_REGION_LENGTH__+0x70003f>
    1636:	0f 92       	push	r0
    1638:	11 24       	eor	r1, r1
    163a:	00 90 3b 00 	lds	r0, 0x003B	; 0x80003b <__TEXT_REGION_LENGTH__+0x70003b>
    163e:	0f 92       	push	r0
    1640:	2f 93       	push	r18
    1642:	3f 93       	push	r19
    1644:	4f 93       	push	r20
    1646:	5f 93       	push	r21
    1648:	6f 93       	push	r22
    164a:	7f 93       	push	r23
    164c:	8f 93       	push	r24
    164e:	9f 93       	push	r25
    1650:	af 93       	push	r26
    1652:	bf 93       	push	r27
    1654:	ef 93       	push	r30
    1656:	ff 93       	push	r31
    1658:	cf 93       	push	r28
    165a:	df 93       	push	r29
    165c:	cd b7       	in	r28, 0x3d	; 61
    165e:	de b7       	in	r29, 0x3e	; 62
    1660:	80 91 4a 22 	lds	r24, 0x224A	; 0x80224a <tc_tcc1_ovf_callback>
    1664:	90 91 4b 22 	lds	r25, 0x224B	; 0x80224b <tc_tcc1_ovf_callback+0x1>
    1668:	89 2b       	or	r24, r25
    166a:	31 f0       	breq	.+12     	; 0x1678 <__vector_20+0x4a>
    166c:	80 91 4a 22 	lds	r24, 0x224A	; 0x80224a <tc_tcc1_ovf_callback>
    1670:	90 91 4b 22 	lds	r25, 0x224B	; 0x80224b <tc_tcc1_ovf_callback+0x1>
    1674:	fc 01       	movw	r30, r24
    1676:	19 95       	eicall
    1678:	00 00       	nop
    167a:	df 91       	pop	r29
    167c:	cf 91       	pop	r28
    167e:	ff 91       	pop	r31
    1680:	ef 91       	pop	r30
    1682:	bf 91       	pop	r27
    1684:	af 91       	pop	r26
    1686:	9f 91       	pop	r25
    1688:	8f 91       	pop	r24
    168a:	7f 91       	pop	r23
    168c:	6f 91       	pop	r22
    168e:	5f 91       	pop	r21
    1690:	4f 91       	pop	r20
    1692:	3f 91       	pop	r19
    1694:	2f 91       	pop	r18
    1696:	0f 90       	pop	r0
    1698:	00 92 3b 00 	sts	0x003B, r0	; 0x80003b <__TEXT_REGION_LENGTH__+0x70003b>
    169c:	0f 90       	pop	r0
    169e:	00 92 3f 00 	sts	0x003F, r0	; 0x80003f <__TEXT_REGION_LENGTH__+0x70003f>
    16a2:	0f 90       	pop	r0
    16a4:	1f 90       	pop	r1
    16a6:	18 95       	reti

000016a8 <__vector_21>:
    16a8:	1f 92       	push	r1
    16aa:	0f 92       	push	r0
    16ac:	00 90 3f 00 	lds	r0, 0x003F	; 0x80003f <__TEXT_REGION_LENGTH__+0x70003f>
    16b0:	0f 92       	push	r0
    16b2:	11 24       	eor	r1, r1
    16b4:	00 90 3b 00 	lds	r0, 0x003B	; 0x80003b <__TEXT_REGION_LENGTH__+0x70003b>
    16b8:	0f 92       	push	r0
    16ba:	2f 93       	push	r18
    16bc:	3f 93       	push	r19
    16be:	4f 93       	push	r20
    16c0:	5f 93       	push	r21
    16c2:	6f 93       	push	r22
    16c4:	7f 93       	push	r23
    16c6:	8f 93       	push	r24
    16c8:	9f 93       	push	r25
    16ca:	af 93       	push	r26
    16cc:	bf 93       	push	r27
    16ce:	ef 93       	push	r30
    16d0:	ff 93       	push	r31
    16d2:	cf 93       	push	r28
    16d4:	df 93       	push	r29
    16d6:	cd b7       	in	r28, 0x3d	; 61
    16d8:	de b7       	in	r29, 0x3e	; 62
    16da:	80 91 4c 22 	lds	r24, 0x224C	; 0x80224c <tc_tcc1_err_callback>
    16de:	90 91 4d 22 	lds	r25, 0x224D	; 0x80224d <tc_tcc1_err_callback+0x1>
    16e2:	89 2b       	or	r24, r25
    16e4:	31 f0       	breq	.+12     	; 0x16f2 <__vector_21+0x4a>
    16e6:	80 91 4c 22 	lds	r24, 0x224C	; 0x80224c <tc_tcc1_err_callback>
    16ea:	90 91 4d 22 	lds	r25, 0x224D	; 0x80224d <tc_tcc1_err_callback+0x1>
    16ee:	fc 01       	movw	r30, r24
    16f0:	19 95       	eicall
    16f2:	00 00       	nop
    16f4:	df 91       	pop	r29
    16f6:	cf 91       	pop	r28
    16f8:	ff 91       	pop	r31
    16fa:	ef 91       	pop	r30
    16fc:	bf 91       	pop	r27
    16fe:	af 91       	pop	r26
    1700:	9f 91       	pop	r25
    1702:	8f 91       	pop	r24
    1704:	7f 91       	pop	r23
    1706:	6f 91       	pop	r22
    1708:	5f 91       	pop	r21
    170a:	4f 91       	pop	r20
    170c:	3f 91       	pop	r19
    170e:	2f 91       	pop	r18
    1710:	0f 90       	pop	r0
    1712:	00 92 3b 00 	sts	0x003B, r0	; 0x80003b <__TEXT_REGION_LENGTH__+0x70003b>
    1716:	0f 90       	pop	r0
    1718:	00 92 3f 00 	sts	0x003F, r0	; 0x80003f <__TEXT_REGION_LENGTH__+0x70003f>
    171c:	0f 90       	pop	r0
    171e:	1f 90       	pop	r1
    1720:	18 95       	reti

00001722 <__vector_22>:
    1722:	1f 92       	push	r1
    1724:	0f 92       	push	r0
    1726:	00 90 3f 00 	lds	r0, 0x003F	; 0x80003f <__TEXT_REGION_LENGTH__+0x70003f>
    172a:	0f 92       	push	r0
    172c:	11 24       	eor	r1, r1
    172e:	00 90 3b 00 	lds	r0, 0x003B	; 0x80003b <__TEXT_REGION_LENGTH__+0x70003b>
    1732:	0f 92       	push	r0
    1734:	2f 93       	push	r18
    1736:	3f 93       	push	r19
    1738:	4f 93       	push	r20
    173a:	5f 93       	push	r21
    173c:	6f 93       	push	r22
    173e:	7f 93       	push	r23
    1740:	8f 93       	push	r24
    1742:	9f 93       	push	r25
    1744:	af 93       	push	r26
    1746:	bf 93       	push	r27
    1748:	ef 93       	push	r30
    174a:	ff 93       	push	r31
    174c:	cf 93       	push	r28
    174e:	df 93       	push	r29
    1750:	cd b7       	in	r28, 0x3d	; 61
    1752:	de b7       	in	r29, 0x3e	; 62
    1754:	80 91 4e 22 	lds	r24, 0x224E	; 0x80224e <tc_tcc1_cca_callback>
    1758:	90 91 4f 22 	lds	r25, 0x224F	; 0x80224f <tc_tcc1_cca_callback+0x1>
    175c:	89 2b       	or	r24, r25
    175e:	31 f0       	breq	.+12     	; 0x176c <__vector_22+0x4a>
    1760:	80 91 4e 22 	lds	r24, 0x224E	; 0x80224e <tc_tcc1_cca_callback>
    1764:	90 91 4f 22 	lds	r25, 0x224F	; 0x80224f <tc_tcc1_cca_callback+0x1>
    1768:	fc 01       	movw	r30, r24
    176a:	19 95       	eicall
    176c:	00 00       	nop
    176e:	df 91       	pop	r29
    1770:	cf 91       	pop	r28
    1772:	ff 91       	pop	r31
    1774:	ef 91       	pop	r30
    1776:	bf 91       	pop	r27
    1778:	af 91       	pop	r26
    177a:	9f 91       	pop	r25
    177c:	8f 91       	pop	r24
    177e:	7f 91       	pop	r23
    1780:	6f 91       	pop	r22
    1782:	5f 91       	pop	r21
    1784:	4f 91       	pop	r20
    1786:	3f 91       	pop	r19
    1788:	2f 91       	pop	r18
    178a:	0f 90       	pop	r0
    178c:	00 92 3b 00 	sts	0x003B, r0	; 0x80003b <__TEXT_REGION_LENGTH__+0x70003b>
    1790:	0f 90       	pop	r0
    1792:	00 92 3f 00 	sts	0x003F, r0	; 0x80003f <__TEXT_REGION_LENGTH__+0x70003f>
    1796:	0f 90       	pop	r0
    1798:	1f 90       	pop	r1
    179a:	18 95       	reti

0000179c <__vector_23>:
    179c:	1f 92       	push	r1
    179e:	0f 92       	push	r0
    17a0:	00 90 3f 00 	lds	r0, 0x003F	; 0x80003f <__TEXT_REGION_LENGTH__+0x70003f>
    17a4:	0f 92       	push	r0
    17a6:	11 24       	eor	r1, r1
    17a8:	00 90 3b 00 	lds	r0, 0x003B	; 0x80003b <__TEXT_REGION_LENGTH__+0x70003b>
    17ac:	0f 92       	push	r0
    17ae:	2f 93       	push	r18
    17b0:	3f 93       	push	r19
    17b2:	4f 93       	push	r20
    17b4:	5f 93       	push	r21
    17b6:	6f 93       	push	r22
    17b8:	7f 93       	push	r23
    17ba:	8f 93       	push	r24
    17bc:	9f 93       	push	r25
    17be:	af 93       	push	r26
    17c0:	bf 93       	push	r27
    17c2:	ef 93       	push	r30
    17c4:	ff 93       	push	r31
    17c6:	cf 93       	push	r28
    17c8:	df 93       	push	r29
    17ca:	cd b7       	in	r28, 0x3d	; 61
    17cc:	de b7       	in	r29, 0x3e	; 62
    17ce:	80 91 50 22 	lds	r24, 0x2250	; 0x802250 <tc_tcc1_ccb_callback>
    17d2:	90 91 51 22 	lds	r25, 0x2251	; 0x802251 <tc_tcc1_ccb_callback+0x1>
    17d6:	89 2b       	or	r24, r25
    17d8:	31 f0       	breq	.+12     	; 0x17e6 <__vector_23+0x4a>
    17da:	80 91 50 22 	lds	r24, 0x2250	; 0x802250 <tc_tcc1_ccb_callback>
    17de:	90 91 51 22 	lds	r25, 0x2251	; 0x802251 <tc_tcc1_ccb_callback+0x1>
    17e2:	fc 01       	movw	r30, r24
    17e4:	19 95       	eicall
    17e6:	00 00       	nop
    17e8:	df 91       	pop	r29
    17ea:	cf 91       	pop	r28
    17ec:	ff 91       	pop	r31
    17ee:	ef 91       	pop	r30
    17f0:	bf 91       	pop	r27
    17f2:	af 91       	pop	r26
    17f4:	9f 91       	pop	r25
    17f6:	8f 91       	pop	r24
    17f8:	7f 91       	pop	r23
    17fa:	6f 91       	pop	r22
    17fc:	5f 91       	pop	r21
    17fe:	4f 91       	pop	r20
    1800:	3f 91       	pop	r19
    1802:	2f 91       	pop	r18
    1804:	0f 90       	pop	r0
    1806:	00 92 3b 00 	sts	0x003B, r0	; 0x80003b <__TEXT_REGION_LENGTH__+0x70003b>
    180a:	0f 90       	pop	r0
    180c:	00 92 3f 00 	sts	0x003F, r0	; 0x80003f <__TEXT_REGION_LENGTH__+0x70003f>
    1810:	0f 90       	pop	r0
    1812:	1f 90       	pop	r1
    1814:	18 95       	reti

00001816 <__vector_77>:
    1816:	1f 92       	push	r1
    1818:	0f 92       	push	r0
    181a:	00 90 3f 00 	lds	r0, 0x003F	; 0x80003f <__TEXT_REGION_LENGTH__+0x70003f>
    181e:	0f 92       	push	r0
    1820:	11 24       	eor	r1, r1
    1822:	00 90 3b 00 	lds	r0, 0x003B	; 0x80003b <__TEXT_REGION_LENGTH__+0x70003b>
    1826:	0f 92       	push	r0
    1828:	2f 93       	push	r18
    182a:	3f 93       	push	r19
    182c:	4f 93       	push	r20
    182e:	5f 93       	push	r21
    1830:	6f 93       	push	r22
    1832:	7f 93       	push	r23
    1834:	8f 93       	push	r24
    1836:	9f 93       	push	r25
    1838:	af 93       	push	r26
    183a:	bf 93       	push	r27
    183c:	ef 93       	push	r30
    183e:	ff 93       	push	r31
    1840:	cf 93       	push	r28
    1842:	df 93       	push	r29
    1844:	cd b7       	in	r28, 0x3d	; 61
    1846:	de b7       	in	r29, 0x3e	; 62
    1848:	80 91 52 22 	lds	r24, 0x2252	; 0x802252 <tc_tcd0_ovf_callback>
    184c:	90 91 53 22 	lds	r25, 0x2253	; 0x802253 <tc_tcd0_ovf_callback+0x1>
    1850:	89 2b       	or	r24, r25
    1852:	31 f0       	breq	.+12     	; 0x1860 <__vector_77+0x4a>
    1854:	80 91 52 22 	lds	r24, 0x2252	; 0x802252 <tc_tcd0_ovf_callback>
    1858:	90 91 53 22 	lds	r25, 0x2253	; 0x802253 <tc_tcd0_ovf_callback+0x1>
    185c:	fc 01       	movw	r30, r24
    185e:	19 95       	eicall
    1860:	00 00       	nop
    1862:	df 91       	pop	r29
    1864:	cf 91       	pop	r28
    1866:	ff 91       	pop	r31
    1868:	ef 91       	pop	r30
    186a:	bf 91       	pop	r27
    186c:	af 91       	pop	r26
    186e:	9f 91       	pop	r25
    1870:	8f 91       	pop	r24
    1872:	7f 91       	pop	r23
    1874:	6f 91       	pop	r22
    1876:	5f 91       	pop	r21
    1878:	4f 91       	pop	r20
    187a:	3f 91       	pop	r19
    187c:	2f 91       	pop	r18
    187e:	0f 90       	pop	r0
    1880:	00 92 3b 00 	sts	0x003B, r0	; 0x80003b <__TEXT_REGION_LENGTH__+0x70003b>
    1884:	0f 90       	pop	r0
    1886:	00 92 3f 00 	sts	0x003F, r0	; 0x80003f <__TEXT_REGION_LENGTH__+0x70003f>
    188a:	0f 90       	pop	r0
    188c:	1f 90       	pop	r1
    188e:	18 95       	reti

00001890 <__vector_78>:
    1890:	1f 92       	push	r1
    1892:	0f 92       	push	r0
    1894:	00 90 3f 00 	lds	r0, 0x003F	; 0x80003f <__TEXT_REGION_LENGTH__+0x70003f>
    1898:	0f 92       	push	r0
    189a:	11 24       	eor	r1, r1
    189c:	00 90 3b 00 	lds	r0, 0x003B	; 0x80003b <__TEXT_REGION_LENGTH__+0x70003b>
    18a0:	0f 92       	push	r0
    18a2:	2f 93       	push	r18
    18a4:	3f 93       	push	r19
    18a6:	4f 93       	push	r20
    18a8:	5f 93       	push	r21
    18aa:	6f 93       	push	r22
    18ac:	7f 93       	push	r23
    18ae:	8f 93       	push	r24
    18b0:	9f 93       	push	r25
    18b2:	af 93       	push	r26
    18b4:	bf 93       	push	r27
    18b6:	ef 93       	push	r30
    18b8:	ff 93       	push	r31
    18ba:	cf 93       	push	r28
    18bc:	df 93       	push	r29
    18be:	cd b7       	in	r28, 0x3d	; 61
    18c0:	de b7       	in	r29, 0x3e	; 62
    18c2:	80 91 54 22 	lds	r24, 0x2254	; 0x802254 <tc_tcd0_err_callback>
    18c6:	90 91 55 22 	lds	r25, 0x2255	; 0x802255 <tc_tcd0_err_callback+0x1>
    18ca:	89 2b       	or	r24, r25
    18cc:	31 f0       	breq	.+12     	; 0x18da <__vector_78+0x4a>
    18ce:	80 91 54 22 	lds	r24, 0x2254	; 0x802254 <tc_tcd0_err_callback>
    18d2:	90 91 55 22 	lds	r25, 0x2255	; 0x802255 <tc_tcd0_err_callback+0x1>
    18d6:	fc 01       	movw	r30, r24
    18d8:	19 95       	eicall
    18da:	00 00       	nop
    18dc:	df 91       	pop	r29
    18de:	cf 91       	pop	r28
    18e0:	ff 91       	pop	r31
    18e2:	ef 91       	pop	r30
    18e4:	bf 91       	pop	r27
    18e6:	af 91       	pop	r26
    18e8:	9f 91       	pop	r25
    18ea:	8f 91       	pop	r24
    18ec:	7f 91       	pop	r23
    18ee:	6f 91       	pop	r22
    18f0:	5f 91       	pop	r21
    18f2:	4f 91       	pop	r20
    18f4:	3f 91       	pop	r19
    18f6:	2f 91       	pop	r18
    18f8:	0f 90       	pop	r0
    18fa:	00 92 3b 00 	sts	0x003B, r0	; 0x80003b <__TEXT_REGION_LENGTH__+0x70003b>
    18fe:	0f 90       	pop	r0
    1900:	00 92 3f 00 	sts	0x003F, r0	; 0x80003f <__TEXT_REGION_LENGTH__+0x70003f>
    1904:	0f 90       	pop	r0
    1906:	1f 90       	pop	r1
    1908:	18 95       	reti

0000190a <__vector_79>:
    190a:	1f 92       	push	r1
    190c:	0f 92       	push	r0
    190e:	00 90 3f 00 	lds	r0, 0x003F	; 0x80003f <__TEXT_REGION_LENGTH__+0x70003f>
    1912:	0f 92       	push	r0
    1914:	11 24       	eor	r1, r1
    1916:	00 90 3b 00 	lds	r0, 0x003B	; 0x80003b <__TEXT_REGION_LENGTH__+0x70003b>
    191a:	0f 92       	push	r0
    191c:	2f 93       	push	r18
    191e:	3f 93       	push	r19
    1920:	4f 93       	push	r20
    1922:	5f 93       	push	r21
    1924:	6f 93       	push	r22
    1926:	7f 93       	push	r23
    1928:	8f 93       	push	r24
    192a:	9f 93       	push	r25
    192c:	af 93       	push	r26
    192e:	bf 93       	push	r27
    1930:	ef 93       	push	r30
    1932:	ff 93       	push	r31
    1934:	cf 93       	push	r28
    1936:	df 93       	push	r29
    1938:	cd b7       	in	r28, 0x3d	; 61
    193a:	de b7       	in	r29, 0x3e	; 62
    193c:	80 91 56 22 	lds	r24, 0x2256	; 0x802256 <tc_tcd0_cca_callback>
    1940:	90 91 57 22 	lds	r25, 0x2257	; 0x802257 <tc_tcd0_cca_callback+0x1>
    1944:	89 2b       	or	r24, r25
    1946:	31 f0       	breq	.+12     	; 0x1954 <__vector_79+0x4a>
    1948:	80 91 56 22 	lds	r24, 0x2256	; 0x802256 <tc_tcd0_cca_callback>
    194c:	90 91 57 22 	lds	r25, 0x2257	; 0x802257 <tc_tcd0_cca_callback+0x1>
    1950:	fc 01       	movw	r30, r24
    1952:	19 95       	eicall
    1954:	00 00       	nop
    1956:	df 91       	pop	r29
    1958:	cf 91       	pop	r28
    195a:	ff 91       	pop	r31
    195c:	ef 91       	pop	r30
    195e:	bf 91       	pop	r27
    1960:	af 91       	pop	r26
    1962:	9f 91       	pop	r25
    1964:	8f 91       	pop	r24
    1966:	7f 91       	pop	r23
    1968:	6f 91       	pop	r22
    196a:	5f 91       	pop	r21
    196c:	4f 91       	pop	r20
    196e:	3f 91       	pop	r19
    1970:	2f 91       	pop	r18
    1972:	0f 90       	pop	r0
    1974:	00 92 3b 00 	sts	0x003B, r0	; 0x80003b <__TEXT_REGION_LENGTH__+0x70003b>
    1978:	0f 90       	pop	r0
    197a:	00 92 3f 00 	sts	0x003F, r0	; 0x80003f <__TEXT_REGION_LENGTH__+0x70003f>
    197e:	0f 90       	pop	r0
    1980:	1f 90       	pop	r1
    1982:	18 95       	reti

00001984 <__vector_80>:
    1984:	1f 92       	push	r1
    1986:	0f 92       	push	r0
    1988:	00 90 3f 00 	lds	r0, 0x003F	; 0x80003f <__TEXT_REGION_LENGTH__+0x70003f>
    198c:	0f 92       	push	r0
    198e:	11 24       	eor	r1, r1
    1990:	00 90 3b 00 	lds	r0, 0x003B	; 0x80003b <__TEXT_REGION_LENGTH__+0x70003b>
    1994:	0f 92       	push	r0
    1996:	2f 93       	push	r18
    1998:	3f 93       	push	r19
    199a:	4f 93       	push	r20
    199c:	5f 93       	push	r21
    199e:	6f 93       	push	r22
    19a0:	7f 93       	push	r23
    19a2:	8f 93       	push	r24
    19a4:	9f 93       	push	r25
    19a6:	af 93       	push	r26
    19a8:	bf 93       	push	r27
    19aa:	ef 93       	push	r30
    19ac:	ff 93       	push	r31
    19ae:	cf 93       	push	r28
    19b0:	df 93       	push	r29
    19b2:	cd b7       	in	r28, 0x3d	; 61
    19b4:	de b7       	in	r29, 0x3e	; 62
    19b6:	80 91 58 22 	lds	r24, 0x2258	; 0x802258 <tc_tcd0_ccb_callback>
    19ba:	90 91 59 22 	lds	r25, 0x2259	; 0x802259 <tc_tcd0_ccb_callback+0x1>
    19be:	89 2b       	or	r24, r25
    19c0:	31 f0       	breq	.+12     	; 0x19ce <__vector_80+0x4a>
    19c2:	80 91 58 22 	lds	r24, 0x2258	; 0x802258 <tc_tcd0_ccb_callback>
    19c6:	90 91 59 22 	lds	r25, 0x2259	; 0x802259 <tc_tcd0_ccb_callback+0x1>
    19ca:	fc 01       	movw	r30, r24
    19cc:	19 95       	eicall
    19ce:	00 00       	nop
    19d0:	df 91       	pop	r29
    19d2:	cf 91       	pop	r28
    19d4:	ff 91       	pop	r31
    19d6:	ef 91       	pop	r30
    19d8:	bf 91       	pop	r27
    19da:	af 91       	pop	r26
    19dc:	9f 91       	pop	r25
    19de:	8f 91       	pop	r24
    19e0:	7f 91       	pop	r23
    19e2:	6f 91       	pop	r22
    19e4:	5f 91       	pop	r21
    19e6:	4f 91       	pop	r20
    19e8:	3f 91       	pop	r19
    19ea:	2f 91       	pop	r18
    19ec:	0f 90       	pop	r0
    19ee:	00 92 3b 00 	sts	0x003B, r0	; 0x80003b <__TEXT_REGION_LENGTH__+0x70003b>
    19f2:	0f 90       	pop	r0
    19f4:	00 92 3f 00 	sts	0x003F, r0	; 0x80003f <__TEXT_REGION_LENGTH__+0x70003f>
    19f8:	0f 90       	pop	r0
    19fa:	1f 90       	pop	r1
    19fc:	18 95       	reti

000019fe <__vector_81>:
    19fe:	1f 92       	push	r1
    1a00:	0f 92       	push	r0
    1a02:	00 90 3f 00 	lds	r0, 0x003F	; 0x80003f <__TEXT_REGION_LENGTH__+0x70003f>
    1a06:	0f 92       	push	r0
    1a08:	11 24       	eor	r1, r1
    1a0a:	00 90 3b 00 	lds	r0, 0x003B	; 0x80003b <__TEXT_REGION_LENGTH__+0x70003b>
    1a0e:	0f 92       	push	r0
    1a10:	2f 93       	push	r18
    1a12:	3f 93       	push	r19
    1a14:	4f 93       	push	r20
    1a16:	5f 93       	push	r21
    1a18:	6f 93       	push	r22
    1a1a:	7f 93       	push	r23
    1a1c:	8f 93       	push	r24
    1a1e:	9f 93       	push	r25
    1a20:	af 93       	push	r26
    1a22:	bf 93       	push	r27
    1a24:	ef 93       	push	r30
    1a26:	ff 93       	push	r31
    1a28:	cf 93       	push	r28
    1a2a:	df 93       	push	r29
    1a2c:	cd b7       	in	r28, 0x3d	; 61
    1a2e:	de b7       	in	r29, 0x3e	; 62
    1a30:	80 91 5a 22 	lds	r24, 0x225A	; 0x80225a <tc_tcd0_ccc_callback>
    1a34:	90 91 5b 22 	lds	r25, 0x225B	; 0x80225b <tc_tcd0_ccc_callback+0x1>
    1a38:	89 2b       	or	r24, r25
    1a3a:	31 f0       	breq	.+12     	; 0x1a48 <__vector_81+0x4a>
    1a3c:	80 91 5a 22 	lds	r24, 0x225A	; 0x80225a <tc_tcd0_ccc_callback>
    1a40:	90 91 5b 22 	lds	r25, 0x225B	; 0x80225b <tc_tcd0_ccc_callback+0x1>
    1a44:	fc 01       	movw	r30, r24
    1a46:	19 95       	eicall
    1a48:	00 00       	nop
    1a4a:	df 91       	pop	r29
    1a4c:	cf 91       	pop	r28
    1a4e:	ff 91       	pop	r31
    1a50:	ef 91       	pop	r30
    1a52:	bf 91       	pop	r27
    1a54:	af 91       	pop	r26
    1a56:	9f 91       	pop	r25
    1a58:	8f 91       	pop	r24
    1a5a:	7f 91       	pop	r23
    1a5c:	6f 91       	pop	r22
    1a5e:	5f 91       	pop	r21
    1a60:	4f 91       	pop	r20
    1a62:	3f 91       	pop	r19
    1a64:	2f 91       	pop	r18
    1a66:	0f 90       	pop	r0
    1a68:	00 92 3b 00 	sts	0x003B, r0	; 0x80003b <__TEXT_REGION_LENGTH__+0x70003b>
    1a6c:	0f 90       	pop	r0
    1a6e:	00 92 3f 00 	sts	0x003F, r0	; 0x80003f <__TEXT_REGION_LENGTH__+0x70003f>
    1a72:	0f 90       	pop	r0
    1a74:	1f 90       	pop	r1
    1a76:	18 95       	reti

00001a78 <__vector_82>:
    1a78:	1f 92       	push	r1
    1a7a:	0f 92       	push	r0
    1a7c:	00 90 3f 00 	lds	r0, 0x003F	; 0x80003f <__TEXT_REGION_LENGTH__+0x70003f>
    1a80:	0f 92       	push	r0
    1a82:	11 24       	eor	r1, r1
    1a84:	00 90 3b 00 	lds	r0, 0x003B	; 0x80003b <__TEXT_REGION_LENGTH__+0x70003b>
    1a88:	0f 92       	push	r0
    1a8a:	2f 93       	push	r18
    1a8c:	3f 93       	push	r19
    1a8e:	4f 93       	push	r20
    1a90:	5f 93       	push	r21
    1a92:	6f 93       	push	r22
    1a94:	7f 93       	push	r23
    1a96:	8f 93       	push	r24
    1a98:	9f 93       	push	r25
    1a9a:	af 93       	push	r26
    1a9c:	bf 93       	push	r27
    1a9e:	ef 93       	push	r30
    1aa0:	ff 93       	push	r31
    1aa2:	cf 93       	push	r28
    1aa4:	df 93       	push	r29
    1aa6:	cd b7       	in	r28, 0x3d	; 61
    1aa8:	de b7       	in	r29, 0x3e	; 62
    1aaa:	80 91 5c 22 	lds	r24, 0x225C	; 0x80225c <tc_tcd0_ccd_callback>
    1aae:	90 91 5d 22 	lds	r25, 0x225D	; 0x80225d <tc_tcd0_ccd_callback+0x1>
    1ab2:	89 2b       	or	r24, r25
    1ab4:	31 f0       	breq	.+12     	; 0x1ac2 <__vector_82+0x4a>
    1ab6:	80 91 5c 22 	lds	r24, 0x225C	; 0x80225c <tc_tcd0_ccd_callback>
    1aba:	90 91 5d 22 	lds	r25, 0x225D	; 0x80225d <tc_tcd0_ccd_callback+0x1>
    1abe:	fc 01       	movw	r30, r24
    1ac0:	19 95       	eicall
    1ac2:	00 00       	nop
    1ac4:	df 91       	pop	r29
    1ac6:	cf 91       	pop	r28
    1ac8:	ff 91       	pop	r31
    1aca:	ef 91       	pop	r30
    1acc:	bf 91       	pop	r27
    1ace:	af 91       	pop	r26
    1ad0:	9f 91       	pop	r25
    1ad2:	8f 91       	pop	r24
    1ad4:	7f 91       	pop	r23
    1ad6:	6f 91       	pop	r22
    1ad8:	5f 91       	pop	r21
    1ada:	4f 91       	pop	r20
    1adc:	3f 91       	pop	r19
    1ade:	2f 91       	pop	r18
    1ae0:	0f 90       	pop	r0
    1ae2:	00 92 3b 00 	sts	0x003B, r0	; 0x80003b <__TEXT_REGION_LENGTH__+0x70003b>
    1ae6:	0f 90       	pop	r0
    1ae8:	00 92 3f 00 	sts	0x003F, r0	; 0x80003f <__TEXT_REGION_LENGTH__+0x70003f>
    1aec:	0f 90       	pop	r0
    1aee:	1f 90       	pop	r1
    1af0:	18 95       	reti

00001af2 <__vector_83>:
    1af2:	1f 92       	push	r1
    1af4:	0f 92       	push	r0
    1af6:	00 90 3f 00 	lds	r0, 0x003F	; 0x80003f <__TEXT_REGION_LENGTH__+0x70003f>
    1afa:	0f 92       	push	r0
    1afc:	11 24       	eor	r1, r1
    1afe:	00 90 3b 00 	lds	r0, 0x003B	; 0x80003b <__TEXT_REGION_LENGTH__+0x70003b>
    1b02:	0f 92       	push	r0
    1b04:	2f 93       	push	r18
    1b06:	3f 93       	push	r19
    1b08:	4f 93       	push	r20
    1b0a:	5f 93       	push	r21
    1b0c:	6f 93       	push	r22
    1b0e:	7f 93       	push	r23
    1b10:	8f 93       	push	r24
    1b12:	9f 93       	push	r25
    1b14:	af 93       	push	r26
    1b16:	bf 93       	push	r27
    1b18:	ef 93       	push	r30
    1b1a:	ff 93       	push	r31
    1b1c:	cf 93       	push	r28
    1b1e:	df 93       	push	r29
    1b20:	cd b7       	in	r28, 0x3d	; 61
    1b22:	de b7       	in	r29, 0x3e	; 62
    1b24:	80 91 5e 22 	lds	r24, 0x225E	; 0x80225e <tc_tcd1_ovf_callback>
    1b28:	90 91 5f 22 	lds	r25, 0x225F	; 0x80225f <tc_tcd1_ovf_callback+0x1>
    1b2c:	89 2b       	or	r24, r25
    1b2e:	31 f0       	breq	.+12     	; 0x1b3c <__vector_83+0x4a>
    1b30:	80 91 5e 22 	lds	r24, 0x225E	; 0x80225e <tc_tcd1_ovf_callback>
    1b34:	90 91 5f 22 	lds	r25, 0x225F	; 0x80225f <tc_tcd1_ovf_callback+0x1>
    1b38:	fc 01       	movw	r30, r24
    1b3a:	19 95       	eicall
    1b3c:	00 00       	nop
    1b3e:	df 91       	pop	r29
    1b40:	cf 91       	pop	r28
    1b42:	ff 91       	pop	r31
    1b44:	ef 91       	pop	r30
    1b46:	bf 91       	pop	r27
    1b48:	af 91       	pop	r26
    1b4a:	9f 91       	pop	r25
    1b4c:	8f 91       	pop	r24
    1b4e:	7f 91       	pop	r23
    1b50:	6f 91       	pop	r22
    1b52:	5f 91       	pop	r21
    1b54:	4f 91       	pop	r20
    1b56:	3f 91       	pop	r19
    1b58:	2f 91       	pop	r18
    1b5a:	0f 90       	pop	r0
    1b5c:	00 92 3b 00 	sts	0x003B, r0	; 0x80003b <__TEXT_REGION_LENGTH__+0x70003b>
    1b60:	0f 90       	pop	r0
    1b62:	00 92 3f 00 	sts	0x003F, r0	; 0x80003f <__TEXT_REGION_LENGTH__+0x70003f>
    1b66:	0f 90       	pop	r0
    1b68:	1f 90       	pop	r1
    1b6a:	18 95       	reti

00001b6c <__vector_84>:
    1b6c:	1f 92       	push	r1
    1b6e:	0f 92       	push	r0
    1b70:	00 90 3f 00 	lds	r0, 0x003F	; 0x80003f <__TEXT_REGION_LENGTH__+0x70003f>
    1b74:	0f 92       	push	r0
    1b76:	11 24       	eor	r1, r1
    1b78:	00 90 3b 00 	lds	r0, 0x003B	; 0x80003b <__TEXT_REGION_LENGTH__+0x70003b>
    1b7c:	0f 92       	push	r0
    1b7e:	2f 93       	push	r18
    1b80:	3f 93       	push	r19
    1b82:	4f 93       	push	r20
    1b84:	5f 93       	push	r21
    1b86:	6f 93       	push	r22
    1b88:	7f 93       	push	r23
    1b8a:	8f 93       	push	r24
    1b8c:	9f 93       	push	r25
    1b8e:	af 93       	push	r26
    1b90:	bf 93       	push	r27
    1b92:	ef 93       	push	r30
    1b94:	ff 93       	push	r31
    1b96:	cf 93       	push	r28
    1b98:	df 93       	push	r29
    1b9a:	cd b7       	in	r28, 0x3d	; 61
    1b9c:	de b7       	in	r29, 0x3e	; 62
    1b9e:	80 91 60 22 	lds	r24, 0x2260	; 0x802260 <tc_tcd1_err_callback>
    1ba2:	90 91 61 22 	lds	r25, 0x2261	; 0x802261 <tc_tcd1_err_callback+0x1>
    1ba6:	89 2b       	or	r24, r25
    1ba8:	31 f0       	breq	.+12     	; 0x1bb6 <__vector_84+0x4a>
    1baa:	80 91 60 22 	lds	r24, 0x2260	; 0x802260 <tc_tcd1_err_callback>
    1bae:	90 91 61 22 	lds	r25, 0x2261	; 0x802261 <tc_tcd1_err_callback+0x1>
    1bb2:	fc 01       	movw	r30, r24
    1bb4:	19 95       	eicall
    1bb6:	00 00       	nop
    1bb8:	df 91       	pop	r29
    1bba:	cf 91       	pop	r28
    1bbc:	ff 91       	pop	r31
    1bbe:	ef 91       	pop	r30
    1bc0:	bf 91       	pop	r27
    1bc2:	af 91       	pop	r26
    1bc4:	9f 91       	pop	r25
    1bc6:	8f 91       	pop	r24
    1bc8:	7f 91       	pop	r23
    1bca:	6f 91       	pop	r22
    1bcc:	5f 91       	pop	r21
    1bce:	4f 91       	pop	r20
    1bd0:	3f 91       	pop	r19
    1bd2:	2f 91       	pop	r18
    1bd4:	0f 90       	pop	r0
    1bd6:	00 92 3b 00 	sts	0x003B, r0	; 0x80003b <__TEXT_REGION_LENGTH__+0x70003b>
    1bda:	0f 90       	pop	r0
    1bdc:	00 92 3f 00 	sts	0x003F, r0	; 0x80003f <__TEXT_REGION_LENGTH__+0x70003f>
    1be0:	0f 90       	pop	r0
    1be2:	1f 90       	pop	r1
    1be4:	18 95       	reti

00001be6 <__vector_85>:
    1be6:	1f 92       	push	r1
    1be8:	0f 92       	push	r0
    1bea:	00 90 3f 00 	lds	r0, 0x003F	; 0x80003f <__TEXT_REGION_LENGTH__+0x70003f>
    1bee:	0f 92       	push	r0
    1bf0:	11 24       	eor	r1, r1
    1bf2:	00 90 3b 00 	lds	r0, 0x003B	; 0x80003b <__TEXT_REGION_LENGTH__+0x70003b>
    1bf6:	0f 92       	push	r0
    1bf8:	2f 93       	push	r18
    1bfa:	3f 93       	push	r19
    1bfc:	4f 93       	push	r20
    1bfe:	5f 93       	push	r21
    1c00:	6f 93       	push	r22
    1c02:	7f 93       	push	r23
    1c04:	8f 93       	push	r24
    1c06:	9f 93       	push	r25
    1c08:	af 93       	push	r26
    1c0a:	bf 93       	push	r27
    1c0c:	ef 93       	push	r30
    1c0e:	ff 93       	push	r31
    1c10:	cf 93       	push	r28
    1c12:	df 93       	push	r29
    1c14:	cd b7       	in	r28, 0x3d	; 61
    1c16:	de b7       	in	r29, 0x3e	; 62
    1c18:	80 91 62 22 	lds	r24, 0x2262	; 0x802262 <tc_tcd1_cca_callback>
    1c1c:	90 91 63 22 	lds	r25, 0x2263	; 0x802263 <tc_tcd1_cca_callback+0x1>
    1c20:	89 2b       	or	r24, r25
    1c22:	31 f0       	breq	.+12     	; 0x1c30 <__vector_85+0x4a>
    1c24:	80 91 62 22 	lds	r24, 0x2262	; 0x802262 <tc_tcd1_cca_callback>
    1c28:	90 91 63 22 	lds	r25, 0x2263	; 0x802263 <tc_tcd1_cca_callback+0x1>
    1c2c:	fc 01       	movw	r30, r24
    1c2e:	19 95       	eicall
    1c30:	00 00       	nop
    1c32:	df 91       	pop	r29
    1c34:	cf 91       	pop	r28
    1c36:	ff 91       	pop	r31
    1c38:	ef 91       	pop	r30
    1c3a:	bf 91       	pop	r27
    1c3c:	af 91       	pop	r26
    1c3e:	9f 91       	pop	r25
    1c40:	8f 91       	pop	r24
    1c42:	7f 91       	pop	r23
    1c44:	6f 91       	pop	r22
    1c46:	5f 91       	pop	r21
    1c48:	4f 91       	pop	r20
    1c4a:	3f 91       	pop	r19
    1c4c:	2f 91       	pop	r18
    1c4e:	0f 90       	pop	r0
    1c50:	00 92 3b 00 	sts	0x003B, r0	; 0x80003b <__TEXT_REGION_LENGTH__+0x70003b>
    1c54:	0f 90       	pop	r0
    1c56:	00 92 3f 00 	sts	0x003F, r0	; 0x80003f <__TEXT_REGION_LENGTH__+0x70003f>
    1c5a:	0f 90       	pop	r0
    1c5c:	1f 90       	pop	r1
    1c5e:	18 95       	reti

00001c60 <__vector_86>:
    1c60:	1f 92       	push	r1
    1c62:	0f 92       	push	r0
    1c64:	00 90 3f 00 	lds	r0, 0x003F	; 0x80003f <__TEXT_REGION_LENGTH__+0x70003f>
    1c68:	0f 92       	push	r0
    1c6a:	11 24       	eor	r1, r1
    1c6c:	00 90 3b 00 	lds	r0, 0x003B	; 0x80003b <__TEXT_REGION_LENGTH__+0x70003b>
    1c70:	0f 92       	push	r0
    1c72:	2f 93       	push	r18
    1c74:	3f 93       	push	r19
    1c76:	4f 93       	push	r20
    1c78:	5f 93       	push	r21
    1c7a:	6f 93       	push	r22
    1c7c:	7f 93       	push	r23
    1c7e:	8f 93       	push	r24
    1c80:	9f 93       	push	r25
    1c82:	af 93       	push	r26
    1c84:	bf 93       	push	r27
    1c86:	ef 93       	push	r30
    1c88:	ff 93       	push	r31
    1c8a:	cf 93       	push	r28
    1c8c:	df 93       	push	r29
    1c8e:	cd b7       	in	r28, 0x3d	; 61
    1c90:	de b7       	in	r29, 0x3e	; 62
    1c92:	80 91 64 22 	lds	r24, 0x2264	; 0x802264 <tc_tcd1_ccb_callback>
    1c96:	90 91 65 22 	lds	r25, 0x2265	; 0x802265 <tc_tcd1_ccb_callback+0x1>
    1c9a:	89 2b       	or	r24, r25
    1c9c:	31 f0       	breq	.+12     	; 0x1caa <__vector_86+0x4a>
    1c9e:	80 91 64 22 	lds	r24, 0x2264	; 0x802264 <tc_tcd1_ccb_callback>
    1ca2:	90 91 65 22 	lds	r25, 0x2265	; 0x802265 <tc_tcd1_ccb_callback+0x1>
    1ca6:	fc 01       	movw	r30, r24
    1ca8:	19 95       	eicall
    1caa:	00 00       	nop
    1cac:	df 91       	pop	r29
    1cae:	cf 91       	pop	r28
    1cb0:	ff 91       	pop	r31
    1cb2:	ef 91       	pop	r30
    1cb4:	bf 91       	pop	r27
    1cb6:	af 91       	pop	r26
    1cb8:	9f 91       	pop	r25
    1cba:	8f 91       	pop	r24
    1cbc:	7f 91       	pop	r23
    1cbe:	6f 91       	pop	r22
    1cc0:	5f 91       	pop	r21
    1cc2:	4f 91       	pop	r20
    1cc4:	3f 91       	pop	r19
    1cc6:	2f 91       	pop	r18
    1cc8:	0f 90       	pop	r0
    1cca:	00 92 3b 00 	sts	0x003B, r0	; 0x80003b <__TEXT_REGION_LENGTH__+0x70003b>
    1cce:	0f 90       	pop	r0
    1cd0:	00 92 3f 00 	sts	0x003F, r0	; 0x80003f <__TEXT_REGION_LENGTH__+0x70003f>
    1cd4:	0f 90       	pop	r0
    1cd6:	1f 90       	pop	r1
    1cd8:	18 95       	reti

00001cda <__vector_47>:
    1cda:	1f 92       	push	r1
    1cdc:	0f 92       	push	r0
    1cde:	00 90 3f 00 	lds	r0, 0x003F	; 0x80003f <__TEXT_REGION_LENGTH__+0x70003f>
    1ce2:	0f 92       	push	r0
    1ce4:	11 24       	eor	r1, r1
    1ce6:	00 90 3b 00 	lds	r0, 0x003B	; 0x80003b <__TEXT_REGION_LENGTH__+0x70003b>
    1cea:	0f 92       	push	r0
    1cec:	2f 93       	push	r18
    1cee:	3f 93       	push	r19
    1cf0:	4f 93       	push	r20
    1cf2:	5f 93       	push	r21
    1cf4:	6f 93       	push	r22
    1cf6:	7f 93       	push	r23
    1cf8:	8f 93       	push	r24
    1cfa:	9f 93       	push	r25
    1cfc:	af 93       	push	r26
    1cfe:	bf 93       	push	r27
    1d00:	ef 93       	push	r30
    1d02:	ff 93       	push	r31
    1d04:	cf 93       	push	r28
    1d06:	df 93       	push	r29
    1d08:	cd b7       	in	r28, 0x3d	; 61
    1d0a:	de b7       	in	r29, 0x3e	; 62
    1d0c:	80 91 66 22 	lds	r24, 0x2266	; 0x802266 <tc_tce0_ovf_callback>
    1d10:	90 91 67 22 	lds	r25, 0x2267	; 0x802267 <tc_tce0_ovf_callback+0x1>
    1d14:	89 2b       	or	r24, r25
    1d16:	31 f0       	breq	.+12     	; 0x1d24 <__vector_47+0x4a>
    1d18:	80 91 66 22 	lds	r24, 0x2266	; 0x802266 <tc_tce0_ovf_callback>
    1d1c:	90 91 67 22 	lds	r25, 0x2267	; 0x802267 <tc_tce0_ovf_callback+0x1>
    1d20:	fc 01       	movw	r30, r24
    1d22:	19 95       	eicall
    1d24:	00 00       	nop
    1d26:	df 91       	pop	r29
    1d28:	cf 91       	pop	r28
    1d2a:	ff 91       	pop	r31
    1d2c:	ef 91       	pop	r30
    1d2e:	bf 91       	pop	r27
    1d30:	af 91       	pop	r26
    1d32:	9f 91       	pop	r25
    1d34:	8f 91       	pop	r24
    1d36:	7f 91       	pop	r23
    1d38:	6f 91       	pop	r22
    1d3a:	5f 91       	pop	r21
    1d3c:	4f 91       	pop	r20
    1d3e:	3f 91       	pop	r19
    1d40:	2f 91       	pop	r18
    1d42:	0f 90       	pop	r0
    1d44:	00 92 3b 00 	sts	0x003B, r0	; 0x80003b <__TEXT_REGION_LENGTH__+0x70003b>
    1d48:	0f 90       	pop	r0
    1d4a:	00 92 3f 00 	sts	0x003F, r0	; 0x80003f <__TEXT_REGION_LENGTH__+0x70003f>
    1d4e:	0f 90       	pop	r0
    1d50:	1f 90       	pop	r1
    1d52:	18 95       	reti

00001d54 <__vector_48>:
    1d54:	1f 92       	push	r1
    1d56:	0f 92       	push	r0
    1d58:	00 90 3f 00 	lds	r0, 0x003F	; 0x80003f <__TEXT_REGION_LENGTH__+0x70003f>
    1d5c:	0f 92       	push	r0
    1d5e:	11 24       	eor	r1, r1
    1d60:	00 90 3b 00 	lds	r0, 0x003B	; 0x80003b <__TEXT_REGION_LENGTH__+0x70003b>
    1d64:	0f 92       	push	r0
    1d66:	2f 93       	push	r18
    1d68:	3f 93       	push	r19
    1d6a:	4f 93       	push	r20
    1d6c:	5f 93       	push	r21
    1d6e:	6f 93       	push	r22
    1d70:	7f 93       	push	r23
    1d72:	8f 93       	push	r24
    1d74:	9f 93       	push	r25
    1d76:	af 93       	push	r26
    1d78:	bf 93       	push	r27
    1d7a:	ef 93       	push	r30
    1d7c:	ff 93       	push	r31
    1d7e:	cf 93       	push	r28
    1d80:	df 93       	push	r29
    1d82:	cd b7       	in	r28, 0x3d	; 61
    1d84:	de b7       	in	r29, 0x3e	; 62
    1d86:	80 91 68 22 	lds	r24, 0x2268	; 0x802268 <tc_tce0_err_callback>
    1d8a:	90 91 69 22 	lds	r25, 0x2269	; 0x802269 <tc_tce0_err_callback+0x1>
    1d8e:	89 2b       	or	r24, r25
    1d90:	31 f0       	breq	.+12     	; 0x1d9e <__vector_48+0x4a>
    1d92:	80 91 68 22 	lds	r24, 0x2268	; 0x802268 <tc_tce0_err_callback>
    1d96:	90 91 69 22 	lds	r25, 0x2269	; 0x802269 <tc_tce0_err_callback+0x1>
    1d9a:	fc 01       	movw	r30, r24
    1d9c:	19 95       	eicall
    1d9e:	00 00       	nop
    1da0:	df 91       	pop	r29
    1da2:	cf 91       	pop	r28
    1da4:	ff 91       	pop	r31
    1da6:	ef 91       	pop	r30
    1da8:	bf 91       	pop	r27
    1daa:	af 91       	pop	r26
    1dac:	9f 91       	pop	r25
    1dae:	8f 91       	pop	r24
    1db0:	7f 91       	pop	r23
    1db2:	6f 91       	pop	r22
    1db4:	5f 91       	pop	r21
    1db6:	4f 91       	pop	r20
    1db8:	3f 91       	pop	r19
    1dba:	2f 91       	pop	r18
    1dbc:	0f 90       	pop	r0
    1dbe:	00 92 3b 00 	sts	0x003B, r0	; 0x80003b <__TEXT_REGION_LENGTH__+0x70003b>
    1dc2:	0f 90       	pop	r0
    1dc4:	00 92 3f 00 	sts	0x003F, r0	; 0x80003f <__TEXT_REGION_LENGTH__+0x70003f>
    1dc8:	0f 90       	pop	r0
    1dca:	1f 90       	pop	r1
    1dcc:	18 95       	reti

00001dce <__vector_49>:
    1dce:	1f 92       	push	r1
    1dd0:	0f 92       	push	r0
    1dd2:	00 90 3f 00 	lds	r0, 0x003F	; 0x80003f <__TEXT_REGION_LENGTH__+0x70003f>
    1dd6:	0f 92       	push	r0
    1dd8:	11 24       	eor	r1, r1
    1dda:	00 90 3b 00 	lds	r0, 0x003B	; 0x80003b <__TEXT_REGION_LENGTH__+0x70003b>
    1dde:	0f 92       	push	r0
    1de0:	2f 93       	push	r18
    1de2:	3f 93       	push	r19
    1de4:	4f 93       	push	r20
    1de6:	5f 93       	push	r21
    1de8:	6f 93       	push	r22
    1dea:	7f 93       	push	r23
    1dec:	8f 93       	push	r24
    1dee:	9f 93       	push	r25
    1df0:	af 93       	push	r26
    1df2:	bf 93       	push	r27
    1df4:	ef 93       	push	r30
    1df6:	ff 93       	push	r31
    1df8:	cf 93       	push	r28
    1dfa:	df 93       	push	r29
    1dfc:	cd b7       	in	r28, 0x3d	; 61
    1dfe:	de b7       	in	r29, 0x3e	; 62
    1e00:	80 91 6a 22 	lds	r24, 0x226A	; 0x80226a <tc_tce0_cca_callback>
    1e04:	90 91 6b 22 	lds	r25, 0x226B	; 0x80226b <tc_tce0_cca_callback+0x1>
    1e08:	89 2b       	or	r24, r25
    1e0a:	31 f0       	breq	.+12     	; 0x1e18 <__vector_49+0x4a>
    1e0c:	80 91 6a 22 	lds	r24, 0x226A	; 0x80226a <tc_tce0_cca_callback>
    1e10:	90 91 6b 22 	lds	r25, 0x226B	; 0x80226b <tc_tce0_cca_callback+0x1>
    1e14:	fc 01       	movw	r30, r24
    1e16:	19 95       	eicall
    1e18:	00 00       	nop
    1e1a:	df 91       	pop	r29
    1e1c:	cf 91       	pop	r28
    1e1e:	ff 91       	pop	r31
    1e20:	ef 91       	pop	r30
    1e22:	bf 91       	pop	r27
    1e24:	af 91       	pop	r26
    1e26:	9f 91       	pop	r25
    1e28:	8f 91       	pop	r24
    1e2a:	7f 91       	pop	r23
    1e2c:	6f 91       	pop	r22
    1e2e:	5f 91       	pop	r21
    1e30:	4f 91       	pop	r20
    1e32:	3f 91       	pop	r19
    1e34:	2f 91       	pop	r18
    1e36:	0f 90       	pop	r0
    1e38:	00 92 3b 00 	sts	0x003B, r0	; 0x80003b <__TEXT_REGION_LENGTH__+0x70003b>
    1e3c:	0f 90       	pop	r0
    1e3e:	00 92 3f 00 	sts	0x003F, r0	; 0x80003f <__TEXT_REGION_LENGTH__+0x70003f>
    1e42:	0f 90       	pop	r0
    1e44:	1f 90       	pop	r1
    1e46:	18 95       	reti

00001e48 <__vector_50>:
    1e48:	1f 92       	push	r1
    1e4a:	0f 92       	push	r0
    1e4c:	00 90 3f 00 	lds	r0, 0x003F	; 0x80003f <__TEXT_REGION_LENGTH__+0x70003f>
    1e50:	0f 92       	push	r0
    1e52:	11 24       	eor	r1, r1
    1e54:	00 90 3b 00 	lds	r0, 0x003B	; 0x80003b <__TEXT_REGION_LENGTH__+0x70003b>
    1e58:	0f 92       	push	r0
    1e5a:	2f 93       	push	r18
    1e5c:	3f 93       	push	r19
    1e5e:	4f 93       	push	r20
    1e60:	5f 93       	push	r21
    1e62:	6f 93       	push	r22
    1e64:	7f 93       	push	r23
    1e66:	8f 93       	push	r24
    1e68:	9f 93       	push	r25
    1e6a:	af 93       	push	r26
    1e6c:	bf 93       	push	r27
    1e6e:	ef 93       	push	r30
    1e70:	ff 93       	push	r31
    1e72:	cf 93       	push	r28
    1e74:	df 93       	push	r29
    1e76:	cd b7       	in	r28, 0x3d	; 61
    1e78:	de b7       	in	r29, 0x3e	; 62
    1e7a:	80 91 6c 22 	lds	r24, 0x226C	; 0x80226c <tc_tce0_ccb_callback>
    1e7e:	90 91 6d 22 	lds	r25, 0x226D	; 0x80226d <tc_tce0_ccb_callback+0x1>
    1e82:	89 2b       	or	r24, r25
    1e84:	31 f0       	breq	.+12     	; 0x1e92 <__vector_50+0x4a>
    1e86:	80 91 6c 22 	lds	r24, 0x226C	; 0x80226c <tc_tce0_ccb_callback>
    1e8a:	90 91 6d 22 	lds	r25, 0x226D	; 0x80226d <tc_tce0_ccb_callback+0x1>
    1e8e:	fc 01       	movw	r30, r24
    1e90:	19 95       	eicall
    1e92:	00 00       	nop
    1e94:	df 91       	pop	r29
    1e96:	cf 91       	pop	r28
    1e98:	ff 91       	pop	r31
    1e9a:	ef 91       	pop	r30
    1e9c:	bf 91       	pop	r27
    1e9e:	af 91       	pop	r26
    1ea0:	9f 91       	pop	r25
    1ea2:	8f 91       	pop	r24
    1ea4:	7f 91       	pop	r23
    1ea6:	6f 91       	pop	r22
    1ea8:	5f 91       	pop	r21
    1eaa:	4f 91       	pop	r20
    1eac:	3f 91       	pop	r19
    1eae:	2f 91       	pop	r18
    1eb0:	0f 90       	pop	r0
    1eb2:	00 92 3b 00 	sts	0x003B, r0	; 0x80003b <__TEXT_REGION_LENGTH__+0x70003b>
    1eb6:	0f 90       	pop	r0
    1eb8:	00 92 3f 00 	sts	0x003F, r0	; 0x80003f <__TEXT_REGION_LENGTH__+0x70003f>
    1ebc:	0f 90       	pop	r0
    1ebe:	1f 90       	pop	r1
    1ec0:	18 95       	reti

00001ec2 <__vector_51>:
    1ec2:	1f 92       	push	r1
    1ec4:	0f 92       	push	r0
    1ec6:	00 90 3f 00 	lds	r0, 0x003F	; 0x80003f <__TEXT_REGION_LENGTH__+0x70003f>
    1eca:	0f 92       	push	r0
    1ecc:	11 24       	eor	r1, r1
    1ece:	00 90 3b 00 	lds	r0, 0x003B	; 0x80003b <__TEXT_REGION_LENGTH__+0x70003b>
    1ed2:	0f 92       	push	r0
    1ed4:	2f 93       	push	r18
    1ed6:	3f 93       	push	r19
    1ed8:	4f 93       	push	r20
    1eda:	5f 93       	push	r21
    1edc:	6f 93       	push	r22
    1ede:	7f 93       	push	r23
    1ee0:	8f 93       	push	r24
    1ee2:	9f 93       	push	r25
    1ee4:	af 93       	push	r26
    1ee6:	bf 93       	push	r27
    1ee8:	ef 93       	push	r30
    1eea:	ff 93       	push	r31
    1eec:	cf 93       	push	r28
    1eee:	df 93       	push	r29
    1ef0:	cd b7       	in	r28, 0x3d	; 61
    1ef2:	de b7       	in	r29, 0x3e	; 62
    1ef4:	80 91 6e 22 	lds	r24, 0x226E	; 0x80226e <tc_tce0_ccc_callback>
    1ef8:	90 91 6f 22 	lds	r25, 0x226F	; 0x80226f <tc_tce0_ccc_callback+0x1>
    1efc:	89 2b       	or	r24, r25
    1efe:	31 f0       	breq	.+12     	; 0x1f0c <__vector_51+0x4a>
    1f00:	80 91 6e 22 	lds	r24, 0x226E	; 0x80226e <tc_tce0_ccc_callback>
    1f04:	90 91 6f 22 	lds	r25, 0x226F	; 0x80226f <tc_tce0_ccc_callback+0x1>
    1f08:	fc 01       	movw	r30, r24
    1f0a:	19 95       	eicall
    1f0c:	00 00       	nop
    1f0e:	df 91       	pop	r29
    1f10:	cf 91       	pop	r28
    1f12:	ff 91       	pop	r31
    1f14:	ef 91       	pop	r30
    1f16:	bf 91       	pop	r27
    1f18:	af 91       	pop	r26
    1f1a:	9f 91       	pop	r25
    1f1c:	8f 91       	pop	r24
    1f1e:	7f 91       	pop	r23
    1f20:	6f 91       	pop	r22
    1f22:	5f 91       	pop	r21
    1f24:	4f 91       	pop	r20
    1f26:	3f 91       	pop	r19
    1f28:	2f 91       	pop	r18
    1f2a:	0f 90       	pop	r0
    1f2c:	00 92 3b 00 	sts	0x003B, r0	; 0x80003b <__TEXT_REGION_LENGTH__+0x70003b>
    1f30:	0f 90       	pop	r0
    1f32:	00 92 3f 00 	sts	0x003F, r0	; 0x80003f <__TEXT_REGION_LENGTH__+0x70003f>
    1f36:	0f 90       	pop	r0
    1f38:	1f 90       	pop	r1
    1f3a:	18 95       	reti

00001f3c <__vector_52>:
    1f3c:	1f 92       	push	r1
    1f3e:	0f 92       	push	r0
    1f40:	00 90 3f 00 	lds	r0, 0x003F	; 0x80003f <__TEXT_REGION_LENGTH__+0x70003f>
    1f44:	0f 92       	push	r0
    1f46:	11 24       	eor	r1, r1
    1f48:	00 90 3b 00 	lds	r0, 0x003B	; 0x80003b <__TEXT_REGION_LENGTH__+0x70003b>
    1f4c:	0f 92       	push	r0
    1f4e:	2f 93       	push	r18
    1f50:	3f 93       	push	r19
    1f52:	4f 93       	push	r20
    1f54:	5f 93       	push	r21
    1f56:	6f 93       	push	r22
    1f58:	7f 93       	push	r23
    1f5a:	8f 93       	push	r24
    1f5c:	9f 93       	push	r25
    1f5e:	af 93       	push	r26
    1f60:	bf 93       	push	r27
    1f62:	ef 93       	push	r30
    1f64:	ff 93       	push	r31
    1f66:	cf 93       	push	r28
    1f68:	df 93       	push	r29
    1f6a:	cd b7       	in	r28, 0x3d	; 61
    1f6c:	de b7       	in	r29, 0x3e	; 62
    1f6e:	80 91 70 22 	lds	r24, 0x2270	; 0x802270 <tc_tce0_ccd_callback>
    1f72:	90 91 71 22 	lds	r25, 0x2271	; 0x802271 <tc_tce0_ccd_callback+0x1>
    1f76:	89 2b       	or	r24, r25
    1f78:	31 f0       	breq	.+12     	; 0x1f86 <__vector_52+0x4a>
    1f7a:	80 91 70 22 	lds	r24, 0x2270	; 0x802270 <tc_tce0_ccd_callback>
    1f7e:	90 91 71 22 	lds	r25, 0x2271	; 0x802271 <tc_tce0_ccd_callback+0x1>
    1f82:	fc 01       	movw	r30, r24
    1f84:	19 95       	eicall
    1f86:	00 00       	nop
    1f88:	df 91       	pop	r29
    1f8a:	cf 91       	pop	r28
    1f8c:	ff 91       	pop	r31
    1f8e:	ef 91       	pop	r30
    1f90:	bf 91       	pop	r27
    1f92:	af 91       	pop	r26
    1f94:	9f 91       	pop	r25
    1f96:	8f 91       	pop	r24
    1f98:	7f 91       	pop	r23
    1f9a:	6f 91       	pop	r22
    1f9c:	5f 91       	pop	r21
    1f9e:	4f 91       	pop	r20
    1fa0:	3f 91       	pop	r19
    1fa2:	2f 91       	pop	r18
    1fa4:	0f 90       	pop	r0
    1fa6:	00 92 3b 00 	sts	0x003B, r0	; 0x80003b <__TEXT_REGION_LENGTH__+0x70003b>
    1faa:	0f 90       	pop	r0
    1fac:	00 92 3f 00 	sts	0x003F, r0	; 0x80003f <__TEXT_REGION_LENGTH__+0x70003f>
    1fb0:	0f 90       	pop	r0
    1fb2:	1f 90       	pop	r1
    1fb4:	18 95       	reti

00001fb6 <__vector_53>:
    1fb6:	1f 92       	push	r1
    1fb8:	0f 92       	push	r0
    1fba:	00 90 3f 00 	lds	r0, 0x003F	; 0x80003f <__TEXT_REGION_LENGTH__+0x70003f>
    1fbe:	0f 92       	push	r0
    1fc0:	11 24       	eor	r1, r1
    1fc2:	00 90 3b 00 	lds	r0, 0x003B	; 0x80003b <__TEXT_REGION_LENGTH__+0x70003b>
    1fc6:	0f 92       	push	r0
    1fc8:	2f 93       	push	r18
    1fca:	3f 93       	push	r19
    1fcc:	4f 93       	push	r20
    1fce:	5f 93       	push	r21
    1fd0:	6f 93       	push	r22
    1fd2:	7f 93       	push	r23
    1fd4:	8f 93       	push	r24
    1fd6:	9f 93       	push	r25
    1fd8:	af 93       	push	r26
    1fda:	bf 93       	push	r27
    1fdc:	ef 93       	push	r30
    1fde:	ff 93       	push	r31
    1fe0:	cf 93       	push	r28
    1fe2:	df 93       	push	r29
    1fe4:	cd b7       	in	r28, 0x3d	; 61
    1fe6:	de b7       	in	r29, 0x3e	; 62
    1fe8:	80 91 72 22 	lds	r24, 0x2272	; 0x802272 <tc_tce1_ovf_callback>
    1fec:	90 91 73 22 	lds	r25, 0x2273	; 0x802273 <tc_tce1_ovf_callback+0x1>
    1ff0:	89 2b       	or	r24, r25
    1ff2:	31 f0       	breq	.+12     	; 0x2000 <__vector_53+0x4a>
    1ff4:	80 91 72 22 	lds	r24, 0x2272	; 0x802272 <tc_tce1_ovf_callback>
    1ff8:	90 91 73 22 	lds	r25, 0x2273	; 0x802273 <tc_tce1_ovf_callback+0x1>
    1ffc:	fc 01       	movw	r30, r24
    1ffe:	19 95       	eicall
    2000:	00 00       	nop
    2002:	df 91       	pop	r29
    2004:	cf 91       	pop	r28
    2006:	ff 91       	pop	r31
    2008:	ef 91       	pop	r30
    200a:	bf 91       	pop	r27
    200c:	af 91       	pop	r26
    200e:	9f 91       	pop	r25
    2010:	8f 91       	pop	r24
    2012:	7f 91       	pop	r23
    2014:	6f 91       	pop	r22
    2016:	5f 91       	pop	r21
    2018:	4f 91       	pop	r20
    201a:	3f 91       	pop	r19
    201c:	2f 91       	pop	r18
    201e:	0f 90       	pop	r0
    2020:	00 92 3b 00 	sts	0x003B, r0	; 0x80003b <__TEXT_REGION_LENGTH__+0x70003b>
    2024:	0f 90       	pop	r0
    2026:	00 92 3f 00 	sts	0x003F, r0	; 0x80003f <__TEXT_REGION_LENGTH__+0x70003f>
    202a:	0f 90       	pop	r0
    202c:	1f 90       	pop	r1
    202e:	18 95       	reti

00002030 <__vector_54>:
    2030:	1f 92       	push	r1
    2032:	0f 92       	push	r0
    2034:	00 90 3f 00 	lds	r0, 0x003F	; 0x80003f <__TEXT_REGION_LENGTH__+0x70003f>
    2038:	0f 92       	push	r0
    203a:	11 24       	eor	r1, r1
    203c:	00 90 3b 00 	lds	r0, 0x003B	; 0x80003b <__TEXT_REGION_LENGTH__+0x70003b>
    2040:	0f 92       	push	r0
    2042:	2f 93       	push	r18
    2044:	3f 93       	push	r19
    2046:	4f 93       	push	r20
    2048:	5f 93       	push	r21
    204a:	6f 93       	push	r22
    204c:	7f 93       	push	r23
    204e:	8f 93       	push	r24
    2050:	9f 93       	push	r25
    2052:	af 93       	push	r26
    2054:	bf 93       	push	r27
    2056:	ef 93       	push	r30
    2058:	ff 93       	push	r31
    205a:	cf 93       	push	r28
    205c:	df 93       	push	r29
    205e:	cd b7       	in	r28, 0x3d	; 61
    2060:	de b7       	in	r29, 0x3e	; 62
    2062:	80 91 74 22 	lds	r24, 0x2274	; 0x802274 <tc_tce1_err_callback>
    2066:	90 91 75 22 	lds	r25, 0x2275	; 0x802275 <tc_tce1_err_callback+0x1>
    206a:	89 2b       	or	r24, r25
    206c:	31 f0       	breq	.+12     	; 0x207a <__vector_54+0x4a>
    206e:	80 91 74 22 	lds	r24, 0x2274	; 0x802274 <tc_tce1_err_callback>
    2072:	90 91 75 22 	lds	r25, 0x2275	; 0x802275 <tc_tce1_err_callback+0x1>
    2076:	fc 01       	movw	r30, r24
    2078:	19 95       	eicall
    207a:	00 00       	nop
    207c:	df 91       	pop	r29
    207e:	cf 91       	pop	r28
    2080:	ff 91       	pop	r31
    2082:	ef 91       	pop	r30
    2084:	bf 91       	pop	r27
    2086:	af 91       	pop	r26
    2088:	9f 91       	pop	r25
    208a:	8f 91       	pop	r24
    208c:	7f 91       	pop	r23
    208e:	6f 91       	pop	r22
    2090:	5f 91       	pop	r21
    2092:	4f 91       	pop	r20
    2094:	3f 91       	pop	r19
    2096:	2f 91       	pop	r18
    2098:	0f 90       	pop	r0
    209a:	00 92 3b 00 	sts	0x003B, r0	; 0x80003b <__TEXT_REGION_LENGTH__+0x70003b>
    209e:	0f 90       	pop	r0
    20a0:	00 92 3f 00 	sts	0x003F, r0	; 0x80003f <__TEXT_REGION_LENGTH__+0x70003f>
    20a4:	0f 90       	pop	r0
    20a6:	1f 90       	pop	r1
    20a8:	18 95       	reti

000020aa <__vector_55>:
    20aa:	1f 92       	push	r1
    20ac:	0f 92       	push	r0
    20ae:	00 90 3f 00 	lds	r0, 0x003F	; 0x80003f <__TEXT_REGION_LENGTH__+0x70003f>
    20b2:	0f 92       	push	r0
    20b4:	11 24       	eor	r1, r1
    20b6:	00 90 3b 00 	lds	r0, 0x003B	; 0x80003b <__TEXT_REGION_LENGTH__+0x70003b>
    20ba:	0f 92       	push	r0
    20bc:	2f 93       	push	r18
    20be:	3f 93       	push	r19
    20c0:	4f 93       	push	r20
    20c2:	5f 93       	push	r21
    20c4:	6f 93       	push	r22
    20c6:	7f 93       	push	r23
    20c8:	8f 93       	push	r24
    20ca:	9f 93       	push	r25
    20cc:	af 93       	push	r26
    20ce:	bf 93       	push	r27
    20d0:	ef 93       	push	r30
    20d2:	ff 93       	push	r31
    20d4:	cf 93       	push	r28
    20d6:	df 93       	push	r29
    20d8:	cd b7       	in	r28, 0x3d	; 61
    20da:	de b7       	in	r29, 0x3e	; 62
    20dc:	80 91 76 22 	lds	r24, 0x2276	; 0x802276 <tc_tce1_cca_callback>
    20e0:	90 91 77 22 	lds	r25, 0x2277	; 0x802277 <tc_tce1_cca_callback+0x1>
    20e4:	89 2b       	or	r24, r25
    20e6:	31 f0       	breq	.+12     	; 0x20f4 <__vector_55+0x4a>
    20e8:	80 91 76 22 	lds	r24, 0x2276	; 0x802276 <tc_tce1_cca_callback>
    20ec:	90 91 77 22 	lds	r25, 0x2277	; 0x802277 <tc_tce1_cca_callback+0x1>
    20f0:	fc 01       	movw	r30, r24
    20f2:	19 95       	eicall
    20f4:	00 00       	nop
    20f6:	df 91       	pop	r29
    20f8:	cf 91       	pop	r28
    20fa:	ff 91       	pop	r31
    20fc:	ef 91       	pop	r30
    20fe:	bf 91       	pop	r27
    2100:	af 91       	pop	r26
    2102:	9f 91       	pop	r25
    2104:	8f 91       	pop	r24
    2106:	7f 91       	pop	r23
    2108:	6f 91       	pop	r22
    210a:	5f 91       	pop	r21
    210c:	4f 91       	pop	r20
    210e:	3f 91       	pop	r19
    2110:	2f 91       	pop	r18
    2112:	0f 90       	pop	r0
    2114:	00 92 3b 00 	sts	0x003B, r0	; 0x80003b <__TEXT_REGION_LENGTH__+0x70003b>
    2118:	0f 90       	pop	r0
    211a:	00 92 3f 00 	sts	0x003F, r0	; 0x80003f <__TEXT_REGION_LENGTH__+0x70003f>
    211e:	0f 90       	pop	r0
    2120:	1f 90       	pop	r1
    2122:	18 95       	reti

00002124 <__vector_56>:
    2124:	1f 92       	push	r1
    2126:	0f 92       	push	r0
    2128:	00 90 3f 00 	lds	r0, 0x003F	; 0x80003f <__TEXT_REGION_LENGTH__+0x70003f>
    212c:	0f 92       	push	r0
    212e:	11 24       	eor	r1, r1
    2130:	00 90 3b 00 	lds	r0, 0x003B	; 0x80003b <__TEXT_REGION_LENGTH__+0x70003b>
    2134:	0f 92       	push	r0
    2136:	2f 93       	push	r18
    2138:	3f 93       	push	r19
    213a:	4f 93       	push	r20
    213c:	5f 93       	push	r21
    213e:	6f 93       	push	r22
    2140:	7f 93       	push	r23
    2142:	8f 93       	push	r24
    2144:	9f 93       	push	r25
    2146:	af 93       	push	r26
    2148:	bf 93       	push	r27
    214a:	ef 93       	push	r30
    214c:	ff 93       	push	r31
    214e:	cf 93       	push	r28
    2150:	df 93       	push	r29
    2152:	cd b7       	in	r28, 0x3d	; 61
    2154:	de b7       	in	r29, 0x3e	; 62
    2156:	80 91 78 22 	lds	r24, 0x2278	; 0x802278 <tc_tce1_ccb_callback>
    215a:	90 91 79 22 	lds	r25, 0x2279	; 0x802279 <tc_tce1_ccb_callback+0x1>
    215e:	89 2b       	or	r24, r25
    2160:	31 f0       	breq	.+12     	; 0x216e <__vector_56+0x4a>
    2162:	80 91 78 22 	lds	r24, 0x2278	; 0x802278 <tc_tce1_ccb_callback>
    2166:	90 91 79 22 	lds	r25, 0x2279	; 0x802279 <tc_tce1_ccb_callback+0x1>
    216a:	fc 01       	movw	r30, r24
    216c:	19 95       	eicall
    216e:	00 00       	nop
    2170:	df 91       	pop	r29
    2172:	cf 91       	pop	r28
    2174:	ff 91       	pop	r31
    2176:	ef 91       	pop	r30
    2178:	bf 91       	pop	r27
    217a:	af 91       	pop	r26
    217c:	9f 91       	pop	r25
    217e:	8f 91       	pop	r24
    2180:	7f 91       	pop	r23
    2182:	6f 91       	pop	r22
    2184:	5f 91       	pop	r21
    2186:	4f 91       	pop	r20
    2188:	3f 91       	pop	r19
    218a:	2f 91       	pop	r18
    218c:	0f 90       	pop	r0
    218e:	00 92 3b 00 	sts	0x003B, r0	; 0x80003b <__TEXT_REGION_LENGTH__+0x70003b>
    2192:	0f 90       	pop	r0
    2194:	00 92 3f 00 	sts	0x003F, r0	; 0x80003f <__TEXT_REGION_LENGTH__+0x70003f>
    2198:	0f 90       	pop	r0
    219a:	1f 90       	pop	r1
    219c:	18 95       	reti

0000219e <__vector_108>:
    219e:	1f 92       	push	r1
    21a0:	0f 92       	push	r0
    21a2:	00 90 3f 00 	lds	r0, 0x003F	; 0x80003f <__TEXT_REGION_LENGTH__+0x70003f>
    21a6:	0f 92       	push	r0
    21a8:	11 24       	eor	r1, r1
    21aa:	00 90 3b 00 	lds	r0, 0x003B	; 0x80003b <__TEXT_REGION_LENGTH__+0x70003b>
    21ae:	0f 92       	push	r0
    21b0:	2f 93       	push	r18
    21b2:	3f 93       	push	r19
    21b4:	4f 93       	push	r20
    21b6:	5f 93       	push	r21
    21b8:	6f 93       	push	r22
    21ba:	7f 93       	push	r23
    21bc:	8f 93       	push	r24
    21be:	9f 93       	push	r25
    21c0:	af 93       	push	r26
    21c2:	bf 93       	push	r27
    21c4:	ef 93       	push	r30
    21c6:	ff 93       	push	r31
    21c8:	cf 93       	push	r28
    21ca:	df 93       	push	r29
    21cc:	cd b7       	in	r28, 0x3d	; 61
    21ce:	de b7       	in	r29, 0x3e	; 62
    21d0:	80 91 7a 22 	lds	r24, 0x227A	; 0x80227a <tc_tcf0_ovf_callback>
    21d4:	90 91 7b 22 	lds	r25, 0x227B	; 0x80227b <tc_tcf0_ovf_callback+0x1>
    21d8:	89 2b       	or	r24, r25
    21da:	31 f0       	breq	.+12     	; 0x21e8 <__vector_108+0x4a>
    21dc:	80 91 7a 22 	lds	r24, 0x227A	; 0x80227a <tc_tcf0_ovf_callback>
    21e0:	90 91 7b 22 	lds	r25, 0x227B	; 0x80227b <tc_tcf0_ovf_callback+0x1>
    21e4:	fc 01       	movw	r30, r24
    21e6:	19 95       	eicall
    21e8:	00 00       	nop
    21ea:	df 91       	pop	r29
    21ec:	cf 91       	pop	r28
    21ee:	ff 91       	pop	r31
    21f0:	ef 91       	pop	r30
    21f2:	bf 91       	pop	r27
    21f4:	af 91       	pop	r26
    21f6:	9f 91       	pop	r25
    21f8:	8f 91       	pop	r24
    21fa:	7f 91       	pop	r23
    21fc:	6f 91       	pop	r22
    21fe:	5f 91       	pop	r21
    2200:	4f 91       	pop	r20
    2202:	3f 91       	pop	r19
    2204:	2f 91       	pop	r18
    2206:	0f 90       	pop	r0
    2208:	00 92 3b 00 	sts	0x003B, r0	; 0x80003b <__TEXT_REGION_LENGTH__+0x70003b>
    220c:	0f 90       	pop	r0
    220e:	00 92 3f 00 	sts	0x003F, r0	; 0x80003f <__TEXT_REGION_LENGTH__+0x70003f>
    2212:	0f 90       	pop	r0
    2214:	1f 90       	pop	r1
    2216:	18 95       	reti

00002218 <__vector_109>:
    2218:	1f 92       	push	r1
    221a:	0f 92       	push	r0
    221c:	00 90 3f 00 	lds	r0, 0x003F	; 0x80003f <__TEXT_REGION_LENGTH__+0x70003f>
    2220:	0f 92       	push	r0
    2222:	11 24       	eor	r1, r1
    2224:	00 90 3b 00 	lds	r0, 0x003B	; 0x80003b <__TEXT_REGION_LENGTH__+0x70003b>
    2228:	0f 92       	push	r0
    222a:	2f 93       	push	r18
    222c:	3f 93       	push	r19
    222e:	4f 93       	push	r20
    2230:	5f 93       	push	r21
    2232:	6f 93       	push	r22
    2234:	7f 93       	push	r23
    2236:	8f 93       	push	r24
    2238:	9f 93       	push	r25
    223a:	af 93       	push	r26
    223c:	bf 93       	push	r27
    223e:	ef 93       	push	r30
    2240:	ff 93       	push	r31
    2242:	cf 93       	push	r28
    2244:	df 93       	push	r29
    2246:	cd b7       	in	r28, 0x3d	; 61
    2248:	de b7       	in	r29, 0x3e	; 62
    224a:	80 91 7c 22 	lds	r24, 0x227C	; 0x80227c <tc_tcf0_err_callback>
    224e:	90 91 7d 22 	lds	r25, 0x227D	; 0x80227d <tc_tcf0_err_callback+0x1>
    2252:	89 2b       	or	r24, r25
    2254:	31 f0       	breq	.+12     	; 0x2262 <__vector_109+0x4a>
    2256:	80 91 7c 22 	lds	r24, 0x227C	; 0x80227c <tc_tcf0_err_callback>
    225a:	90 91 7d 22 	lds	r25, 0x227D	; 0x80227d <tc_tcf0_err_callback+0x1>
    225e:	fc 01       	movw	r30, r24
    2260:	19 95       	eicall
    2262:	00 00       	nop
    2264:	df 91       	pop	r29
    2266:	cf 91       	pop	r28
    2268:	ff 91       	pop	r31
    226a:	ef 91       	pop	r30
    226c:	bf 91       	pop	r27
    226e:	af 91       	pop	r26
    2270:	9f 91       	pop	r25
    2272:	8f 91       	pop	r24
    2274:	7f 91       	pop	r23
    2276:	6f 91       	pop	r22
    2278:	5f 91       	pop	r21
    227a:	4f 91       	pop	r20
    227c:	3f 91       	pop	r19
    227e:	2f 91       	pop	r18
    2280:	0f 90       	pop	r0
    2282:	00 92 3b 00 	sts	0x003B, r0	; 0x80003b <__TEXT_REGION_LENGTH__+0x70003b>
    2286:	0f 90       	pop	r0
    2288:	00 92 3f 00 	sts	0x003F, r0	; 0x80003f <__TEXT_REGION_LENGTH__+0x70003f>
    228c:	0f 90       	pop	r0
    228e:	1f 90       	pop	r1
    2290:	18 95       	reti

00002292 <__vector_110>:
    2292:	1f 92       	push	r1
    2294:	0f 92       	push	r0
    2296:	00 90 3f 00 	lds	r0, 0x003F	; 0x80003f <__TEXT_REGION_LENGTH__+0x70003f>
    229a:	0f 92       	push	r0
    229c:	11 24       	eor	r1, r1
    229e:	00 90 3b 00 	lds	r0, 0x003B	; 0x80003b <__TEXT_REGION_LENGTH__+0x70003b>
    22a2:	0f 92       	push	r0
    22a4:	2f 93       	push	r18
    22a6:	3f 93       	push	r19
    22a8:	4f 93       	push	r20
    22aa:	5f 93       	push	r21
    22ac:	6f 93       	push	r22
    22ae:	7f 93       	push	r23
    22b0:	8f 93       	push	r24
    22b2:	9f 93       	push	r25
    22b4:	af 93       	push	r26
    22b6:	bf 93       	push	r27
    22b8:	ef 93       	push	r30
    22ba:	ff 93       	push	r31
    22bc:	cf 93       	push	r28
    22be:	df 93       	push	r29
    22c0:	cd b7       	in	r28, 0x3d	; 61
    22c2:	de b7       	in	r29, 0x3e	; 62
    22c4:	80 91 7e 22 	lds	r24, 0x227E	; 0x80227e <tc_tcf0_cca_callback>
    22c8:	90 91 7f 22 	lds	r25, 0x227F	; 0x80227f <tc_tcf0_cca_callback+0x1>
    22cc:	89 2b       	or	r24, r25
    22ce:	31 f0       	breq	.+12     	; 0x22dc <__vector_110+0x4a>
    22d0:	80 91 7e 22 	lds	r24, 0x227E	; 0x80227e <tc_tcf0_cca_callback>
    22d4:	90 91 7f 22 	lds	r25, 0x227F	; 0x80227f <tc_tcf0_cca_callback+0x1>
    22d8:	fc 01       	movw	r30, r24
    22da:	19 95       	eicall
    22dc:	00 00       	nop
    22de:	df 91       	pop	r29
    22e0:	cf 91       	pop	r28
    22e2:	ff 91       	pop	r31
    22e4:	ef 91       	pop	r30
    22e6:	bf 91       	pop	r27
    22e8:	af 91       	pop	r26
    22ea:	9f 91       	pop	r25
    22ec:	8f 91       	pop	r24
    22ee:	7f 91       	pop	r23
    22f0:	6f 91       	pop	r22
    22f2:	5f 91       	pop	r21
    22f4:	4f 91       	pop	r20
    22f6:	3f 91       	pop	r19
    22f8:	2f 91       	pop	r18
    22fa:	0f 90       	pop	r0
    22fc:	00 92 3b 00 	sts	0x003B, r0	; 0x80003b <__TEXT_REGION_LENGTH__+0x70003b>
    2300:	0f 90       	pop	r0
    2302:	00 92 3f 00 	sts	0x003F, r0	; 0x80003f <__TEXT_REGION_LENGTH__+0x70003f>
    2306:	0f 90       	pop	r0
    2308:	1f 90       	pop	r1
    230a:	18 95       	reti

0000230c <__vector_111>:
    230c:	1f 92       	push	r1
    230e:	0f 92       	push	r0
    2310:	00 90 3f 00 	lds	r0, 0x003F	; 0x80003f <__TEXT_REGION_LENGTH__+0x70003f>
    2314:	0f 92       	push	r0
    2316:	11 24       	eor	r1, r1
    2318:	00 90 3b 00 	lds	r0, 0x003B	; 0x80003b <__TEXT_REGION_LENGTH__+0x70003b>
    231c:	0f 92       	push	r0
    231e:	2f 93       	push	r18
    2320:	3f 93       	push	r19
    2322:	4f 93       	push	r20
    2324:	5f 93       	push	r21
    2326:	6f 93       	push	r22
    2328:	7f 93       	push	r23
    232a:	8f 93       	push	r24
    232c:	9f 93       	push	r25
    232e:	af 93       	push	r26
    2330:	bf 93       	push	r27
    2332:	ef 93       	push	r30
    2334:	ff 93       	push	r31
    2336:	cf 93       	push	r28
    2338:	df 93       	push	r29
    233a:	cd b7       	in	r28, 0x3d	; 61
    233c:	de b7       	in	r29, 0x3e	; 62
    233e:	80 91 80 22 	lds	r24, 0x2280	; 0x802280 <tc_tcf0_ccb_callback>
    2342:	90 91 81 22 	lds	r25, 0x2281	; 0x802281 <tc_tcf0_ccb_callback+0x1>
    2346:	89 2b       	or	r24, r25
    2348:	31 f0       	breq	.+12     	; 0x2356 <__vector_111+0x4a>
    234a:	80 91 80 22 	lds	r24, 0x2280	; 0x802280 <tc_tcf0_ccb_callback>
    234e:	90 91 81 22 	lds	r25, 0x2281	; 0x802281 <tc_tcf0_ccb_callback+0x1>
    2352:	fc 01       	movw	r30, r24
    2354:	19 95       	eicall
    2356:	00 00       	nop
    2358:	df 91       	pop	r29
    235a:	cf 91       	pop	r28
    235c:	ff 91       	pop	r31
    235e:	ef 91       	pop	r30
    2360:	bf 91       	pop	r27
    2362:	af 91       	pop	r26
    2364:	9f 91       	pop	r25
    2366:	8f 91       	pop	r24
    2368:	7f 91       	pop	r23
    236a:	6f 91       	pop	r22
    236c:	5f 91       	pop	r21
    236e:	4f 91       	pop	r20
    2370:	3f 91       	pop	r19
    2372:	2f 91       	pop	r18
    2374:	0f 90       	pop	r0
    2376:	00 92 3b 00 	sts	0x003B, r0	; 0x80003b <__TEXT_REGION_LENGTH__+0x70003b>
    237a:	0f 90       	pop	r0
    237c:	00 92 3f 00 	sts	0x003F, r0	; 0x80003f <__TEXT_REGION_LENGTH__+0x70003f>
    2380:	0f 90       	pop	r0
    2382:	1f 90       	pop	r1
    2384:	18 95       	reti

00002386 <__vector_112>:
    2386:	1f 92       	push	r1
    2388:	0f 92       	push	r0
    238a:	00 90 3f 00 	lds	r0, 0x003F	; 0x80003f <__TEXT_REGION_LENGTH__+0x70003f>
    238e:	0f 92       	push	r0
    2390:	11 24       	eor	r1, r1
    2392:	00 90 3b 00 	lds	r0, 0x003B	; 0x80003b <__TEXT_REGION_LENGTH__+0x70003b>
    2396:	0f 92       	push	r0
    2398:	2f 93       	push	r18
    239a:	3f 93       	push	r19
    239c:	4f 93       	push	r20
    239e:	5f 93       	push	r21
    23a0:	6f 93       	push	r22
    23a2:	7f 93       	push	r23
    23a4:	8f 93       	push	r24
    23a6:	9f 93       	push	r25
    23a8:	af 93       	push	r26
    23aa:	bf 93       	push	r27
    23ac:	ef 93       	push	r30
    23ae:	ff 93       	push	r31
    23b0:	cf 93       	push	r28
    23b2:	df 93       	push	r29
    23b4:	cd b7       	in	r28, 0x3d	; 61
    23b6:	de b7       	in	r29, 0x3e	; 62
    23b8:	80 91 82 22 	lds	r24, 0x2282	; 0x802282 <tc_tcf0_ccc_callback>
    23bc:	90 91 83 22 	lds	r25, 0x2283	; 0x802283 <tc_tcf0_ccc_callback+0x1>
    23c0:	89 2b       	or	r24, r25
    23c2:	31 f0       	breq	.+12     	; 0x23d0 <__vector_112+0x4a>
    23c4:	80 91 82 22 	lds	r24, 0x2282	; 0x802282 <tc_tcf0_ccc_callback>
    23c8:	90 91 83 22 	lds	r25, 0x2283	; 0x802283 <tc_tcf0_ccc_callback+0x1>
    23cc:	fc 01       	movw	r30, r24
    23ce:	19 95       	eicall
    23d0:	00 00       	nop
    23d2:	df 91       	pop	r29
    23d4:	cf 91       	pop	r28
    23d6:	ff 91       	pop	r31
    23d8:	ef 91       	pop	r30
    23da:	bf 91       	pop	r27
    23dc:	af 91       	pop	r26
    23de:	9f 91       	pop	r25
    23e0:	8f 91       	pop	r24
    23e2:	7f 91       	pop	r23
    23e4:	6f 91       	pop	r22
    23e6:	5f 91       	pop	r21
    23e8:	4f 91       	pop	r20
    23ea:	3f 91       	pop	r19
    23ec:	2f 91       	pop	r18
    23ee:	0f 90       	pop	r0
    23f0:	00 92 3b 00 	sts	0x003B, r0	; 0x80003b <__TEXT_REGION_LENGTH__+0x70003b>
    23f4:	0f 90       	pop	r0
    23f6:	00 92 3f 00 	sts	0x003F, r0	; 0x80003f <__TEXT_REGION_LENGTH__+0x70003f>
    23fa:	0f 90       	pop	r0
    23fc:	1f 90       	pop	r1
    23fe:	18 95       	reti

00002400 <__vector_113>:
    2400:	1f 92       	push	r1
    2402:	0f 92       	push	r0
    2404:	00 90 3f 00 	lds	r0, 0x003F	; 0x80003f <__TEXT_REGION_LENGTH__+0x70003f>
    2408:	0f 92       	push	r0
    240a:	11 24       	eor	r1, r1
    240c:	00 90 3b 00 	lds	r0, 0x003B	; 0x80003b <__TEXT_REGION_LENGTH__+0x70003b>
    2410:	0f 92       	push	r0
    2412:	2f 93       	push	r18
    2414:	3f 93       	push	r19
    2416:	4f 93       	push	r20
    2418:	5f 93       	push	r21
    241a:	6f 93       	push	r22
    241c:	7f 93       	push	r23
    241e:	8f 93       	push	r24
    2420:	9f 93       	push	r25
    2422:	af 93       	push	r26
    2424:	bf 93       	push	r27
    2426:	ef 93       	push	r30
    2428:	ff 93       	push	r31
    242a:	cf 93       	push	r28
    242c:	df 93       	push	r29
    242e:	cd b7       	in	r28, 0x3d	; 61
    2430:	de b7       	in	r29, 0x3e	; 62
    2432:	80 91 84 22 	lds	r24, 0x2284	; 0x802284 <tc_tcf0_ccd_callback>
    2436:	90 91 85 22 	lds	r25, 0x2285	; 0x802285 <tc_tcf0_ccd_callback+0x1>
    243a:	89 2b       	or	r24, r25
    243c:	31 f0       	breq	.+12     	; 0x244a <__vector_113+0x4a>
    243e:	80 91 84 22 	lds	r24, 0x2284	; 0x802284 <tc_tcf0_ccd_callback>
    2442:	90 91 85 22 	lds	r25, 0x2285	; 0x802285 <tc_tcf0_ccd_callback+0x1>
    2446:	fc 01       	movw	r30, r24
    2448:	19 95       	eicall
    244a:	00 00       	nop
    244c:	df 91       	pop	r29
    244e:	cf 91       	pop	r28
    2450:	ff 91       	pop	r31
    2452:	ef 91       	pop	r30
    2454:	bf 91       	pop	r27
    2456:	af 91       	pop	r26
    2458:	9f 91       	pop	r25
    245a:	8f 91       	pop	r24
    245c:	7f 91       	pop	r23
    245e:	6f 91       	pop	r22
    2460:	5f 91       	pop	r21
    2462:	4f 91       	pop	r20
    2464:	3f 91       	pop	r19
    2466:	2f 91       	pop	r18
    2468:	0f 90       	pop	r0
    246a:	00 92 3b 00 	sts	0x003B, r0	; 0x80003b <__TEXT_REGION_LENGTH__+0x70003b>
    246e:	0f 90       	pop	r0
    2470:	00 92 3f 00 	sts	0x003F, r0	; 0x80003f <__TEXT_REGION_LENGTH__+0x70003f>
    2474:	0f 90       	pop	r0
    2476:	1f 90       	pop	r1
    2478:	18 95       	reti

0000247a <tc_enable>:
    247a:	cf 93       	push	r28
    247c:	df 93       	push	r29
    247e:	00 d0       	rcall	.+0      	; 0x2480 <tc_enable+0x6>
    2480:	cd b7       	in	r28, 0x3d	; 61
    2482:	de b7       	in	r29, 0x3e	; 62
    2484:	8a 83       	std	Y+2, r24	; 0x02
    2486:	9b 83       	std	Y+3, r25	; 0x03
    2488:	0e 94 6b 09 	call	0x12d6	; 0x12d6 <cpu_irq_save>
    248c:	89 83       	std	Y+1, r24	; 0x01
    248e:	8a 81       	ldd	r24, Y+2	; 0x02
    2490:	9b 81       	ldd	r25, Y+3	; 0x03
    2492:	81 15       	cp	r24, r1
    2494:	98 40       	sbci	r25, 0x08	; 8
    2496:	49 f4       	brne	.+18     	; 0x24aa <tc_enable+0x30>
    2498:	61 e0       	ldi	r22, 0x01	; 1
    249a:	83 e0       	ldi	r24, 0x03	; 3
    249c:	0e 94 6f 20 	call	0x40de	; 0x40de <sysclk_enable_module>
    24a0:	64 e0       	ldi	r22, 0x04	; 4
    24a2:	83 e0       	ldi	r24, 0x03	; 3
    24a4:	0e 94 6f 20 	call	0x40de	; 0x40de <sysclk_enable_module>
    24a8:	58 c0       	rjmp	.+176    	; 0x255a <tc_enable+0xe0>
    24aa:	8a 81       	ldd	r24, Y+2	; 0x02
    24ac:	9b 81       	ldd	r25, Y+3	; 0x03
    24ae:	80 34       	cpi	r24, 0x40	; 64
    24b0:	98 40       	sbci	r25, 0x08	; 8
    24b2:	49 f4       	brne	.+18     	; 0x24c6 <tc_enable+0x4c>
    24b4:	62 e0       	ldi	r22, 0x02	; 2
    24b6:	83 e0       	ldi	r24, 0x03	; 3
    24b8:	0e 94 6f 20 	call	0x40de	; 0x40de <sysclk_enable_module>
    24bc:	64 e0       	ldi	r22, 0x04	; 4
    24be:	83 e0       	ldi	r24, 0x03	; 3
    24c0:	0e 94 6f 20 	call	0x40de	; 0x40de <sysclk_enable_module>
    24c4:	4a c0       	rjmp	.+148    	; 0x255a <tc_enable+0xe0>
    24c6:	8a 81       	ldd	r24, Y+2	; 0x02
    24c8:	9b 81       	ldd	r25, Y+3	; 0x03
    24ca:	81 15       	cp	r24, r1
    24cc:	99 40       	sbci	r25, 0x09	; 9
    24ce:	49 f4       	brne	.+18     	; 0x24e2 <tc_enable+0x68>
    24d0:	61 e0       	ldi	r22, 0x01	; 1
    24d2:	84 e0       	ldi	r24, 0x04	; 4
    24d4:	0e 94 6f 20 	call	0x40de	; 0x40de <sysclk_enable_module>
    24d8:	64 e0       	ldi	r22, 0x04	; 4
    24da:	84 e0       	ldi	r24, 0x04	; 4
    24dc:	0e 94 6f 20 	call	0x40de	; 0x40de <sysclk_enable_module>
    24e0:	3c c0       	rjmp	.+120    	; 0x255a <tc_enable+0xe0>
    24e2:	8a 81       	ldd	r24, Y+2	; 0x02
    24e4:	9b 81       	ldd	r25, Y+3	; 0x03
    24e6:	80 34       	cpi	r24, 0x40	; 64
    24e8:	99 40       	sbci	r25, 0x09	; 9
    24ea:	49 f4       	brne	.+18     	; 0x24fe <tc_enable+0x84>
    24ec:	62 e0       	ldi	r22, 0x02	; 2
    24ee:	84 e0       	ldi	r24, 0x04	; 4
    24f0:	0e 94 6f 20 	call	0x40de	; 0x40de <sysclk_enable_module>
    24f4:	64 e0       	ldi	r22, 0x04	; 4
    24f6:	84 e0       	ldi	r24, 0x04	; 4
    24f8:	0e 94 6f 20 	call	0x40de	; 0x40de <sysclk_enable_module>
    24fc:	2e c0       	rjmp	.+92     	; 0x255a <tc_enable+0xe0>
    24fe:	8a 81       	ldd	r24, Y+2	; 0x02
    2500:	9b 81       	ldd	r25, Y+3	; 0x03
    2502:	81 15       	cp	r24, r1
    2504:	9a 40       	sbci	r25, 0x0A	; 10
    2506:	49 f4       	brne	.+18     	; 0x251a <tc_enable+0xa0>
    2508:	61 e0       	ldi	r22, 0x01	; 1
    250a:	85 e0       	ldi	r24, 0x05	; 5
    250c:	0e 94 6f 20 	call	0x40de	; 0x40de <sysclk_enable_module>
    2510:	64 e0       	ldi	r22, 0x04	; 4
    2512:	85 e0       	ldi	r24, 0x05	; 5
    2514:	0e 94 6f 20 	call	0x40de	; 0x40de <sysclk_enable_module>
    2518:	20 c0       	rjmp	.+64     	; 0x255a <tc_enable+0xe0>
    251a:	8a 81       	ldd	r24, Y+2	; 0x02
    251c:	9b 81       	ldd	r25, Y+3	; 0x03
    251e:	80 34       	cpi	r24, 0x40	; 64
    2520:	9a 40       	sbci	r25, 0x0A	; 10
    2522:	49 f4       	brne	.+18     	; 0x2536 <tc_enable+0xbc>
    2524:	62 e0       	ldi	r22, 0x02	; 2
    2526:	85 e0       	ldi	r24, 0x05	; 5
    2528:	0e 94 6f 20 	call	0x40de	; 0x40de <sysclk_enable_module>
    252c:	64 e0       	ldi	r22, 0x04	; 4
    252e:	85 e0       	ldi	r24, 0x05	; 5
    2530:	0e 94 6f 20 	call	0x40de	; 0x40de <sysclk_enable_module>
    2534:	12 c0       	rjmp	.+36     	; 0x255a <tc_enable+0xe0>
    2536:	8a 81       	ldd	r24, Y+2	; 0x02
    2538:	9b 81       	ldd	r25, Y+3	; 0x03
    253a:	81 15       	cp	r24, r1
    253c:	9b 40       	sbci	r25, 0x0B	; 11
    253e:	49 f4       	brne	.+18     	; 0x2552 <tc_enable+0xd8>
    2540:	61 e0       	ldi	r22, 0x01	; 1
    2542:	86 e0       	ldi	r24, 0x06	; 6
    2544:	0e 94 6f 20 	call	0x40de	; 0x40de <sysclk_enable_module>
    2548:	64 e0       	ldi	r22, 0x04	; 4
    254a:	86 e0       	ldi	r24, 0x06	; 6
    254c:	0e 94 6f 20 	call	0x40de	; 0x40de <sysclk_enable_module>
    2550:	04 c0       	rjmp	.+8      	; 0x255a <tc_enable+0xe0>
    2552:	89 81       	ldd	r24, Y+1	; 0x01
    2554:	0e 94 7b 09 	call	0x12f6	; 0x12f6 <cpu_irq_restore>
    2558:	06 c0       	rjmp	.+12     	; 0x2566 <tc_enable+0xec>
    255a:	81 e0       	ldi	r24, 0x01	; 1
    255c:	0e 94 8b 09 	call	0x1316	; 0x1316 <sleepmgr_lock_mode>
    2560:	89 81       	ldd	r24, Y+1	; 0x01
    2562:	0e 94 7b 09 	call	0x12f6	; 0x12f6 <cpu_irq_restore>
    2566:	23 96       	adiw	r28, 0x03	; 3
    2568:	cd bf       	out	0x3d, r28	; 61
    256a:	de bf       	out	0x3e, r29	; 62
    256c:	df 91       	pop	r29
    256e:	cf 91       	pop	r28
    2570:	08 95       	ret

00002572 <usart_rx_enable>:
    2572:	cf 93       	push	r28
    2574:	df 93       	push	r29
    2576:	1f 92       	push	r1
    2578:	1f 92       	push	r1
    257a:	cd b7       	in	r28, 0x3d	; 61
    257c:	de b7       	in	r29, 0x3e	; 62
    257e:	89 83       	std	Y+1, r24	; 0x01
    2580:	9a 83       	std	Y+2, r25	; 0x02
    2582:	89 81       	ldd	r24, Y+1	; 0x01
    2584:	9a 81       	ldd	r25, Y+2	; 0x02
    2586:	fc 01       	movw	r30, r24
    2588:	84 81       	ldd	r24, Z+4	; 0x04
    258a:	28 2f       	mov	r18, r24
    258c:	20 61       	ori	r18, 0x10	; 16
    258e:	89 81       	ldd	r24, Y+1	; 0x01
    2590:	9a 81       	ldd	r25, Y+2	; 0x02
    2592:	fc 01       	movw	r30, r24
    2594:	24 83       	std	Z+4, r18	; 0x04
    2596:	00 00       	nop
    2598:	0f 90       	pop	r0
    259a:	0f 90       	pop	r0
    259c:	df 91       	pop	r29
    259e:	cf 91       	pop	r28
    25a0:	08 95       	ret

000025a2 <usart_format_set>:
    25a2:	cf 93       	push	r28
    25a4:	df 93       	push	r29
    25a6:	cd b7       	in	r28, 0x3d	; 61
    25a8:	de b7       	in	r29, 0x3e	; 62
    25aa:	25 97       	sbiw	r28, 0x05	; 5
    25ac:	cd bf       	out	0x3d, r28	; 61
    25ae:	de bf       	out	0x3e, r29	; 62
    25b0:	89 83       	std	Y+1, r24	; 0x01
    25b2:	9a 83       	std	Y+2, r25	; 0x02
    25b4:	6b 83       	std	Y+3, r22	; 0x03
    25b6:	4c 83       	std	Y+4, r20	; 0x04
    25b8:	2d 83       	std	Y+5, r18	; 0x05
    25ba:	9b 81       	ldd	r25, Y+3	; 0x03
    25bc:	8c 81       	ldd	r24, Y+4	; 0x04
    25be:	89 2b       	or	r24, r25
    25c0:	98 2f       	mov	r25, r24
    25c2:	8d 81       	ldd	r24, Y+5	; 0x05
    25c4:	88 23       	and	r24, r24
    25c6:	11 f0       	breq	.+4      	; 0x25cc <usart_format_set+0x2a>
    25c8:	88 e0       	ldi	r24, 0x08	; 8
    25ca:	01 c0       	rjmp	.+2      	; 0x25ce <usart_format_set+0x2c>
    25cc:	80 e0       	ldi	r24, 0x00	; 0
    25ce:	89 2b       	or	r24, r25
    25d0:	28 2f       	mov	r18, r24
    25d2:	89 81       	ldd	r24, Y+1	; 0x01
    25d4:	9a 81       	ldd	r25, Y+2	; 0x02
    25d6:	fc 01       	movw	r30, r24
    25d8:	25 83       	std	Z+5, r18	; 0x05
    25da:	00 00       	nop
    25dc:	25 96       	adiw	r28, 0x05	; 5
    25de:	cd bf       	out	0x3d, r28	; 61
    25e0:	de bf       	out	0x3e, r29	; 62
    25e2:	df 91       	pop	r29
    25e4:	cf 91       	pop	r28
    25e6:	08 95       	ret

000025e8 <usart_tx_enable>:
    25e8:	cf 93       	push	r28
    25ea:	df 93       	push	r29
    25ec:	1f 92       	push	r1
    25ee:	1f 92       	push	r1
    25f0:	cd b7       	in	r28, 0x3d	; 61
    25f2:	de b7       	in	r29, 0x3e	; 62
    25f4:	89 83       	std	Y+1, r24	; 0x01
    25f6:	9a 83       	std	Y+2, r25	; 0x02
    25f8:	89 81       	ldd	r24, Y+1	; 0x01
    25fa:	9a 81       	ldd	r25, Y+2	; 0x02
    25fc:	fc 01       	movw	r30, r24
    25fe:	84 81       	ldd	r24, Z+4	; 0x04
    2600:	28 2f       	mov	r18, r24
    2602:	28 60       	ori	r18, 0x08	; 8
    2604:	89 81       	ldd	r24, Y+1	; 0x01
    2606:	9a 81       	ldd	r25, Y+2	; 0x02
    2608:	fc 01       	movw	r30, r24
    260a:	24 83       	std	Z+4, r18	; 0x04
    260c:	00 00       	nop
    260e:	0f 90       	pop	r0
    2610:	0f 90       	pop	r0
    2612:	df 91       	pop	r29
    2614:	cf 91       	pop	r28
    2616:	08 95       	ret

00002618 <usart_set_mode>:
    2618:	cf 93       	push	r28
    261a:	df 93       	push	r29
    261c:	00 d0       	rcall	.+0      	; 0x261e <usart_set_mode+0x6>
    261e:	cd b7       	in	r28, 0x3d	; 61
    2620:	de b7       	in	r29, 0x3e	; 62
    2622:	89 83       	std	Y+1, r24	; 0x01
    2624:	9a 83       	std	Y+2, r25	; 0x02
    2626:	6b 83       	std	Y+3, r22	; 0x03
    2628:	89 81       	ldd	r24, Y+1	; 0x01
    262a:	9a 81       	ldd	r25, Y+2	; 0x02
    262c:	fc 01       	movw	r30, r24
    262e:	85 81       	ldd	r24, Z+5	; 0x05
    2630:	98 2f       	mov	r25, r24
    2632:	9f 73       	andi	r25, 0x3F	; 63
    2634:	8b 81       	ldd	r24, Y+3	; 0x03
    2636:	89 2b       	or	r24, r25
    2638:	28 2f       	mov	r18, r24
    263a:	89 81       	ldd	r24, Y+1	; 0x01
    263c:	9a 81       	ldd	r25, Y+2	; 0x02
    263e:	fc 01       	movw	r30, r24
    2640:	25 83       	std	Z+5, r18	; 0x05
    2642:	00 00       	nop
    2644:	23 96       	adiw	r28, 0x03	; 3
    2646:	cd bf       	out	0x3d, r28	; 61
    2648:	de bf       	out	0x3e, r29	; 62
    264a:	df 91       	pop	r29
    264c:	cf 91       	pop	r28
    264e:	08 95       	ret

00002650 <usart_data_register_is_empty>:
    2650:	cf 93       	push	r28
    2652:	df 93       	push	r29
    2654:	1f 92       	push	r1
    2656:	1f 92       	push	r1
    2658:	cd b7       	in	r28, 0x3d	; 61
    265a:	de b7       	in	r29, 0x3e	; 62
    265c:	89 83       	std	Y+1, r24	; 0x01
    265e:	9a 83       	std	Y+2, r25	; 0x02
    2660:	89 81       	ldd	r24, Y+1	; 0x01
    2662:	9a 81       	ldd	r25, Y+2	; 0x02
    2664:	fc 01       	movw	r30, r24
    2666:	81 81       	ldd	r24, Z+1	; 0x01
    2668:	88 2f       	mov	r24, r24
    266a:	90 e0       	ldi	r25, 0x00	; 0
    266c:	80 72       	andi	r24, 0x20	; 32
    266e:	99 27       	eor	r25, r25
    2670:	21 e0       	ldi	r18, 0x01	; 1
    2672:	89 2b       	or	r24, r25
    2674:	09 f4       	brne	.+2      	; 0x2678 <usart_data_register_is_empty+0x28>
    2676:	20 e0       	ldi	r18, 0x00	; 0
    2678:	82 2f       	mov	r24, r18
    267a:	0f 90       	pop	r0
    267c:	0f 90       	pop	r0
    267e:	df 91       	pop	r29
    2680:	cf 91       	pop	r28
    2682:	08 95       	ret

00002684 <sysclk_get_main_hz>:
    2684:	cf 93       	push	r28
    2686:	df 93       	push	r29
    2688:	cd b7       	in	r28, 0x3d	; 61
    268a:	de b7       	in	r29, 0x3e	; 62
    268c:	80 e0       	ldi	r24, 0x00	; 0
    268e:	9c e6       	ldi	r25, 0x6C	; 108
    2690:	ac ed       	ldi	r26, 0xDC	; 220
    2692:	b2 e0       	ldi	r27, 0x02	; 2
    2694:	bc 01       	movw	r22, r24
    2696:	cd 01       	movw	r24, r26
    2698:	df 91       	pop	r29
    269a:	cf 91       	pop	r28
    269c:	08 95       	ret

0000269e <sysclk_get_per4_hz>:
    269e:	cf 93       	push	r28
    26a0:	df 93       	push	r29
    26a2:	1f 92       	push	r1
    26a4:	cd b7       	in	r28, 0x3d	; 61
    26a6:	de b7       	in	r29, 0x3e	; 62
    26a8:	19 82       	std	Y+1, r1	; 0x01
    26aa:	81 e0       	ldi	r24, 0x01	; 1
    26ac:	89 83       	std	Y+1, r24	; 0x01
    26ae:	ea df       	rcall	.-44     	; 0x2684 <sysclk_get_main_hz>
    26b0:	dc 01       	movw	r26, r24
    26b2:	cb 01       	movw	r24, r22
    26b4:	29 81       	ldd	r18, Y+1	; 0x01
    26b6:	22 2f       	mov	r18, r18
    26b8:	30 e0       	ldi	r19, 0x00	; 0
    26ba:	04 c0       	rjmp	.+8      	; 0x26c4 <sysclk_get_per4_hz+0x26>
    26bc:	b6 95       	lsr	r27
    26be:	a7 95       	ror	r26
    26c0:	97 95       	ror	r25
    26c2:	87 95       	ror	r24
    26c4:	2a 95       	dec	r18
    26c6:	d2 f7       	brpl	.-12     	; 0x26bc <sysclk_get_per4_hz+0x1e>
    26c8:	bc 01       	movw	r22, r24
    26ca:	cd 01       	movw	r24, r26
    26cc:	0f 90       	pop	r0
    26ce:	df 91       	pop	r29
    26d0:	cf 91       	pop	r28
    26d2:	08 95       	ret

000026d4 <sysclk_get_per2_hz>:
    26d4:	cf 93       	push	r28
    26d6:	df 93       	push	r29
    26d8:	cd b7       	in	r28, 0x3d	; 61
    26da:	de b7       	in	r29, 0x3e	; 62
    26dc:	e0 df       	rcall	.-64     	; 0x269e <sysclk_get_per4_hz>
    26de:	dc 01       	movw	r26, r24
    26e0:	cb 01       	movw	r24, r22
    26e2:	bc 01       	movw	r22, r24
    26e4:	cd 01       	movw	r24, r26
    26e6:	df 91       	pop	r29
    26e8:	cf 91       	pop	r28
    26ea:	08 95       	ret

000026ec <sysclk_get_per_hz>:
    26ec:	cf 93       	push	r28
    26ee:	df 93       	push	r29
    26f0:	cd b7       	in	r28, 0x3d	; 61
    26f2:	de b7       	in	r29, 0x3e	; 62
    26f4:	ef df       	rcall	.-34     	; 0x26d4 <sysclk_get_per2_hz>
    26f6:	dc 01       	movw	r26, r24
    26f8:	cb 01       	movw	r24, r22
    26fa:	bc 01       	movw	r22, r24
    26fc:	cd 01       	movw	r24, r26
    26fe:	df 91       	pop	r29
    2700:	cf 91       	pop	r28
    2702:	08 95       	ret

00002704 <sysclk_enable_peripheral_clock>:
    2704:	cf 93       	push	r28
    2706:	df 93       	push	r29
    2708:	1f 92       	push	r1
    270a:	1f 92       	push	r1
    270c:	cd b7       	in	r28, 0x3d	; 61
    270e:	de b7       	in	r29, 0x3e	; 62
    2710:	89 83       	std	Y+1, r24	; 0x01
    2712:	9a 83       	std	Y+2, r25	; 0x02
    2714:	89 81       	ldd	r24, Y+1	; 0x01
    2716:	9a 81       	ldd	r25, Y+2	; 0x02
    2718:	89 2b       	or	r24, r25
    271a:	09 f4       	brne	.+2      	; 0x271e <sysclk_enable_peripheral_clock+0x1a>
    271c:	21 c1       	rjmp	.+578    	; 0x2960 <sysclk_enable_peripheral_clock+0x25c>
    271e:	89 81       	ldd	r24, Y+1	; 0x01
    2720:	9a 81       	ldd	r25, Y+2	; 0x02
    2722:	80 3c       	cpi	r24, 0xC0	; 192
    2724:	91 05       	cpc	r25, r1
    2726:	29 f4       	brne	.+10     	; 0x2732 <sysclk_enable_peripheral_clock+0x2e>
    2728:	60 e1       	ldi	r22, 0x10	; 16
    272a:	80 e0       	ldi	r24, 0x00	; 0
    272c:	0e 94 6f 20 	call	0x40de	; 0x40de <sysclk_enable_module>
    2730:	17 c1       	rjmp	.+558    	; 0x2960 <sysclk_enable_peripheral_clock+0x25c>
    2732:	89 81       	ldd	r24, Y+1	; 0x01
    2734:	9a 81       	ldd	r25, Y+2	; 0x02
    2736:	80 38       	cpi	r24, 0x80	; 128
    2738:	91 40       	sbci	r25, 0x01	; 1
    273a:	29 f4       	brne	.+10     	; 0x2746 <sysclk_enable_peripheral_clock+0x42>
    273c:	62 e0       	ldi	r22, 0x02	; 2
    273e:	80 e0       	ldi	r24, 0x00	; 0
    2740:	0e 94 6f 20 	call	0x40de	; 0x40de <sysclk_enable_module>
    2744:	0d c1       	rjmp	.+538    	; 0x2960 <sysclk_enable_peripheral_clock+0x25c>
    2746:	89 81       	ldd	r24, Y+1	; 0x01
    2748:	9a 81       	ldd	r25, Y+2	; 0x02
    274a:	81 15       	cp	r24, r1
    274c:	91 40       	sbci	r25, 0x01	; 1
    274e:	29 f4       	brne	.+10     	; 0x275a <sysclk_enable_peripheral_clock+0x56>
    2750:	61 e0       	ldi	r22, 0x01	; 1
    2752:	80 e0       	ldi	r24, 0x00	; 0
    2754:	0e 94 6f 20 	call	0x40de	; 0x40de <sysclk_enable_module>
    2758:	03 c1       	rjmp	.+518    	; 0x2960 <sysclk_enable_peripheral_clock+0x25c>
    275a:	89 81       	ldd	r24, Y+1	; 0x01
    275c:	9a 81       	ldd	r25, Y+2	; 0x02
    275e:	80 38       	cpi	r24, 0x80	; 128
    2760:	93 40       	sbci	r25, 0x03	; 3
    2762:	29 f4       	brne	.+10     	; 0x276e <sysclk_enable_peripheral_clock+0x6a>
    2764:	61 e0       	ldi	r22, 0x01	; 1
    2766:	81 e0       	ldi	r24, 0x01	; 1
    2768:	0e 94 6f 20 	call	0x40de	; 0x40de <sysclk_enable_module>
    276c:	f9 c0       	rjmp	.+498    	; 0x2960 <sysclk_enable_peripheral_clock+0x25c>
    276e:	89 81       	ldd	r24, Y+1	; 0x01
    2770:	9a 81       	ldd	r25, Y+2	; 0x02
    2772:	80 39       	cpi	r24, 0x90	; 144
    2774:	93 40       	sbci	r25, 0x03	; 3
    2776:	29 f4       	brne	.+10     	; 0x2782 <sysclk_enable_peripheral_clock+0x7e>
    2778:	61 e0       	ldi	r22, 0x01	; 1
    277a:	82 e0       	ldi	r24, 0x02	; 2
    277c:	0e 94 6f 20 	call	0x40de	; 0x40de <sysclk_enable_module>
    2780:	ef c0       	rjmp	.+478    	; 0x2960 <sysclk_enable_peripheral_clock+0x25c>
    2782:	89 81       	ldd	r24, Y+1	; 0x01
    2784:	9a 81       	ldd	r25, Y+2	; 0x02
    2786:	81 15       	cp	r24, r1
    2788:	92 40       	sbci	r25, 0x02	; 2
    278a:	29 f4       	brne	.+10     	; 0x2796 <sysclk_enable_peripheral_clock+0x92>
    278c:	62 e0       	ldi	r22, 0x02	; 2
    278e:	81 e0       	ldi	r24, 0x01	; 1
    2790:	0e 94 6f 20 	call	0x40de	; 0x40de <sysclk_enable_module>
    2794:	e5 c0       	rjmp	.+458    	; 0x2960 <sysclk_enable_peripheral_clock+0x25c>
    2796:	89 81       	ldd	r24, Y+1	; 0x01
    2798:	9a 81       	ldd	r25, Y+2	; 0x02
    279a:	80 34       	cpi	r24, 0x40	; 64
    279c:	92 40       	sbci	r25, 0x02	; 2
    279e:	29 f4       	brne	.+10     	; 0x27aa <sysclk_enable_peripheral_clock+0xa6>
    27a0:	62 e0       	ldi	r22, 0x02	; 2
    27a2:	82 e0       	ldi	r24, 0x02	; 2
    27a4:	0e 94 6f 20 	call	0x40de	; 0x40de <sysclk_enable_module>
    27a8:	db c0       	rjmp	.+438    	; 0x2960 <sysclk_enable_peripheral_clock+0x25c>
    27aa:	89 81       	ldd	r24, Y+1	; 0x01
    27ac:	9a 81       	ldd	r25, Y+2	; 0x02
    27ae:	80 32       	cpi	r24, 0x20	; 32
    27b0:	93 40       	sbci	r25, 0x03	; 3
    27b2:	29 f4       	brne	.+10     	; 0x27be <sysclk_enable_peripheral_clock+0xba>
    27b4:	64 e0       	ldi	r22, 0x04	; 4
    27b6:	82 e0       	ldi	r24, 0x02	; 2
    27b8:	0e 94 6f 20 	call	0x40de	; 0x40de <sysclk_enable_module>
    27bc:	d1 c0       	rjmp	.+418    	; 0x2960 <sysclk_enable_peripheral_clock+0x25c>
    27be:	89 81       	ldd	r24, Y+1	; 0x01
    27c0:	9a 81       	ldd	r25, Y+2	; 0x02
    27c2:	81 15       	cp	r24, r1
    27c4:	98 40       	sbci	r25, 0x08	; 8
    27c6:	29 f4       	brne	.+10     	; 0x27d2 <sysclk_enable_peripheral_clock+0xce>
    27c8:	61 e0       	ldi	r22, 0x01	; 1
    27ca:	83 e0       	ldi	r24, 0x03	; 3
    27cc:	0e 94 6f 20 	call	0x40de	; 0x40de <sysclk_enable_module>
    27d0:	c7 c0       	rjmp	.+398    	; 0x2960 <sysclk_enable_peripheral_clock+0x25c>
    27d2:	89 81       	ldd	r24, Y+1	; 0x01
    27d4:	9a 81       	ldd	r25, Y+2	; 0x02
    27d6:	81 15       	cp	r24, r1
    27d8:	99 40       	sbci	r25, 0x09	; 9
    27da:	29 f4       	brne	.+10     	; 0x27e6 <sysclk_enable_peripheral_clock+0xe2>
    27dc:	61 e0       	ldi	r22, 0x01	; 1
    27de:	84 e0       	ldi	r24, 0x04	; 4
    27e0:	0e 94 6f 20 	call	0x40de	; 0x40de <sysclk_enable_module>
    27e4:	bd c0       	rjmp	.+378    	; 0x2960 <sysclk_enable_peripheral_clock+0x25c>
    27e6:	89 81       	ldd	r24, Y+1	; 0x01
    27e8:	9a 81       	ldd	r25, Y+2	; 0x02
    27ea:	81 15       	cp	r24, r1
    27ec:	9a 40       	sbci	r25, 0x0A	; 10
    27ee:	29 f4       	brne	.+10     	; 0x27fa <sysclk_enable_peripheral_clock+0xf6>
    27f0:	61 e0       	ldi	r22, 0x01	; 1
    27f2:	85 e0       	ldi	r24, 0x05	; 5
    27f4:	0e 94 6f 20 	call	0x40de	; 0x40de <sysclk_enable_module>
    27f8:	b3 c0       	rjmp	.+358    	; 0x2960 <sysclk_enable_peripheral_clock+0x25c>
    27fa:	89 81       	ldd	r24, Y+1	; 0x01
    27fc:	9a 81       	ldd	r25, Y+2	; 0x02
    27fe:	81 15       	cp	r24, r1
    2800:	9b 40       	sbci	r25, 0x0B	; 11
    2802:	29 f4       	brne	.+10     	; 0x280e <sysclk_enable_peripheral_clock+0x10a>
    2804:	61 e0       	ldi	r22, 0x01	; 1
    2806:	86 e0       	ldi	r24, 0x06	; 6
    2808:	0e 94 6f 20 	call	0x40de	; 0x40de <sysclk_enable_module>
    280c:	a9 c0       	rjmp	.+338    	; 0x2960 <sysclk_enable_peripheral_clock+0x25c>
    280e:	89 81       	ldd	r24, Y+1	; 0x01
    2810:	9a 81       	ldd	r25, Y+2	; 0x02
    2812:	80 34       	cpi	r24, 0x40	; 64
    2814:	98 40       	sbci	r25, 0x08	; 8
    2816:	29 f4       	brne	.+10     	; 0x2822 <sysclk_enable_peripheral_clock+0x11e>
    2818:	62 e0       	ldi	r22, 0x02	; 2
    281a:	83 e0       	ldi	r24, 0x03	; 3
    281c:	0e 94 6f 20 	call	0x40de	; 0x40de <sysclk_enable_module>
    2820:	9f c0       	rjmp	.+318    	; 0x2960 <sysclk_enable_peripheral_clock+0x25c>
    2822:	89 81       	ldd	r24, Y+1	; 0x01
    2824:	9a 81       	ldd	r25, Y+2	; 0x02
    2826:	80 34       	cpi	r24, 0x40	; 64
    2828:	99 40       	sbci	r25, 0x09	; 9
    282a:	29 f4       	brne	.+10     	; 0x2836 <sysclk_enable_peripheral_clock+0x132>
    282c:	62 e0       	ldi	r22, 0x02	; 2
    282e:	84 e0       	ldi	r24, 0x04	; 4
    2830:	0e 94 6f 20 	call	0x40de	; 0x40de <sysclk_enable_module>
    2834:	95 c0       	rjmp	.+298    	; 0x2960 <sysclk_enable_peripheral_clock+0x25c>
    2836:	89 81       	ldd	r24, Y+1	; 0x01
    2838:	9a 81       	ldd	r25, Y+2	; 0x02
    283a:	80 34       	cpi	r24, 0x40	; 64
    283c:	9a 40       	sbci	r25, 0x0A	; 10
    283e:	29 f4       	brne	.+10     	; 0x284a <sysclk_enable_peripheral_clock+0x146>
    2840:	62 e0       	ldi	r22, 0x02	; 2
    2842:	85 e0       	ldi	r24, 0x05	; 5
    2844:	0e 94 6f 20 	call	0x40de	; 0x40de <sysclk_enable_module>
    2848:	8b c0       	rjmp	.+278    	; 0x2960 <sysclk_enable_peripheral_clock+0x25c>
    284a:	89 81       	ldd	r24, Y+1	; 0x01
    284c:	9a 81       	ldd	r25, Y+2	; 0x02
    284e:	80 39       	cpi	r24, 0x90	; 144
    2850:	98 40       	sbci	r25, 0x08	; 8
    2852:	29 f4       	brne	.+10     	; 0x285e <sysclk_enable_peripheral_clock+0x15a>
    2854:	64 e0       	ldi	r22, 0x04	; 4
    2856:	83 e0       	ldi	r24, 0x03	; 3
    2858:	0e 94 6f 20 	call	0x40de	; 0x40de <sysclk_enable_module>
    285c:	81 c0       	rjmp	.+258    	; 0x2960 <sysclk_enable_peripheral_clock+0x25c>
    285e:	89 81       	ldd	r24, Y+1	; 0x01
    2860:	9a 81       	ldd	r25, Y+2	; 0x02
    2862:	80 39       	cpi	r24, 0x90	; 144
    2864:	99 40       	sbci	r25, 0x09	; 9
    2866:	29 f4       	brne	.+10     	; 0x2872 <sysclk_enable_peripheral_clock+0x16e>
    2868:	64 e0       	ldi	r22, 0x04	; 4
    286a:	84 e0       	ldi	r24, 0x04	; 4
    286c:	0e 94 6f 20 	call	0x40de	; 0x40de <sysclk_enable_module>
    2870:	77 c0       	rjmp	.+238    	; 0x2960 <sysclk_enable_peripheral_clock+0x25c>
    2872:	89 81       	ldd	r24, Y+1	; 0x01
    2874:	9a 81       	ldd	r25, Y+2	; 0x02
    2876:	80 39       	cpi	r24, 0x90	; 144
    2878:	9a 40       	sbci	r25, 0x0A	; 10
    287a:	29 f4       	brne	.+10     	; 0x2886 <sysclk_enable_peripheral_clock+0x182>
    287c:	64 e0       	ldi	r22, 0x04	; 4
    287e:	85 e0       	ldi	r24, 0x05	; 5
    2880:	0e 94 6f 20 	call	0x40de	; 0x40de <sysclk_enable_module>
    2884:	6d c0       	rjmp	.+218    	; 0x2960 <sysclk_enable_peripheral_clock+0x25c>
    2886:	89 81       	ldd	r24, Y+1	; 0x01
    2888:	9a 81       	ldd	r25, Y+2	; 0x02
    288a:	80 39       	cpi	r24, 0x90	; 144
    288c:	9b 40       	sbci	r25, 0x0B	; 11
    288e:	29 f4       	brne	.+10     	; 0x289a <sysclk_enable_peripheral_clock+0x196>
    2890:	64 e0       	ldi	r22, 0x04	; 4
    2892:	86 e0       	ldi	r24, 0x06	; 6
    2894:	0e 94 6f 20 	call	0x40de	; 0x40de <sysclk_enable_module>
    2898:	63 c0       	rjmp	.+198    	; 0x2960 <sysclk_enable_peripheral_clock+0x25c>
    289a:	89 81       	ldd	r24, Y+1	; 0x01
    289c:	9a 81       	ldd	r25, Y+2	; 0x02
    289e:	80 3c       	cpi	r24, 0xC0	; 192
    28a0:	98 40       	sbci	r25, 0x08	; 8
    28a2:	29 f4       	brne	.+10     	; 0x28ae <sysclk_enable_peripheral_clock+0x1aa>
    28a4:	68 e0       	ldi	r22, 0x08	; 8
    28a6:	83 e0       	ldi	r24, 0x03	; 3
    28a8:	0e 94 6f 20 	call	0x40de	; 0x40de <sysclk_enable_module>
    28ac:	59 c0       	rjmp	.+178    	; 0x2960 <sysclk_enable_peripheral_clock+0x25c>
    28ae:	89 81       	ldd	r24, Y+1	; 0x01
    28b0:	9a 81       	ldd	r25, Y+2	; 0x02
    28b2:	80 3c       	cpi	r24, 0xC0	; 192
    28b4:	99 40       	sbci	r25, 0x09	; 9
    28b6:	29 f4       	brne	.+10     	; 0x28c2 <sysclk_enable_peripheral_clock+0x1be>
    28b8:	68 e0       	ldi	r22, 0x08	; 8
    28ba:	84 e0       	ldi	r24, 0x04	; 4
    28bc:	0e 94 6f 20 	call	0x40de	; 0x40de <sysclk_enable_module>
    28c0:	4f c0       	rjmp	.+158    	; 0x2960 <sysclk_enable_peripheral_clock+0x25c>
    28c2:	89 81       	ldd	r24, Y+1	; 0x01
    28c4:	9a 81       	ldd	r25, Y+2	; 0x02
    28c6:	80 3a       	cpi	r24, 0xA0	; 160
    28c8:	98 40       	sbci	r25, 0x08	; 8
    28ca:	29 f4       	brne	.+10     	; 0x28d6 <sysclk_enable_peripheral_clock+0x1d2>
    28cc:	60 e1       	ldi	r22, 0x10	; 16
    28ce:	83 e0       	ldi	r24, 0x03	; 3
    28d0:	0e 94 6f 20 	call	0x40de	; 0x40de <sysclk_enable_module>
    28d4:	45 c0       	rjmp	.+138    	; 0x2960 <sysclk_enable_peripheral_clock+0x25c>
    28d6:	89 81       	ldd	r24, Y+1	; 0x01
    28d8:	9a 81       	ldd	r25, Y+2	; 0x02
    28da:	80 3a       	cpi	r24, 0xA0	; 160
    28dc:	99 40       	sbci	r25, 0x09	; 9
    28de:	29 f4       	brne	.+10     	; 0x28ea <sysclk_enable_peripheral_clock+0x1e6>
    28e0:	60 e1       	ldi	r22, 0x10	; 16
    28e2:	84 e0       	ldi	r24, 0x04	; 4
    28e4:	0e 94 6f 20 	call	0x40de	; 0x40de <sysclk_enable_module>
    28e8:	3b c0       	rjmp	.+118    	; 0x2960 <sysclk_enable_peripheral_clock+0x25c>
    28ea:	89 81       	ldd	r24, Y+1	; 0x01
    28ec:	9a 81       	ldd	r25, Y+2	; 0x02
    28ee:	80 3a       	cpi	r24, 0xA0	; 160
    28f0:	9a 40       	sbci	r25, 0x0A	; 10
    28f2:	29 f4       	brne	.+10     	; 0x28fe <sysclk_enable_peripheral_clock+0x1fa>
    28f4:	60 e1       	ldi	r22, 0x10	; 16
    28f6:	85 e0       	ldi	r24, 0x05	; 5
    28f8:	0e 94 6f 20 	call	0x40de	; 0x40de <sysclk_enable_module>
    28fc:	31 c0       	rjmp	.+98     	; 0x2960 <sysclk_enable_peripheral_clock+0x25c>
    28fe:	89 81       	ldd	r24, Y+1	; 0x01
    2900:	9a 81       	ldd	r25, Y+2	; 0x02
    2902:	80 3a       	cpi	r24, 0xA0	; 160
    2904:	9b 40       	sbci	r25, 0x0B	; 11
    2906:	29 f4       	brne	.+10     	; 0x2912 <sysclk_enable_peripheral_clock+0x20e>
    2908:	60 e1       	ldi	r22, 0x10	; 16
    290a:	86 e0       	ldi	r24, 0x06	; 6
    290c:	0e 94 6f 20 	call	0x40de	; 0x40de <sysclk_enable_module>
    2910:	27 c0       	rjmp	.+78     	; 0x2960 <sysclk_enable_peripheral_clock+0x25c>
    2912:	89 81       	ldd	r24, Y+1	; 0x01
    2914:	9a 81       	ldd	r25, Y+2	; 0x02
    2916:	80 3b       	cpi	r24, 0xB0	; 176
    2918:	98 40       	sbci	r25, 0x08	; 8
    291a:	29 f4       	brne	.+10     	; 0x2926 <sysclk_enable_peripheral_clock+0x222>
    291c:	60 e2       	ldi	r22, 0x20	; 32
    291e:	83 e0       	ldi	r24, 0x03	; 3
    2920:	0e 94 6f 20 	call	0x40de	; 0x40de <sysclk_enable_module>
    2924:	1d c0       	rjmp	.+58     	; 0x2960 <sysclk_enable_peripheral_clock+0x25c>
    2926:	89 81       	ldd	r24, Y+1	; 0x01
    2928:	9a 81       	ldd	r25, Y+2	; 0x02
    292a:	80 3b       	cpi	r24, 0xB0	; 176
    292c:	99 40       	sbci	r25, 0x09	; 9
    292e:	29 f4       	brne	.+10     	; 0x293a <sysclk_enable_peripheral_clock+0x236>
    2930:	60 e2       	ldi	r22, 0x20	; 32
    2932:	84 e0       	ldi	r24, 0x04	; 4
    2934:	0e 94 6f 20 	call	0x40de	; 0x40de <sysclk_enable_module>
    2938:	13 c0       	rjmp	.+38     	; 0x2960 <sysclk_enable_peripheral_clock+0x25c>
    293a:	89 81       	ldd	r24, Y+1	; 0x01
    293c:	9a 81       	ldd	r25, Y+2	; 0x02
    293e:	80 38       	cpi	r24, 0x80	; 128
    2940:	94 40       	sbci	r25, 0x04	; 4
    2942:	29 f4       	brne	.+10     	; 0x294e <sysclk_enable_peripheral_clock+0x24a>
    2944:	60 e4       	ldi	r22, 0x40	; 64
    2946:	83 e0       	ldi	r24, 0x03	; 3
    2948:	0e 94 6f 20 	call	0x40de	; 0x40de <sysclk_enable_module>
    294c:	09 c0       	rjmp	.+18     	; 0x2960 <sysclk_enable_peripheral_clock+0x25c>
    294e:	89 81       	ldd	r24, Y+1	; 0x01
    2950:	9a 81       	ldd	r25, Y+2	; 0x02
    2952:	80 3a       	cpi	r24, 0xA0	; 160
    2954:	94 40       	sbci	r25, 0x04	; 4
    2956:	21 f4       	brne	.+8      	; 0x2960 <sysclk_enable_peripheral_clock+0x25c>
    2958:	60 e4       	ldi	r22, 0x40	; 64
    295a:	85 e0       	ldi	r24, 0x05	; 5
    295c:	0e 94 6f 20 	call	0x40de	; 0x40de <sysclk_enable_module>
    2960:	00 00       	nop
    2962:	0f 90       	pop	r0
    2964:	0f 90       	pop	r0
    2966:	df 91       	pop	r29
    2968:	cf 91       	pop	r28
    296a:	08 95       	ret

0000296c <usart_init_rs232>:
    296c:	0f 93       	push	r16
    296e:	1f 93       	push	r17
    2970:	cf 93       	push	r28
    2972:	df 93       	push	r29
    2974:	cd b7       	in	r28, 0x3d	; 61
    2976:	de b7       	in	r29, 0x3e	; 62
    2978:	25 97       	sbiw	r28, 0x05	; 5
    297a:	cd bf       	out	0x3d, r28	; 61
    297c:	de bf       	out	0x3e, r29	; 62
    297e:	8a 83       	std	Y+2, r24	; 0x02
    2980:	9b 83       	std	Y+3, r25	; 0x03
    2982:	6c 83       	std	Y+4, r22	; 0x04
    2984:	7d 83       	std	Y+5, r23	; 0x05
    2986:	8a 81       	ldd	r24, Y+2	; 0x02
    2988:	9b 81       	ldd	r25, Y+3	; 0x03
    298a:	bc de       	rcall	.-648    	; 0x2704 <sysclk_enable_peripheral_clock>
    298c:	8a 81       	ldd	r24, Y+2	; 0x02
    298e:	9b 81       	ldd	r25, Y+3	; 0x03
    2990:	60 e0       	ldi	r22, 0x00	; 0
    2992:	42 de       	rcall	.-892    	; 0x2618 <usart_set_mode>
    2994:	8c 81       	ldd	r24, Y+4	; 0x04
    2996:	9d 81       	ldd	r25, Y+5	; 0x05
    2998:	fc 01       	movw	r30, r24
    299a:	26 81       	ldd	r18, Z+6	; 0x06
    299c:	8c 81       	ldd	r24, Y+4	; 0x04
    299e:	9d 81       	ldd	r25, Y+5	; 0x05
    29a0:	fc 01       	movw	r30, r24
    29a2:	45 81       	ldd	r20, Z+5	; 0x05
    29a4:	8c 81       	ldd	r24, Y+4	; 0x04
    29a6:	9d 81       	ldd	r25, Y+5	; 0x05
    29a8:	fc 01       	movw	r30, r24
    29aa:	34 81       	ldd	r19, Z+4	; 0x04
    29ac:	8a 81       	ldd	r24, Y+2	; 0x02
    29ae:	9b 81       	ldd	r25, Y+3	; 0x03
    29b0:	63 2f       	mov	r22, r19
    29b2:	f7 dd       	rcall	.-1042   	; 0x25a2 <usart_format_set>
    29b4:	9b de       	rcall	.-714    	; 0x26ec <sysclk_get_per_hz>
    29b6:	9b 01       	movw	r18, r22
    29b8:	ac 01       	movw	r20, r24
    29ba:	8c 81       	ldd	r24, Y+4	; 0x04
    29bc:	9d 81       	ldd	r25, Y+5	; 0x05
    29be:	fc 01       	movw	r30, r24
    29c0:	80 81       	ld	r24, Z
    29c2:	91 81       	ldd	r25, Z+1	; 0x01
    29c4:	a2 81       	ldd	r26, Z+2	; 0x02
    29c6:	b3 81       	ldd	r27, Z+3	; 0x03
    29c8:	ea 81       	ldd	r30, Y+2	; 0x02
    29ca:	fb 81       	ldd	r31, Y+3	; 0x03
    29cc:	89 01       	movw	r16, r18
    29ce:	9a 01       	movw	r18, r20
    29d0:	ac 01       	movw	r20, r24
    29d2:	bd 01       	movw	r22, r26
    29d4:	cf 01       	movw	r24, r30
    29d6:	2e d0       	rcall	.+92     	; 0x2a34 <usart_set_baudrate>
    29d8:	89 83       	std	Y+1, r24	; 0x01
    29da:	8a 81       	ldd	r24, Y+2	; 0x02
    29dc:	9b 81       	ldd	r25, Y+3	; 0x03
    29de:	04 de       	rcall	.-1016   	; 0x25e8 <usart_tx_enable>
    29e0:	8a 81       	ldd	r24, Y+2	; 0x02
    29e2:	9b 81       	ldd	r25, Y+3	; 0x03
    29e4:	c6 dd       	rcall	.-1140   	; 0x2572 <usart_rx_enable>
    29e6:	89 81       	ldd	r24, Y+1	; 0x01
    29e8:	25 96       	adiw	r28, 0x05	; 5
    29ea:	cd bf       	out	0x3d, r28	; 61
    29ec:	de bf       	out	0x3e, r29	; 62
    29ee:	df 91       	pop	r29
    29f0:	cf 91       	pop	r28
    29f2:	1f 91       	pop	r17
    29f4:	0f 91       	pop	r16
    29f6:	08 95       	ret

000029f8 <usart_putchar>:
    29f8:	cf 93       	push	r28
    29fa:	df 93       	push	r29
    29fc:	00 d0       	rcall	.+0      	; 0x29fe <usart_putchar+0x6>
    29fe:	cd b7       	in	r28, 0x3d	; 61
    2a00:	de b7       	in	r29, 0x3e	; 62
    2a02:	89 83       	std	Y+1, r24	; 0x01
    2a04:	9a 83       	std	Y+2, r25	; 0x02
    2a06:	6b 83       	std	Y+3, r22	; 0x03
    2a08:	00 00       	nop
    2a0a:	89 81       	ldd	r24, Y+1	; 0x01
    2a0c:	9a 81       	ldd	r25, Y+2	; 0x02
    2a0e:	20 de       	rcall	.-960    	; 0x2650 <usart_data_register_is_empty>
    2a10:	98 2f       	mov	r25, r24
    2a12:	81 e0       	ldi	r24, 0x01	; 1
    2a14:	89 27       	eor	r24, r25
    2a16:	88 23       	and	r24, r24
    2a18:	c1 f7       	brne	.-16     	; 0x2a0a <usart_putchar+0x12>
    2a1a:	89 81       	ldd	r24, Y+1	; 0x01
    2a1c:	9a 81       	ldd	r25, Y+2	; 0x02
    2a1e:	2b 81       	ldd	r18, Y+3	; 0x03
    2a20:	fc 01       	movw	r30, r24
    2a22:	20 83       	st	Z, r18
    2a24:	80 e0       	ldi	r24, 0x00	; 0
    2a26:	90 e0       	ldi	r25, 0x00	; 0
    2a28:	23 96       	adiw	r28, 0x03	; 3
    2a2a:	cd bf       	out	0x3d, r28	; 61
    2a2c:	de bf       	out	0x3e, r29	; 62
    2a2e:	df 91       	pop	r29
    2a30:	cf 91       	pop	r28
    2a32:	08 95       	ret

00002a34 <usart_set_baudrate>:
    2a34:	ef 92       	push	r14
    2a36:	ff 92       	push	r15
    2a38:	0f 93       	push	r16
    2a3a:	1f 93       	push	r17
    2a3c:	cf 93       	push	r28
    2a3e:	df 93       	push	r29
    2a40:	cd b7       	in	r28, 0x3d	; 61
    2a42:	de b7       	in	r29, 0x3e	; 62
    2a44:	6f 97       	sbiw	r28, 0x1f	; 31
    2a46:	cd bf       	out	0x3d, r28	; 61
    2a48:	de bf       	out	0x3e, r29	; 62
    2a4a:	8e 8b       	std	Y+22, r24	; 0x16
    2a4c:	9f 8b       	std	Y+23, r25	; 0x17
    2a4e:	48 8f       	std	Y+24, r20	; 0x18
    2a50:	59 8f       	std	Y+25, r21	; 0x19
    2a52:	6a 8f       	std	Y+26, r22	; 0x1a
    2a54:	7b 8f       	std	Y+27, r23	; 0x1b
    2a56:	0c 8f       	std	Y+28, r16	; 0x1c
    2a58:	1d 8f       	std	Y+29, r17	; 0x1d
    2a5a:	2e 8f       	std	Y+30, r18	; 0x1e
    2a5c:	3f 8f       	std	Y+31, r19	; 0x1f
    2a5e:	8c 8d       	ldd	r24, Y+28	; 0x1c
    2a60:	9d 8d       	ldd	r25, Y+29	; 0x1d
    2a62:	ae 8d       	ldd	r26, Y+30	; 0x1e
    2a64:	bf 8d       	ldd	r27, Y+31	; 0x1f
    2a66:	68 94       	set
    2a68:	12 f8       	bld	r1, 2
    2a6a:	b6 95       	lsr	r27
    2a6c:	a7 95       	ror	r26
    2a6e:	97 95       	ror	r25
    2a70:	87 95       	ror	r24
    2a72:	16 94       	lsr	r1
    2a74:	d1 f7       	brne	.-12     	; 0x2a6a <usart_set_baudrate+0x36>
    2a76:	8e 87       	std	Y+14, r24	; 0x0e
    2a78:	9f 87       	std	Y+15, r25	; 0x0f
    2a7a:	a8 8b       	std	Y+16, r26	; 0x10
    2a7c:	b9 8b       	std	Y+17, r27	; 0x11
    2a7e:	8c 8d       	ldd	r24, Y+28	; 0x1c
    2a80:	9d 8d       	ldd	r25, Y+29	; 0x1d
    2a82:	ae 8d       	ldd	r26, Y+30	; 0x1e
    2a84:	bf 8d       	ldd	r27, Y+31	; 0x1f
    2a86:	07 2e       	mov	r0, r23
    2a88:	76 e1       	ldi	r23, 0x16	; 22
    2a8a:	b6 95       	lsr	r27
    2a8c:	a7 95       	ror	r26
    2a8e:	97 95       	ror	r25
    2a90:	87 95       	ror	r24
    2a92:	7a 95       	dec	r23
    2a94:	d1 f7       	brne	.-12     	; 0x2a8a <usart_set_baudrate+0x56>
    2a96:	70 2d       	mov	r23, r0
    2a98:	8a 87       	std	Y+10, r24	; 0x0a
    2a9a:	9b 87       	std	Y+11, r25	; 0x0b
    2a9c:	ac 87       	std	Y+12, r26	; 0x0c
    2a9e:	bd 87       	std	Y+13, r27	; 0x0d
    2aa0:	8e 89       	ldd	r24, Y+22	; 0x16
    2aa2:	9f 89       	ldd	r25, Y+23	; 0x17
    2aa4:	fc 01       	movw	r30, r24
    2aa6:	84 81       	ldd	r24, Z+4	; 0x04
    2aa8:	88 2f       	mov	r24, r24
    2aaa:	90 e0       	ldi	r25, 0x00	; 0
    2aac:	84 70       	andi	r24, 0x04	; 4
    2aae:	99 27       	eor	r25, r25
    2ab0:	89 2b       	or	r24, r25
    2ab2:	c1 f4       	brne	.+48     	; 0x2ae4 <usart_set_baudrate+0xb0>
    2ab4:	8e 85       	ldd	r24, Y+14	; 0x0e
    2ab6:	9f 85       	ldd	r25, Y+15	; 0x0f
    2ab8:	a8 89       	ldd	r26, Y+16	; 0x10
    2aba:	b9 89       	ldd	r27, Y+17	; 0x11
    2abc:	b6 95       	lsr	r27
    2abe:	a7 95       	ror	r26
    2ac0:	97 95       	ror	r25
    2ac2:	87 95       	ror	r24
    2ac4:	8e 87       	std	Y+14, r24	; 0x0e
    2ac6:	9f 87       	std	Y+15, r25	; 0x0f
    2ac8:	a8 8b       	std	Y+16, r26	; 0x10
    2aca:	b9 8b       	std	Y+17, r27	; 0x11
    2acc:	8a 85       	ldd	r24, Y+10	; 0x0a
    2ace:	9b 85       	ldd	r25, Y+11	; 0x0b
    2ad0:	ac 85       	ldd	r26, Y+12	; 0x0c
    2ad2:	bd 85       	ldd	r27, Y+13	; 0x0d
    2ad4:	b6 95       	lsr	r27
    2ad6:	a7 95       	ror	r26
    2ad8:	97 95       	ror	r25
    2ada:	87 95       	ror	r24
    2adc:	8a 87       	std	Y+10, r24	; 0x0a
    2ade:	9b 87       	std	Y+11, r25	; 0x0b
    2ae0:	ac 87       	std	Y+12, r26	; 0x0c
    2ae2:	bd 87       	std	Y+13, r27	; 0x0d
    2ae4:	28 8d       	ldd	r18, Y+24	; 0x18
    2ae6:	39 8d       	ldd	r19, Y+25	; 0x19
    2ae8:	4a 8d       	ldd	r20, Y+26	; 0x1a
    2aea:	5b 8d       	ldd	r21, Y+27	; 0x1b
    2aec:	8e 85       	ldd	r24, Y+14	; 0x0e
    2aee:	9f 85       	ldd	r25, Y+15	; 0x0f
    2af0:	a8 89       	ldd	r26, Y+16	; 0x10
    2af2:	b9 89       	ldd	r27, Y+17	; 0x11
    2af4:	82 17       	cp	r24, r18
    2af6:	93 07       	cpc	r25, r19
    2af8:	a4 07       	cpc	r26, r20
    2afa:	b5 07       	cpc	r27, r21
    2afc:	68 f0       	brcs	.+26     	; 0x2b18 <usart_set_baudrate+0xe4>
    2afe:	28 8d       	ldd	r18, Y+24	; 0x18
    2b00:	39 8d       	ldd	r19, Y+25	; 0x19
    2b02:	4a 8d       	ldd	r20, Y+26	; 0x1a
    2b04:	5b 8d       	ldd	r21, Y+27	; 0x1b
    2b06:	8a 85       	ldd	r24, Y+10	; 0x0a
    2b08:	9b 85       	ldd	r25, Y+11	; 0x0b
    2b0a:	ac 85       	ldd	r26, Y+12	; 0x0c
    2b0c:	bd 85       	ldd	r27, Y+13	; 0x0d
    2b0e:	28 17       	cp	r18, r24
    2b10:	39 07       	cpc	r19, r25
    2b12:	4a 07       	cpc	r20, r26
    2b14:	5b 07       	cpc	r21, r27
    2b16:	10 f4       	brcc	.+4      	; 0x2b1c <usart_set_baudrate+0xe8>
    2b18:	80 e0       	ldi	r24, 0x00	; 0
    2b1a:	40 c1       	rjmp	.+640    	; 0x2d9c <usart_set_baudrate+0x368>
    2b1c:	8e 89       	ldd	r24, Y+22	; 0x16
    2b1e:	9f 89       	ldd	r25, Y+23	; 0x17
    2b20:	fc 01       	movw	r30, r24
    2b22:	84 81       	ldd	r24, Z+4	; 0x04
    2b24:	88 2f       	mov	r24, r24
    2b26:	90 e0       	ldi	r25, 0x00	; 0
    2b28:	84 70       	andi	r24, 0x04	; 4
    2b2a:	99 27       	eor	r25, r25
    2b2c:	89 2b       	or	r24, r25
    2b2e:	61 f4       	brne	.+24     	; 0x2b48 <usart_set_baudrate+0x114>
    2b30:	88 8d       	ldd	r24, Y+24	; 0x18
    2b32:	99 8d       	ldd	r25, Y+25	; 0x19
    2b34:	aa 8d       	ldd	r26, Y+26	; 0x1a
    2b36:	bb 8d       	ldd	r27, Y+27	; 0x1b
    2b38:	88 0f       	add	r24, r24
    2b3a:	99 1f       	adc	r25, r25
    2b3c:	aa 1f       	adc	r26, r26
    2b3e:	bb 1f       	adc	r27, r27
    2b40:	88 8f       	std	Y+24, r24	; 0x18
    2b42:	99 8f       	std	Y+25, r25	; 0x19
    2b44:	aa 8f       	std	Y+26, r26	; 0x1a
    2b46:	bb 8f       	std	Y+27, r27	; 0x1b
    2b48:	8f ef       	ldi	r24, 0xFF	; 255
    2b4a:	90 e0       	ldi	r25, 0x00	; 0
    2b4c:	a0 e0       	ldi	r26, 0x00	; 0
    2b4e:	b0 e0       	ldi	r27, 0x00	; 0
    2b50:	8e 83       	std	Y+6, r24	; 0x06
    2b52:	9f 83       	std	Y+7, r25	; 0x07
    2b54:	a8 87       	std	Y+8, r26	; 0x08
    2b56:	b9 87       	std	Y+9, r27	; 0x09
    2b58:	8c 8d       	ldd	r24, Y+28	; 0x1c
    2b5a:	9d 8d       	ldd	r25, Y+29	; 0x1d
    2b5c:	ae 8d       	ldd	r26, Y+30	; 0x1e
    2b5e:	bf 8d       	ldd	r27, Y+31	; 0x1f
    2b60:	28 8d       	ldd	r18, Y+24	; 0x18
    2b62:	39 8d       	ldd	r19, Y+25	; 0x19
    2b64:	4a 8d       	ldd	r20, Y+26	; 0x1a
    2b66:	5b 8d       	ldd	r21, Y+27	; 0x1b
    2b68:	bc 01       	movw	r22, r24
    2b6a:	cd 01       	movw	r24, r26
    2b6c:	0e 94 ca 3c 	call	0x7994	; 0x7994 <__udivmodsi4>
    2b70:	da 01       	movw	r26, r20
    2b72:	c9 01       	movw	r24, r18
    2b74:	8a 8b       	std	Y+18, r24	; 0x12
    2b76:	9b 8b       	std	Y+19, r25	; 0x13
    2b78:	ac 8b       	std	Y+20, r26	; 0x14
    2b7a:	bd 8b       	std	Y+21, r27	; 0x15
    2b7c:	89 ef       	ldi	r24, 0xF9	; 249
    2b7e:	89 83       	std	Y+1, r24	; 0x01
    2b80:	28 c0       	rjmp	.+80     	; 0x2bd2 <usart_set_baudrate+0x19e>
    2b82:	2a 89       	ldd	r18, Y+18	; 0x12
    2b84:	3b 89       	ldd	r19, Y+19	; 0x13
    2b86:	4c 89       	ldd	r20, Y+20	; 0x14
    2b88:	5d 89       	ldd	r21, Y+21	; 0x15
    2b8a:	8e 81       	ldd	r24, Y+6	; 0x06
    2b8c:	9f 81       	ldd	r25, Y+7	; 0x07
    2b8e:	a8 85       	ldd	r26, Y+8	; 0x08
    2b90:	b9 85       	ldd	r27, Y+9	; 0x09
    2b92:	28 17       	cp	r18, r24
    2b94:	39 07       	cpc	r19, r25
    2b96:	4a 07       	cpc	r20, r26
    2b98:	5b 07       	cpc	r21, r27
    2b9a:	f8 f0       	brcs	.+62     	; 0x2bda <usart_set_baudrate+0x1a6>
    2b9c:	8e 81       	ldd	r24, Y+6	; 0x06
    2b9e:	9f 81       	ldd	r25, Y+7	; 0x07
    2ba0:	a8 85       	ldd	r26, Y+8	; 0x08
    2ba2:	b9 85       	ldd	r27, Y+9	; 0x09
    2ba4:	88 0f       	add	r24, r24
    2ba6:	99 1f       	adc	r25, r25
    2ba8:	aa 1f       	adc	r26, r26
    2baa:	bb 1f       	adc	r27, r27
    2bac:	8e 83       	std	Y+6, r24	; 0x06
    2bae:	9f 83       	std	Y+7, r25	; 0x07
    2bb0:	a8 87       	std	Y+8, r26	; 0x08
    2bb2:	b9 87       	std	Y+9, r27	; 0x09
    2bb4:	89 81       	ldd	r24, Y+1	; 0x01
    2bb6:	8d 3f       	cpi	r24, 0xFD	; 253
    2bb8:	4c f4       	brge	.+18     	; 0x2bcc <usart_set_baudrate+0x198>
    2bba:	8e 81       	ldd	r24, Y+6	; 0x06
    2bbc:	9f 81       	ldd	r25, Y+7	; 0x07
    2bbe:	a8 85       	ldd	r26, Y+8	; 0x08
    2bc0:	b9 85       	ldd	r27, Y+9	; 0x09
    2bc2:	81 60       	ori	r24, 0x01	; 1
    2bc4:	8e 83       	std	Y+6, r24	; 0x06
    2bc6:	9f 83       	std	Y+7, r25	; 0x07
    2bc8:	a8 87       	std	Y+8, r26	; 0x08
    2bca:	b9 87       	std	Y+9, r27	; 0x09
    2bcc:	89 81       	ldd	r24, Y+1	; 0x01
    2bce:	8f 5f       	subi	r24, 0xFF	; 255
    2bd0:	89 83       	std	Y+1, r24	; 0x01
    2bd2:	89 81       	ldd	r24, Y+1	; 0x01
    2bd4:	87 30       	cpi	r24, 0x07	; 7
    2bd6:	ac f2       	brlt	.-86     	; 0x2b82 <usart_set_baudrate+0x14e>
    2bd8:	01 c0       	rjmp	.+2      	; 0x2bdc <usart_set_baudrate+0x1a8>
    2bda:	00 00       	nop
    2bdc:	89 81       	ldd	r24, Y+1	; 0x01
    2bde:	88 23       	and	r24, r24
    2be0:	0c f0       	brlt	.+2      	; 0x2be4 <usart_set_baudrate+0x1b0>
    2be2:	8a c0       	rjmp	.+276    	; 0x2cf8 <usart_set_baudrate+0x2c4>
    2be4:	88 8d       	ldd	r24, Y+24	; 0x18
    2be6:	99 8d       	ldd	r25, Y+25	; 0x19
    2be8:	aa 8d       	ldd	r26, Y+26	; 0x1a
    2bea:	bb 8d       	ldd	r27, Y+27	; 0x1b
    2bec:	88 0f       	add	r24, r24
    2bee:	99 1f       	adc	r25, r25
    2bf0:	aa 1f       	adc	r26, r26
    2bf2:	bb 1f       	adc	r27, r27
    2bf4:	88 0f       	add	r24, r24
    2bf6:	99 1f       	adc	r25, r25
    2bf8:	aa 1f       	adc	r26, r26
    2bfa:	bb 1f       	adc	r27, r27
    2bfc:	88 0f       	add	r24, r24
    2bfe:	99 1f       	adc	r25, r25
    2c00:	aa 1f       	adc	r26, r26
    2c02:	bb 1f       	adc	r27, r27
    2c04:	9c 01       	movw	r18, r24
    2c06:	ad 01       	movw	r20, r26
    2c08:	8c 8d       	ldd	r24, Y+28	; 0x1c
    2c0a:	9d 8d       	ldd	r25, Y+29	; 0x1d
    2c0c:	ae 8d       	ldd	r26, Y+30	; 0x1e
    2c0e:	bf 8d       	ldd	r27, Y+31	; 0x1f
    2c10:	82 1b       	sub	r24, r18
    2c12:	93 0b       	sbc	r25, r19
    2c14:	a4 0b       	sbc	r26, r20
    2c16:	b5 0b       	sbc	r27, r21
    2c18:	8c 8f       	std	Y+28, r24	; 0x1c
    2c1a:	9d 8f       	std	Y+29, r25	; 0x1d
    2c1c:	ae 8f       	std	Y+30, r26	; 0x1e
    2c1e:	bf 8f       	std	Y+31, r27	; 0x1f
    2c20:	89 81       	ldd	r24, Y+1	; 0x01
    2c22:	8e 3f       	cpi	r24, 0xFE	; 254
    2c24:	94 f5       	brge	.+100    	; 0x2c8a <usart_set_baudrate+0x256>
    2c26:	89 81       	ldd	r24, Y+1	; 0x01
    2c28:	08 2e       	mov	r0, r24
    2c2a:	00 0c       	add	r0, r0
    2c2c:	99 0b       	sbc	r25, r25
    2c2e:	2d ef       	ldi	r18, 0xFD	; 253
    2c30:	3f ef       	ldi	r19, 0xFF	; 255
    2c32:	28 1b       	sub	r18, r24
    2c34:	39 0b       	sbc	r19, r25
    2c36:	8c 8d       	ldd	r24, Y+28	; 0x1c
    2c38:	9d 8d       	ldd	r25, Y+29	; 0x1d
    2c3a:	ae 8d       	ldd	r26, Y+30	; 0x1e
    2c3c:	bf 8d       	ldd	r27, Y+31	; 0x1f
    2c3e:	7c 01       	movw	r14, r24
    2c40:	8d 01       	movw	r16, r26
    2c42:	04 c0       	rjmp	.+8      	; 0x2c4c <usart_set_baudrate+0x218>
    2c44:	ee 0c       	add	r14, r14
    2c46:	ff 1c       	adc	r15, r15
    2c48:	00 1f       	adc	r16, r16
    2c4a:	11 1f       	adc	r17, r17
    2c4c:	2a 95       	dec	r18
    2c4e:	d2 f7       	brpl	.-12     	; 0x2c44 <usart_set_baudrate+0x210>
    2c50:	a8 01       	movw	r20, r16
    2c52:	97 01       	movw	r18, r14
    2c54:	88 8d       	ldd	r24, Y+24	; 0x18
    2c56:	99 8d       	ldd	r25, Y+25	; 0x19
    2c58:	aa 8d       	ldd	r26, Y+26	; 0x1a
    2c5a:	bb 8d       	ldd	r27, Y+27	; 0x1b
    2c5c:	b6 95       	lsr	r27
    2c5e:	a7 95       	ror	r26
    2c60:	97 95       	ror	r25
    2c62:	87 95       	ror	r24
    2c64:	82 0f       	add	r24, r18
    2c66:	93 1f       	adc	r25, r19
    2c68:	a4 1f       	adc	r26, r20
    2c6a:	b5 1f       	adc	r27, r21
    2c6c:	28 8d       	ldd	r18, Y+24	; 0x18
    2c6e:	39 8d       	ldd	r19, Y+25	; 0x19
    2c70:	4a 8d       	ldd	r20, Y+26	; 0x1a
    2c72:	5b 8d       	ldd	r21, Y+27	; 0x1b
    2c74:	bc 01       	movw	r22, r24
    2c76:	cd 01       	movw	r24, r26
    2c78:	0e 94 ca 3c 	call	0x7994	; 0x7994 <__udivmodsi4>
    2c7c:	da 01       	movw	r26, r20
    2c7e:	c9 01       	movw	r24, r18
    2c80:	8a 83       	std	Y+2, r24	; 0x02
    2c82:	9b 83       	std	Y+3, r25	; 0x03
    2c84:	ac 83       	std	Y+4, r26	; 0x04
    2c86:	bd 83       	std	Y+5, r27	; 0x05
    2c88:	70 c0       	rjmp	.+224    	; 0x2d6a <usart_set_baudrate+0x336>
    2c8a:	89 81       	ldd	r24, Y+1	; 0x01
    2c8c:	08 2e       	mov	r0, r24
    2c8e:	00 0c       	add	r0, r0
    2c90:	99 0b       	sbc	r25, r25
    2c92:	9c 01       	movw	r18, r24
    2c94:	2d 5f       	subi	r18, 0xFD	; 253
    2c96:	3f 4f       	sbci	r19, 0xFF	; 255
    2c98:	88 8d       	ldd	r24, Y+24	; 0x18
    2c9a:	99 8d       	ldd	r25, Y+25	; 0x19
    2c9c:	aa 8d       	ldd	r26, Y+26	; 0x1a
    2c9e:	bb 8d       	ldd	r27, Y+27	; 0x1b
    2ca0:	04 c0       	rjmp	.+8      	; 0x2caa <usart_set_baudrate+0x276>
    2ca2:	88 0f       	add	r24, r24
    2ca4:	99 1f       	adc	r25, r25
    2ca6:	aa 1f       	adc	r26, r26
    2ca8:	bb 1f       	adc	r27, r27
    2caa:	2a 95       	dec	r18
    2cac:	d2 f7       	brpl	.-12     	; 0x2ca2 <usart_set_baudrate+0x26e>
    2cae:	88 8f       	std	Y+24, r24	; 0x18
    2cb0:	99 8f       	std	Y+25, r25	; 0x19
    2cb2:	aa 8f       	std	Y+26, r26	; 0x1a
    2cb4:	bb 8f       	std	Y+27, r27	; 0x1b
    2cb6:	88 8d       	ldd	r24, Y+24	; 0x18
    2cb8:	99 8d       	ldd	r25, Y+25	; 0x19
    2cba:	aa 8d       	ldd	r26, Y+26	; 0x1a
    2cbc:	bb 8d       	ldd	r27, Y+27	; 0x1b
    2cbe:	9c 01       	movw	r18, r24
    2cc0:	ad 01       	movw	r20, r26
    2cc2:	56 95       	lsr	r21
    2cc4:	47 95       	ror	r20
    2cc6:	37 95       	ror	r19
    2cc8:	27 95       	ror	r18
    2cca:	8c 8d       	ldd	r24, Y+28	; 0x1c
    2ccc:	9d 8d       	ldd	r25, Y+29	; 0x1d
    2cce:	ae 8d       	ldd	r26, Y+30	; 0x1e
    2cd0:	bf 8d       	ldd	r27, Y+31	; 0x1f
    2cd2:	82 0f       	add	r24, r18
    2cd4:	93 1f       	adc	r25, r19
    2cd6:	a4 1f       	adc	r26, r20
    2cd8:	b5 1f       	adc	r27, r21
    2cda:	28 8d       	ldd	r18, Y+24	; 0x18
    2cdc:	39 8d       	ldd	r19, Y+25	; 0x19
    2cde:	4a 8d       	ldd	r20, Y+26	; 0x1a
    2ce0:	5b 8d       	ldd	r21, Y+27	; 0x1b
    2ce2:	bc 01       	movw	r22, r24
    2ce4:	cd 01       	movw	r24, r26
    2ce6:	0e 94 ca 3c 	call	0x7994	; 0x7994 <__udivmodsi4>
    2cea:	da 01       	movw	r26, r20
    2cec:	c9 01       	movw	r24, r18
    2cee:	8a 83       	std	Y+2, r24	; 0x02
    2cf0:	9b 83       	std	Y+3, r25	; 0x03
    2cf2:	ac 83       	std	Y+4, r26	; 0x04
    2cf4:	bd 83       	std	Y+5, r27	; 0x05
    2cf6:	39 c0       	rjmp	.+114    	; 0x2d6a <usart_set_baudrate+0x336>
    2cf8:	89 81       	ldd	r24, Y+1	; 0x01
    2cfa:	08 2e       	mov	r0, r24
    2cfc:	00 0c       	add	r0, r0
    2cfe:	99 0b       	sbc	r25, r25
    2d00:	9c 01       	movw	r18, r24
    2d02:	2d 5f       	subi	r18, 0xFD	; 253
    2d04:	3f 4f       	sbci	r19, 0xFF	; 255
    2d06:	88 8d       	ldd	r24, Y+24	; 0x18
    2d08:	99 8d       	ldd	r25, Y+25	; 0x19
    2d0a:	aa 8d       	ldd	r26, Y+26	; 0x1a
    2d0c:	bb 8d       	ldd	r27, Y+27	; 0x1b
    2d0e:	04 c0       	rjmp	.+8      	; 0x2d18 <usart_set_baudrate+0x2e4>
    2d10:	88 0f       	add	r24, r24
    2d12:	99 1f       	adc	r25, r25
    2d14:	aa 1f       	adc	r26, r26
    2d16:	bb 1f       	adc	r27, r27
    2d18:	2a 95       	dec	r18
    2d1a:	d2 f7       	brpl	.-12     	; 0x2d10 <usart_set_baudrate+0x2dc>
    2d1c:	88 8f       	std	Y+24, r24	; 0x18
    2d1e:	99 8f       	std	Y+25, r25	; 0x19
    2d20:	aa 8f       	std	Y+26, r26	; 0x1a
    2d22:	bb 8f       	std	Y+27, r27	; 0x1b
    2d24:	88 8d       	ldd	r24, Y+24	; 0x18
    2d26:	99 8d       	ldd	r25, Y+25	; 0x19
    2d28:	aa 8d       	ldd	r26, Y+26	; 0x1a
    2d2a:	bb 8d       	ldd	r27, Y+27	; 0x1b
    2d2c:	9c 01       	movw	r18, r24
    2d2e:	ad 01       	movw	r20, r26
    2d30:	56 95       	lsr	r21
    2d32:	47 95       	ror	r20
    2d34:	37 95       	ror	r19
    2d36:	27 95       	ror	r18
    2d38:	8c 8d       	ldd	r24, Y+28	; 0x1c
    2d3a:	9d 8d       	ldd	r25, Y+29	; 0x1d
    2d3c:	ae 8d       	ldd	r26, Y+30	; 0x1e
    2d3e:	bf 8d       	ldd	r27, Y+31	; 0x1f
    2d40:	82 0f       	add	r24, r18
    2d42:	93 1f       	adc	r25, r19
    2d44:	a4 1f       	adc	r26, r20
    2d46:	b5 1f       	adc	r27, r21
    2d48:	28 8d       	ldd	r18, Y+24	; 0x18
    2d4a:	39 8d       	ldd	r19, Y+25	; 0x19
    2d4c:	4a 8d       	ldd	r20, Y+26	; 0x1a
    2d4e:	5b 8d       	ldd	r21, Y+27	; 0x1b
    2d50:	bc 01       	movw	r22, r24
    2d52:	cd 01       	movw	r24, r26
    2d54:	0e 94 ca 3c 	call	0x7994	; 0x7994 <__udivmodsi4>
    2d58:	da 01       	movw	r26, r20
    2d5a:	c9 01       	movw	r24, r18
    2d5c:	01 97       	sbiw	r24, 0x01	; 1
    2d5e:	a1 09       	sbc	r26, r1
    2d60:	b1 09       	sbc	r27, r1
    2d62:	8a 83       	std	Y+2, r24	; 0x02
    2d64:	9b 83       	std	Y+3, r25	; 0x03
    2d66:	ac 83       	std	Y+4, r26	; 0x04
    2d68:	bd 83       	std	Y+5, r27	; 0x05
    2d6a:	8a 81       	ldd	r24, Y+2	; 0x02
    2d6c:	9b 81       	ldd	r25, Y+3	; 0x03
    2d6e:	ac 81       	ldd	r26, Y+4	; 0x04
    2d70:	bd 81       	ldd	r27, Y+5	; 0x05
    2d72:	89 2f       	mov	r24, r25
    2d74:	9a 2f       	mov	r25, r26
    2d76:	ab 2f       	mov	r26, r27
    2d78:	bb 27       	eor	r27, r27
    2d7a:	98 2f       	mov	r25, r24
    2d7c:	9f 70       	andi	r25, 0x0F	; 15
    2d7e:	89 81       	ldd	r24, Y+1	; 0x01
    2d80:	82 95       	swap	r24
    2d82:	80 7f       	andi	r24, 0xF0	; 240
    2d84:	29 2f       	mov	r18, r25
    2d86:	28 2b       	or	r18, r24
    2d88:	8e 89       	ldd	r24, Y+22	; 0x16
    2d8a:	9f 89       	ldd	r25, Y+23	; 0x17
    2d8c:	fc 01       	movw	r30, r24
    2d8e:	27 83       	std	Z+7, r18	; 0x07
    2d90:	2a 81       	ldd	r18, Y+2	; 0x02
    2d92:	8e 89       	ldd	r24, Y+22	; 0x16
    2d94:	9f 89       	ldd	r25, Y+23	; 0x17
    2d96:	fc 01       	movw	r30, r24
    2d98:	26 83       	std	Z+6, r18	; 0x06
    2d9a:	81 e0       	ldi	r24, 0x01	; 1
    2d9c:	6f 96       	adiw	r28, 0x1f	; 31
    2d9e:	cd bf       	out	0x3d, r28	; 61
    2da0:	de bf       	out	0x3e, r29	; 62
    2da2:	df 91       	pop	r29
    2da4:	cf 91       	pop	r28
    2da6:	1f 91       	pop	r17
    2da8:	0f 91       	pop	r16
    2daa:	ff 90       	pop	r15
    2dac:	ef 90       	pop	r14
    2dae:	08 95       	ret

00002db0 <ioport_configure_pin>:
    2db0:	cf 93       	push	r28
    2db2:	df 93       	push	r29
    2db4:	cd b7       	in	r28, 0x3d	; 61
    2db6:	de b7       	in	r29, 0x3e	; 62
    2db8:	27 97       	sbiw	r28, 0x07	; 7
    2dba:	cd bf       	out	0x3d, r28	; 61
    2dbc:	de bf       	out	0x3e, r29	; 62
    2dbe:	8d 83       	std	Y+5, r24	; 0x05
    2dc0:	6e 83       	std	Y+6, r22	; 0x06
    2dc2:	7f 83       	std	Y+7, r23	; 0x07
    2dc4:	8d 81       	ldd	r24, Y+5	; 0x05
    2dc6:	89 83       	std	Y+1, r24	; 0x01
    2dc8:	89 81       	ldd	r24, Y+1	; 0x01
    2dca:	88 2f       	mov	r24, r24
    2dcc:	90 e0       	ldi	r25, 0x00	; 0
    2dce:	9c 01       	movw	r18, r24
    2dd0:	27 70       	andi	r18, 0x07	; 7
    2dd2:	33 27       	eor	r19, r19
    2dd4:	81 e0       	ldi	r24, 0x01	; 1
    2dd6:	90 e0       	ldi	r25, 0x00	; 0
    2dd8:	02 c0       	rjmp	.+4      	; 0x2dde <ioport_configure_pin+0x2e>
    2dda:	88 0f       	add	r24, r24
    2ddc:	99 1f       	adc	r25, r25
    2dde:	2a 95       	dec	r18
    2de0:	e2 f7       	brpl	.-8      	; 0x2dda <ioport_configure_pin+0x2a>
    2de2:	68 2f       	mov	r22, r24
    2de4:	8d 81       	ldd	r24, Y+5	; 0x05
    2de6:	8a 83       	std	Y+2, r24	; 0x02
    2de8:	8a 81       	ldd	r24, Y+2	; 0x02
    2dea:	8b 83       	std	Y+3, r24	; 0x03
    2dec:	8b 81       	ldd	r24, Y+3	; 0x03
    2dee:	86 95       	lsr	r24
    2df0:	86 95       	lsr	r24
    2df2:	86 95       	lsr	r24
    2df4:	8c 83       	std	Y+4, r24	; 0x04
    2df6:	8c 81       	ldd	r24, Y+4	; 0x04
    2df8:	88 2f       	mov	r24, r24
    2dfa:	90 e0       	ldi	r25, 0x00	; 0
    2dfc:	88 0f       	add	r24, r24
    2dfe:	99 1f       	adc	r25, r25
    2e00:	82 95       	swap	r24
    2e02:	92 95       	swap	r25
    2e04:	90 7f       	andi	r25, 0xF0	; 240
    2e06:	98 27       	eor	r25, r24
    2e08:	80 7f       	andi	r24, 0xF0	; 240
    2e0a:	98 27       	eor	r25, r24
    2e0c:	9a 5f       	subi	r25, 0xFA	; 250
    2e0e:	9c 01       	movw	r18, r24
    2e10:	8e 81       	ldd	r24, Y+6	; 0x06
    2e12:	9f 81       	ldd	r25, Y+7	; 0x07
    2e14:	ac 01       	movw	r20, r24
    2e16:	c9 01       	movw	r24, r18
    2e18:	0e 94 cf 20 	call	0x419e	; 0x419e <ioport_configure_port_pin>
    2e1c:	00 00       	nop
    2e1e:	27 96       	adiw	r28, 0x07	; 7
    2e20:	cd bf       	out	0x3d, r28	; 61
    2e22:	de bf       	out	0x3e, r29	; 62
    2e24:	df 91       	pop	r29
    2e26:	cf 91       	pop	r28
    2e28:	08 95       	ret

00002e2a <board_init>:
    2e2a:	cf 93       	push	r28
    2e2c:	df 93       	push	r29
    2e2e:	cd b7       	in	r28, 0x3d	; 61
    2e30:	de b7       	in	r29, 0x3e	; 62
    2e32:	61 e0       	ldi	r22, 0x01	; 1
    2e34:	70 e0       	ldi	r23, 0x00	; 0
    2e36:	80 e1       	ldi	r24, 0x10	; 16
    2e38:	bb df       	rcall	.-138    	; 0x2db0 <ioport_configure_pin>
    2e3a:	61 e0       	ldi	r22, 0x01	; 1
    2e3c:	70 e0       	ldi	r23, 0x00	; 0
    2e3e:	81 e1       	ldi	r24, 0x11	; 17
    2e40:	b7 df       	rcall	.-146    	; 0x2db0 <ioport_configure_pin>
    2e42:	60 e0       	ldi	r22, 0x00	; 0
    2e44:	70 e0       	ldi	r23, 0x00	; 0
    2e46:	80 e0       	ldi	r24, 0x00	; 0
    2e48:	b3 df       	rcall	.-154    	; 0x2db0 <ioport_configure_pin>
    2e4a:	60 e0       	ldi	r22, 0x00	; 0
    2e4c:	70 e0       	ldi	r23, 0x00	; 0
    2e4e:	8a e1       	ldi	r24, 0x1A	; 26
    2e50:	af df       	rcall	.-162    	; 0x2db0 <ioport_configure_pin>
    2e52:	61 e0       	ldi	r22, 0x01	; 1
    2e54:	70 e0       	ldi	r23, 0x00	; 0
    2e56:	8b e1       	ldi	r24, 0x1B	; 27
    2e58:	ab df       	rcall	.-170    	; 0x2db0 <ioport_configure_pin>
    2e5a:	60 e0       	ldi	r22, 0x00	; 0
    2e5c:	70 e0       	ldi	r23, 0x00	; 0
    2e5e:	8a e2       	ldi	r24, 0x2A	; 42
    2e60:	a7 df       	rcall	.-178    	; 0x2db0 <ioport_configure_pin>
    2e62:	61 e0       	ldi	r22, 0x01	; 1
    2e64:	70 e0       	ldi	r23, 0x00	; 0
    2e66:	8b e2       	ldi	r24, 0x2B	; 43
    2e68:	a3 df       	rcall	.-186    	; 0x2db0 <ioport_configure_pin>
    2e6a:	00 00       	nop
    2e6c:	df 91       	pop	r29
    2e6e:	cf 91       	pop	r28
    2e70:	08 95       	ret

00002e72 <sleep_set_mode>:
    2e72:	cf 93       	push	r28
// write a numeric value to the debug uart
void uart_print_value (uint16_t value) {
	char buffer[9];
	itoa((long)value, buffer, 10);
	uart_puts(buffer);
}
    2e74:	df 93       	push	r29
    2e76:	1f 92       	push	r1
    2e78:	cd b7       	in	r28, 0x3d	; 61
    2e7a:	de b7       	in	r29, 0x3e	; 62
    2e7c:	89 83       	std	Y+1, r24	; 0x01
    2e7e:	88 e4       	ldi	r24, 0x48	; 72
    2e80:	90 e0       	ldi	r25, 0x00	; 0
    2e82:	28 e4       	ldi	r18, 0x48	; 72
    2e84:	30 e0       	ldi	r19, 0x00	; 0
    2e86:	f9 01       	movw	r30, r18
    2e88:	20 81       	ld	r18, Z
    2e8a:	32 2f       	mov	r19, r18
    2e8c:	31 7f       	andi	r19, 0xF1	; 241
    2e8e:	29 81       	ldd	r18, Y+1	; 0x01
    2e90:	23 2b       	or	r18, r19
    2e92:	fc 01       	movw	r30, r24
    2e94:	20 83       	st	Z, r18
    2e96:	00 00       	nop
    2e98:	0f 90       	pop	r0
    2e9a:	df 91       	pop	r29
    2e9c:	cf 91       	pop	r28
    2e9e:	08 95       	ret

00002ea0 <sleepmgr_sleep>:
    2ea0:	cf 93       	push	r28
    2ea2:	df 93       	push	r29
    2ea4:	1f 92       	push	r1
    2ea6:	cd b7       	in	r28, 0x3d	; 61
    2ea8:	de b7       	in	r29, 0x3e	; 62
    2eaa:	89 83       	std	Y+1, r24	; 0x01
    2eac:	89 81       	ldd	r24, Y+1	; 0x01
    2eae:	88 2f       	mov	r24, r24
    2eb0:	90 e0       	ldi	r25, 0x00	; 0
    2eb2:	01 97       	sbiw	r24, 0x01	; 1
    2eb4:	82 5f       	subi	r24, 0xF2	; 242
    2eb6:	9f 4d       	sbci	r25, 0xDF	; 223
    2eb8:	fc 01       	movw	r30, r24
    2eba:	80 81       	ld	r24, Z
    2ebc:	da df       	rcall	.-76     	; 0x2e72 <sleep_set_mode>
    2ebe:	88 e4       	ldi	r24, 0x48	; 72
    2ec0:	90 e0       	ldi	r25, 0x00	; 0
    2ec2:	28 e4       	ldi	r18, 0x48	; 72
    2ec4:	30 e0       	ldi	r19, 0x00	; 0
    2ec6:	f9 01       	movw	r30, r18
    2ec8:	20 81       	ld	r18, Z
    2eca:	21 60       	ori	r18, 0x01	; 1
    2ecc:	fc 01       	movw	r30, r24
    2ece:	20 83       	st	Z, r18
    2ed0:	78 94       	sei
    2ed2:	88 95       	sleep
    2ed4:	88 e4       	ldi	r24, 0x48	; 72
    2ed6:	90 e0       	ldi	r25, 0x00	; 0
    2ed8:	28 e4       	ldi	r18, 0x48	; 72
    2eda:	30 e0       	ldi	r19, 0x00	; 0
    2edc:	f9 01       	movw	r30, r18
    2ede:	20 81       	ld	r18, Z
    2ee0:	2e 7f       	andi	r18, 0xFE	; 254
    2ee2:	fc 01       	movw	r30, r24
    2ee4:	20 83       	st	Z, r18
    2ee6:	00 00       	nop
    2ee8:	0f 90       	pop	r0
    2eea:	df 91       	pop	r29
    2eec:	cf 91       	pop	r28
    2eee:	08 95       	ret

00002ef0 <sleepmgr_init>:
    2ef0:	cf 93       	push	r28
    2ef2:	df 93       	push	r29
    2ef4:	1f 92       	push	r1
    2ef6:	cd b7       	in	r28, 0x3d	; 61
    2ef8:	de b7       	in	r29, 0x3e	; 62
    2efa:	19 82       	std	Y+1, r1	; 0x01
    2efc:	0a c0       	rjmp	.+20     	; 0x2f12 <sleepmgr_init+0x22>
    2efe:	89 81       	ldd	r24, Y+1	; 0x01
    2f00:	88 2f       	mov	r24, r24
    2f02:	90 e0       	ldi	r25, 0x00	; 0
    2f04:	84 5b       	subi	r24, 0xB4	; 180
    2f06:	96 4d       	sbci	r25, 0xD6	; 214
    2f08:	fc 01       	movw	r30, r24
    2f0a:	10 82       	st	Z, r1
    2f0c:	89 81       	ldd	r24, Y+1	; 0x01
    2f0e:	8f 5f       	subi	r24, 0xFF	; 255
    2f10:	89 83       	std	Y+1, r24	; 0x01
    2f12:	89 81       	ldd	r24, Y+1	; 0x01
    2f14:	85 30       	cpi	r24, 0x05	; 5
    2f16:	98 f3       	brcs	.-26     	; 0x2efe <sleepmgr_init+0xe>
    2f18:	81 e0       	ldi	r24, 0x01	; 1
    2f1a:	80 93 51 29 	sts	0x2951, r24	; 0x802951 <sleepmgr_locks+0x5>
    2f1e:	00 00       	nop
    2f20:	0f 90       	pop	r0
    2f22:	df 91       	pop	r29
    2f24:	cf 91       	pop	r28
    2f26:	08 95       	ret

00002f28 <sleepmgr_get_sleep_mode>:
    2f28:	cf 93       	push	r28
    2f2a:	df 93       	push	r29
    2f2c:	00 d0       	rcall	.+0      	; 0x2f2e <sleepmgr_get_sleep_mode+0x6>
    2f2e:	cd b7       	in	r28, 0x3d	; 61
    2f30:	de b7       	in	r29, 0x3e	; 62
    2f32:	19 82       	std	Y+1, r1	; 0x01
    2f34:	8c e4       	ldi	r24, 0x4C	; 76
    2f36:	99 e2       	ldi	r25, 0x29	; 41
    2f38:	8a 83       	std	Y+2, r24	; 0x02
    2f3a:	9b 83       	std	Y+3, r25	; 0x03
    2f3c:	08 c0       	rjmp	.+16     	; 0x2f4e <sleepmgr_get_sleep_mode+0x26>
    2f3e:	8a 81       	ldd	r24, Y+2	; 0x02
    2f40:	9b 81       	ldd	r25, Y+3	; 0x03
    2f42:	01 96       	adiw	r24, 0x01	; 1
    2f44:	8a 83       	std	Y+2, r24	; 0x02
    2f46:	9b 83       	std	Y+3, r25	; 0x03
    2f48:	89 81       	ldd	r24, Y+1	; 0x01
    2f4a:	8f 5f       	subi	r24, 0xFF	; 255
    2f4c:	89 83       	std	Y+1, r24	; 0x01
    2f4e:	8a 81       	ldd	r24, Y+2	; 0x02
    2f50:	9b 81       	ldd	r25, Y+3	; 0x03
    2f52:	fc 01       	movw	r30, r24
    2f54:	80 81       	ld	r24, Z
    2f56:	88 23       	and	r24, r24
    2f58:	91 f3       	breq	.-28     	; 0x2f3e <sleepmgr_get_sleep_mode+0x16>
    2f5a:	89 81       	ldd	r24, Y+1	; 0x01
    2f5c:	23 96       	adiw	r28, 0x03	; 3
    2f5e:	cd bf       	out	0x3d, r28	; 61
    2f60:	de bf       	out	0x3e, r29	; 62
    2f62:	df 91       	pop	r29
    2f64:	cf 91       	pop	r28
    2f66:	08 95       	ret

00002f68 <sleepmgr_enter_sleep>:
    2f68:	cf 93       	push	r28
    2f6a:	df 93       	push	r29
    2f6c:	1f 92       	push	r1
    2f6e:	cd b7       	in	r28, 0x3d	; 61
    2f70:	de b7       	in	r29, 0x3e	; 62
    2f72:	f8 94       	cli
    2f74:	d9 df       	rcall	.-78     	; 0x2f28 <sleepmgr_get_sleep_mode>
    2f76:	89 83       	std	Y+1, r24	; 0x01
    2f78:	89 81       	ldd	r24, Y+1	; 0x01
    2f7a:	88 23       	and	r24, r24
    2f7c:	11 f4       	brne	.+4      	; 0x2f82 <sleepmgr_enter_sleep+0x1a>
    2f7e:	78 94       	sei
    2f80:	02 c0       	rjmp	.+4      	; 0x2f86 <sleepmgr_enter_sleep+0x1e>
    2f82:	89 81       	ldd	r24, Y+1	; 0x01
    2f84:	8d df       	rcall	.-230    	; 0x2ea0 <sleepmgr_sleep>
    2f86:	0f 90       	pop	r0
    2f88:	df 91       	pop	r29
    2f8a:	cf 91       	pop	r28
    2f8c:	08 95       	ret

00002f8e <sysclk_get_main_hz>:
    2f8e:	cf 93       	push	r28
    2f90:	df 93       	push	r29
    2f92:	cd b7       	in	r28, 0x3d	; 61
    2f94:	de b7       	in	r29, 0x3e	; 62
    2f96:	80 e0       	ldi	r24, 0x00	; 0
    2f98:	9c e6       	ldi	r25, 0x6C	; 108
    2f9a:	ac ed       	ldi	r26, 0xDC	; 220
    2f9c:	b2 e0       	ldi	r27, 0x02	; 2
    2f9e:	bc 01       	movw	r22, r24
    2fa0:	cd 01       	movw	r24, r26
    2fa2:	df 91       	pop	r29
    2fa4:	cf 91       	pop	r28
    2fa6:	08 95       	ret

00002fa8 <sysclk_get_per4_hz>:
    2fa8:	cf 93       	push	r28
    2faa:	df 93       	push	r29
    2fac:	1f 92       	push	r1
    2fae:	cd b7       	in	r28, 0x3d	; 61
    2fb0:	de b7       	in	r29, 0x3e	; 62
    2fb2:	19 82       	std	Y+1, r1	; 0x01
    2fb4:	81 e0       	ldi	r24, 0x01	; 1
    2fb6:	89 83       	std	Y+1, r24	; 0x01
    2fb8:	ea df       	rcall	.-44     	; 0x2f8e <sysclk_get_main_hz>
    2fba:	dc 01       	movw	r26, r24
    2fbc:	cb 01       	movw	r24, r22
    2fbe:	29 81       	ldd	r18, Y+1	; 0x01
    2fc0:	22 2f       	mov	r18, r18
    2fc2:	30 e0       	ldi	r19, 0x00	; 0
    2fc4:	04 c0       	rjmp	.+8      	; 0x2fce <sysclk_get_per4_hz+0x26>
    2fc6:	b6 95       	lsr	r27
    2fc8:	a7 95       	ror	r26
    2fca:	97 95       	ror	r25
    2fcc:	87 95       	ror	r24
    2fce:	2a 95       	dec	r18
    2fd0:	d2 f7       	brpl	.-12     	; 0x2fc6 <sysclk_get_per4_hz+0x1e>
    2fd2:	bc 01       	movw	r22, r24
    2fd4:	cd 01       	movw	r24, r26
    2fd6:	0f 90       	pop	r0
    2fd8:	df 91       	pop	r29
    2fda:	cf 91       	pop	r28
    2fdc:	08 95       	ret

00002fde <sysclk_get_per2_hz>:
    2fde:	cf 93       	push	r28
    2fe0:	df 93       	push	r29
    2fe2:	cd b7       	in	r28, 0x3d	; 61
    2fe4:	de b7       	in	r29, 0x3e	; 62
    2fe6:	e0 df       	rcall	.-64     	; 0x2fa8 <sysclk_get_per4_hz>
    2fe8:	dc 01       	movw	r26, r24
    2fea:	cb 01       	movw	r24, r22
    2fec:	bc 01       	movw	r22, r24
    2fee:	cd 01       	movw	r24, r26
    2ff0:	df 91       	pop	r29
    2ff2:	cf 91       	pop	r28
    2ff4:	08 95       	ret

00002ff6 <sysclk_get_per_hz>:
    2ff6:	cf 93       	push	r28
    2ff8:	df 93       	push	r29
    2ffa:	cd b7       	in	r28, 0x3d	; 61
    2ffc:	de b7       	in	r29, 0x3e	; 62
    2ffe:	ef df       	rcall	.-34     	; 0x2fde <sysclk_get_per2_hz>
    3000:	dc 01       	movw	r26, r24
    3002:	cb 01       	movw	r24, r22
    3004:	bc 01       	movw	r22, r24
    3006:	cd 01       	movw	r24, r26
    3008:	df 91       	pop	r29
    300a:	cf 91       	pop	r28
    300c:	08 95       	ret

0000300e <sysclk_get_cpu_hz>:
    300e:	cf 93       	push	r28
    3010:	df 93       	push	r29
    3012:	cd b7       	in	r28, 0x3d	; 61
    3014:	de b7       	in	r29, 0x3e	; 62
    3016:	ef df       	rcall	.-34     	; 0x2ff6 <sysclk_get_per_hz>
    3018:	dc 01       	movw	r26, r24
    301a:	cb 01       	movw	r24, r22
    301c:	bc 01       	movw	r22, r24
    301e:	cd 01       	movw	r24, r26
    3020:	df 91       	pop	r29
    3022:	cf 91       	pop	r28
    3024:	08 95       	ret

00003026 <__portable_avr_delay_cycles>:
    3026:	61 50       	subi	r22, 0x01	; 1
    3028:	71 09       	sbc	r23, r1
    302a:	81 09       	sbc	r24, r1
    302c:	91 09       	sbc	r25, r1
    302e:	d9 f7       	brne	.-10     	; 0x3026 <__portable_avr_delay_cycles>
    3030:	08 95       	ret

00003032 <pmic_init>:
    3032:	cf 93       	push	r28
    3034:	df 93       	push	r29
    3036:	cd b7       	in	r28, 0x3d	; 61
    3038:	de b7       	in	r29, 0x3e	; 62
    303a:	80 ea       	ldi	r24, 0xA0	; 160
    303c:	90 e0       	ldi	r25, 0x00	; 0
    303e:	27 e0       	ldi	r18, 0x07	; 7
    3040:	fc 01       	movw	r30, r24
    3042:	22 83       	std	Z+2, r18	; 0x02
    3044:	00 00       	nop
    3046:	df 91       	pop	r29
    3048:	cf 91       	pop	r28
    304a:	08 95       	ret

0000304c <tc_write_cc_buffer>:
    304c:	cf 93       	push	r28
    304e:	df 93       	push	r29
    3050:	cd b7       	in	r28, 0x3d	; 61
    3052:	de b7       	in	r29, 0x3e	; 62
    3054:	25 97       	sbiw	r28, 0x05	; 5
    3056:	cd bf       	out	0x3d, r28	; 61
    3058:	de bf       	out	0x3e, r29	; 62
    305a:	89 83       	std	Y+1, r24	; 0x01
    305c:	9a 83       	std	Y+2, r25	; 0x02
    305e:	6b 83       	std	Y+3, r22	; 0x03
    3060:	4c 83       	std	Y+4, r20	; 0x04
    3062:	5d 83       	std	Y+5, r21	; 0x05
    3064:	89 81       	ldd	r24, Y+1	; 0x01
    3066:	9a 81       	ldd	r25, Y+2	; 0x02
    3068:	80 74       	andi	r24, 0x40	; 64
    306a:	99 27       	eor	r25, r25
    306c:	89 2b       	or	r24, r25
    306e:	99 f5       	brne	.+102    	; 0x30d6 <tc_write_cc_buffer+0x8a>
    3070:	8b 81       	ldd	r24, Y+3	; 0x03
    3072:	88 2f       	mov	r24, r24
    3074:	90 e0       	ldi	r25, 0x00	; 0
    3076:	82 30       	cpi	r24, 0x02	; 2
    3078:	91 05       	cpc	r25, r1
    307a:	a1 f0       	breq	.+40     	; 0x30a4 <tc_write_cc_buffer+0x58>
    307c:	83 30       	cpi	r24, 0x03	; 3
    307e:	91 05       	cpc	r25, r1
    3080:	1c f4       	brge	.+6      	; 0x3088 <tc_write_cc_buffer+0x3c>
    3082:	01 97       	sbiw	r24, 0x01	; 1
    3084:	39 f0       	breq	.+14     	; 0x3094 <tc_write_cc_buffer+0x48>
    3086:	46 c0       	rjmp	.+140    	; 0x3114 <tc_write_cc_buffer+0xc8>
    3088:	83 30       	cpi	r24, 0x03	; 3
    308a:	91 05       	cpc	r25, r1
    308c:	99 f0       	breq	.+38     	; 0x30b4 <tc_write_cc_buffer+0x68>
    308e:	04 97       	sbiw	r24, 0x04	; 4
    3090:	c9 f0       	breq	.+50     	; 0x30c4 <tc_write_cc_buffer+0x78>
    3092:	40 c0       	rjmp	.+128    	; 0x3114 <tc_write_cc_buffer+0xc8>
    3094:	89 81       	ldd	r24, Y+1	; 0x01
    3096:	9a 81       	ldd	r25, Y+2	; 0x02
    3098:	2c 81       	ldd	r18, Y+4	; 0x04
    309a:	3d 81       	ldd	r19, Y+5	; 0x05
    309c:	fc 01       	movw	r30, r24
    309e:	20 af       	std	Z+56, r18	; 0x38
    30a0:	31 af       	std	Z+57, r19	; 0x39
    30a2:	38 c0       	rjmp	.+112    	; 0x3114 <tc_write_cc_buffer+0xc8>
    30a4:	89 81       	ldd	r24, Y+1	; 0x01
    30a6:	9a 81       	ldd	r25, Y+2	; 0x02
    30a8:	2c 81       	ldd	r18, Y+4	; 0x04
    30aa:	3d 81       	ldd	r19, Y+5	; 0x05
    30ac:	fc 01       	movw	r30, r24
    30ae:	22 af       	std	Z+58, r18	; 0x3a
    30b0:	33 af       	std	Z+59, r19	; 0x3b
    30b2:	30 c0       	rjmp	.+96     	; 0x3114 <tc_write_cc_buffer+0xc8>
    30b4:	89 81       	ldd	r24, Y+1	; 0x01
    30b6:	9a 81       	ldd	r25, Y+2	; 0x02
    30b8:	2c 81       	ldd	r18, Y+4	; 0x04
    30ba:	3d 81       	ldd	r19, Y+5	; 0x05
    30bc:	fc 01       	movw	r30, r24
    30be:	24 af       	std	Z+60, r18	; 0x3c
    30c0:	35 af       	std	Z+61, r19	; 0x3d
    30c2:	28 c0       	rjmp	.+80     	; 0x3114 <tc_write_cc_buffer+0xc8>
    30c4:	89 81       	ldd	r24, Y+1	; 0x01
    30c6:	9a 81       	ldd	r25, Y+2	; 0x02
    30c8:	2c 81       	ldd	r18, Y+4	; 0x04
    30ca:	3d 81       	ldd	r19, Y+5	; 0x05
    30cc:	fc 01       	movw	r30, r24
    30ce:	26 af       	std	Z+62, r18	; 0x3e
    30d0:	37 af       	std	Z+63, r19	; 0x3f
    30d2:	00 00       	nop
    30d4:	1f c0       	rjmp	.+62     	; 0x3114 <tc_write_cc_buffer+0xc8>
    30d6:	89 81       	ldd	r24, Y+1	; 0x01
    30d8:	9a 81       	ldd	r25, Y+2	; 0x02
    30da:	80 74       	andi	r24, 0x40	; 64
    30dc:	99 27       	eor	r25, r25
    30de:	89 2b       	or	r24, r25
    30e0:	c9 f0       	breq	.+50     	; 0x3114 <tc_write_cc_buffer+0xc8>
    30e2:	8b 81       	ldd	r24, Y+3	; 0x03
    30e4:	88 2f       	mov	r24, r24
    30e6:	90 e0       	ldi	r25, 0x00	; 0
    30e8:	81 30       	cpi	r24, 0x01	; 1
    30ea:	91 05       	cpc	r25, r1
    30ec:	19 f0       	breq	.+6      	; 0x30f4 <tc_write_cc_buffer+0xa8>
    30ee:	02 97       	sbiw	r24, 0x02	; 2
    30f0:	49 f0       	breq	.+18     	; 0x3104 <tc_write_cc_buffer+0xb8>
    30f2:	10 c0       	rjmp	.+32     	; 0x3114 <tc_write_cc_buffer+0xc8>
    30f4:	89 81       	ldd	r24, Y+1	; 0x01
    30f6:	9a 81       	ldd	r25, Y+2	; 0x02
    30f8:	2c 81       	ldd	r18, Y+4	; 0x04
    30fa:	3d 81       	ldd	r19, Y+5	; 0x05
    30fc:	fc 01       	movw	r30, r24
    30fe:	20 af       	std	Z+56, r18	; 0x38
    3100:	31 af       	std	Z+57, r19	; 0x39
    3102:	08 c0       	rjmp	.+16     	; 0x3114 <tc_write_cc_buffer+0xc8>
    3104:	89 81       	ldd	r24, Y+1	; 0x01
    3106:	9a 81       	ldd	r25, Y+2	; 0x02
    3108:	2c 81       	ldd	r18, Y+4	; 0x04
    310a:	3d 81       	ldd	r19, Y+5	; 0x05
    310c:	fc 01       	movw	r30, r24
    310e:	22 af       	std	Z+58, r18	; 0x3a
    3110:	33 af       	std	Z+59, r19	; 0x3b
    3112:	00 00       	nop
    3114:	25 96       	adiw	r28, 0x05	; 5
    3116:	cd bf       	out	0x3d, r28	; 61
    3118:	de bf       	out	0x3e, r29	; 62
    311a:	df 91       	pop	r29
    311c:	cf 91       	pop	r28
    311e:	08 95       	ret

00003120 <pwm_set_duty_cycle_percent>:
    3120:	cf 93       	push	r28
    3122:	df 93       	push	r29
    3124:	00 d0       	rcall	.+0      	; 0x3126 <pwm_set_duty_cycle_percent+0x6>
    3126:	cd b7       	in	r28, 0x3d	; 61
    3128:	de b7       	in	r29, 0x3e	; 62
    312a:	89 83       	std	Y+1, r24	; 0x01
    312c:	9a 83       	std	Y+2, r25	; 0x02
    312e:	6b 83       	std	Y+3, r22	; 0x03
    3130:	89 81       	ldd	r24, Y+1	; 0x01
    3132:	9a 81       	ldd	r25, Y+2	; 0x02
    3134:	fc 01       	movw	r30, r24
    3136:	85 81       	ldd	r24, Z+5	; 0x05
    3138:	96 81       	ldd	r25, Z+6	; 0x06
    313a:	9c 01       	movw	r18, r24
    313c:	40 e0       	ldi	r20, 0x00	; 0
    313e:	50 e0       	ldi	r21, 0x00	; 0
    3140:	8b 81       	ldd	r24, Y+3	; 0x03
    3142:	88 2f       	mov	r24, r24
    3144:	90 e0       	ldi	r25, 0x00	; 0
    3146:	a0 e0       	ldi	r26, 0x00	; 0
    3148:	b0 e0       	ldi	r27, 0x00	; 0
    314a:	bc 01       	movw	r22, r24
    314c:	cd 01       	movw	r24, r26
    314e:	0e 94 a7 3c 	call	0x794e	; 0x794e <__mulsi3>
    3152:	dc 01       	movw	r26, r24
    3154:	cb 01       	movw	r24, r22
    3156:	24 e6       	ldi	r18, 0x64	; 100
    3158:	30 e0       	ldi	r19, 0x00	; 0
    315a:	40 e0       	ldi	r20, 0x00	; 0
    315c:	50 e0       	ldi	r21, 0x00	; 0
    315e:	bc 01       	movw	r22, r24
    3160:	cd 01       	movw	r24, r26
    3162:	0e 94 ca 3c 	call	0x7994	; 0x7994 <__udivmodsi4>
    3166:	da 01       	movw	r26, r20
    3168:	c9 01       	movw	r24, r18
    316a:	9c 01       	movw	r18, r24
    316c:	89 81       	ldd	r24, Y+1	; 0x01
    316e:	9a 81       	ldd	r25, Y+2	; 0x02
    3170:	fc 01       	movw	r30, r24
    3172:	62 81       	ldd	r22, Z+2	; 0x02
    3174:	89 81       	ldd	r24, Y+1	; 0x01
    3176:	9a 81       	ldd	r25, Y+2	; 0x02
    3178:	fc 01       	movw	r30, r24
    317a:	80 81       	ld	r24, Z
    317c:	91 81       	ldd	r25, Z+1	; 0x01
    317e:	a9 01       	movw	r20, r18
    3180:	65 df       	rcall	.-310    	; 0x304c <tc_write_cc_buffer>
    3182:	00 00       	nop
    3184:	23 96       	adiw	r28, 0x03	; 3
    3186:	cd bf       	out	0x3d, r28	; 61
    3188:	de bf       	out	0x3e, r29	; 62
    318a:	df 91       	pop	r29
    318c:	cf 91       	pop	r28
    318e:	08 95       	ret

00003190 <lcd_puts>:
    3190:	cf 93       	push	r28
    3192:	df 93       	push	r29
    3194:	1f 92       	push	r1
    3196:	1f 92       	push	r1
    3198:	cd b7       	in	r28, 0x3d	; 61
    319a:	de b7       	in	r29, 0x3e	; 62
    319c:	89 83       	std	Y+1, r24	; 0x01
    319e:	9a 83       	std	Y+2, r25	; 0x02
    31a0:	0d c0       	rjmp	.+26     	; 0x31bc <lcd_puts+0x2c>
    31a2:	89 81       	ldd	r24, Y+1	; 0x01
    31a4:	9a 81       	ldd	r25, Y+2	; 0x02
    31a6:	9c 01       	movw	r18, r24
    31a8:	2f 5f       	subi	r18, 0xFF	; 255
    31aa:	3f 4f       	sbci	r19, 0xFF	; 255
    31ac:	29 83       	std	Y+1, r18	; 0x01
    31ae:	3a 83       	std	Y+2, r19	; 0x02
    31b0:	fc 01       	movw	r30, r24
    31b2:	80 81       	ld	r24, Z
    31b4:	68 2f       	mov	r22, r24
    31b6:	80 ea       	ldi	r24, 0xA0	; 160
    31b8:	9b e0       	ldi	r25, 0x0B	; 11
    31ba:	1e dc       	rcall	.-1988   	; 0x29f8 <usart_putchar>
    31bc:	89 81       	ldd	r24, Y+1	; 0x01
    31be:	9a 81       	ldd	r25, Y+2	; 0x02
    31c0:	fc 01       	movw	r30, r24
    31c2:	80 81       	ld	r24, Z
    31c4:	88 23       	and	r24, r24
    31c6:	69 f7       	brne	.-38     	; 0x31a2 <lcd_puts+0x12>
    31c8:	00 00       	nop
    31ca:	0f 90       	pop	r0
    31cc:	0f 90       	pop	r0
    31ce:	df 91       	pop	r29
    31d0:	cf 91       	pop	r28
    31d2:	08 95       	ret

000031d4 <process_command>:


//-----------------------------------------------------------------------------

void process_command()
{
    31d4:	cf 92       	push	r12
    31d6:	df 92       	push	r13
    31d8:	ef 92       	push	r14
    31da:	ff 92       	push	r15
    31dc:	cf 93       	push	r28
    31de:	df 93       	push	r29
    31e0:	cd b7       	in	r28, 0x3d	; 61
    31e2:	de b7       	in	r29, 0x3e	; 62
    31e4:	2c 97       	sbiw	r28, 0x0c	; 12
    31e6:	cd bf       	out	0x3d, r28	; 61
    31e8:	de bf       	out	0x3e, r29	; 62

	char command_string[4];
	switch (command_in[0]) {
    31ea:	80 91 ff 28 	lds	r24, 0x28FF	; 0x8028ff <command_in>
    31ee:	88 2f       	mov	r24, r24
    31f0:	90 e0       	ldi	r25, 0x00	; 0
    31f2:	87 36       	cpi	r24, 0x67	; 103
    31f4:	91 05       	cpc	r25, r1
    31f6:	09 f4       	brne	.+2      	; 0x31fa <process_command+0x26>
    31f8:	2f c3       	rjmp	.+1630   	; 0x3858 <process_command+0x684>
    31fa:	88 36       	cpi	r24, 0x68	; 104
    31fc:	91 05       	cpc	r25, r1
    31fe:	44 f4       	brge	.+16     	; 0x3210 <process_command+0x3c>
    3200:	84 36       	cpi	r24, 0x64	; 100
    3202:	91 05       	cpc	r25, r1
    3204:	d1 f1       	breq	.+116    	; 0x327a <process_command+0xa6>
    3206:	85 36       	cpi	r24, 0x65	; 101
    3208:	91 05       	cpc	r25, r1
    320a:	09 f4       	brne	.+2      	; 0x320e <process_command+0x3a>
    320c:	88 c0       	rjmp	.+272    	; 0x331e <process_command+0x14a>
    320e:	b3 c3       	rjmp	.+1894   	; 0x3976 <process_command+0x7a2>
    3210:	83 37       	cpi	r24, 0x73	; 115
    3212:	91 05       	cpc	r25, r1
    3214:	09 f4       	brne	.+2      	; 0x3218 <process_command+0x44>
    3216:	a7 c0       	rjmp	.+334    	; 0x3366 <process_command+0x192>
    3218:	86 37       	cpi	r24, 0x76	; 118
    321a:	91 05       	cpc	r25, r1
    321c:	09 f4       	brne	.+2      	; 0x3220 <process_command+0x4c>
    321e:	88 c0       	rjmp	.+272    	; 0x3330 <process_command+0x15c>
    3220:	88 36       	cpi	r24, 0x68	; 104
    3222:	91 05       	cpc	r25, r1
    3224:	09 f0       	breq	.+2      	; 0x3228 <process_command+0x54>
    3226:	a7 c3       	rjmp	.+1870   	; 0x3976 <process_command+0x7a2>
		
		case 'h': // Output help
		udi_cdc_puts("Help:");
    3228:	87 ef       	ldi	r24, 0xF7	; 247
    322a:	90 e2       	ldi	r25, 0x20	; 32
    322c:	0e 94 0a 09 	call	0x1214	; 0x1214 <udi_cdc_puts>
		udi_cdc_puts("\r\n");
    3230:	8d ef       	ldi	r24, 0xFD	; 253
    3232:	90 e2       	ldi	r25, 0x20	; 32
    3234:	0e 94 0a 09 	call	0x1214	; 0x1214 <udi_cdc_puts>
		udi_cdc_puts("'d' : disable pwms");
    3238:	80 e0       	ldi	r24, 0x00	; 0
    323a:	91 e2       	ldi	r25, 0x21	; 33
    323c:	0e 94 0a 09 	call	0x1214	; 0x1214 <udi_cdc_puts>
		udi_cdc_puts("\r\n");
    3240:	8d ef       	ldi	r24, 0xFD	; 253
    3242:	90 e2       	ldi	r25, 0x20	; 32
    3244:	0e 94 0a 09 	call	0x1214	; 0x1214 <udi_cdc_puts>
		udi_cdc_puts("'e' : enable pwms");
    3248:	83 e1       	ldi	r24, 0x13	; 19
    324a:	91 e2       	ldi	r25, 0x21	; 33
    324c:	0e 94 0a 09 	call	0x1214	; 0x1214 <udi_cdc_puts>
		udi_cdc_puts("\r\n");
    3250:	8d ef       	ldi	r24, 0xFD	; 253
    3252:	90 e2       	ldi	r25, 0x20	; 32
    3254:	0e 94 0a 09 	call	0x1214	; 0x1214 <udi_cdc_puts>
		udi_cdc_puts("'v' : toggle verbose output");
    3258:	85 e2       	ldi	r24, 0x25	; 37
    325a:	91 e2       	ldi	r25, 0x21	; 33
    325c:	0e 94 0a 09 	call	0x1214	; 0x1214 <udi_cdc_puts>
		udi_cdc_puts("\r\n");
    3260:	8d ef       	ldi	r24, 0xFD	; 253
    3262:	90 e2       	ldi	r25, 0x20	; 32
    3264:	0e 94 0a 09 	call	0x1214	; 0x1214 <udi_cdc_puts>
		udi_cdc_puts("'s=00' : pwm value in hex");
    3268:	81 e4       	ldi	r24, 0x41	; 65
    326a:	91 e2       	ldi	r25, 0x21	; 33
    326c:	0e 94 0a 09 	call	0x1214	; 0x1214 <udi_cdc_puts>
		udi_cdc_puts("\r\n");
    3270:	8d ef       	ldi	r24, 0xFD	; 253
    3272:	90 e2       	ldi	r25, 0x20	; 32
    3274:	0e 94 0a 09 	call	0x1214	; 0x1214 <udi_cdc_puts>
		break;
    3278:	8a c3       	rjmp	.+1812   	; 0x398e <process_command+0x7ba>
		
		case 'd': // disable pwms
			//pwm_refresh.enabled = 0;
			percent = 0;
    327a:	10 92 90 22 	sts	0x2290, r1	; 0x802290 <percent>
    327e:	10 92 91 22 	sts	0x2291, r1	; 0x802291 <percent+0x1>
    3282:	10 92 92 22 	sts	0x2292, r1	; 0x802292 <percent+0x2>
    3286:	10 92 93 22 	sts	0x2293, r1	; 0x802293 <percent+0x3>
			percentCompensated = 0;
    328a:	10 92 94 22 	sts	0x2294, r1	; 0x802294 <percentCompensated>
    328e:	10 92 95 22 	sts	0x2295, r1	; 0x802295 <percentCompensated+0x1>
    3292:	10 92 96 22 	sts	0x2296, r1	; 0x802296 <percentCompensated+0x2>
    3296:	10 92 97 22 	sts	0x2297, r1	; 0x802297 <percentCompensated+0x3>
			pwm1 = 0;
    329a:	10 92 88 22 	sts	0x2288, r1	; 0x802288 <pwm1>
    329e:	10 92 89 22 	sts	0x2289, r1	; 0x802289 <pwm1+0x1>
    32a2:	10 92 8a 22 	sts	0x228A, r1	; 0x80228a <pwm1+0x2>
    32a6:	10 92 8b 22 	sts	0x228B, r1	; 0x80228b <pwm1+0x3>
			pwm2 = 0;
    32aa:	10 92 8c 22 	sts	0x228C, r1	; 0x80228c <pwm2>
    32ae:	10 92 8d 22 	sts	0x228D, r1	; 0x80228d <pwm2+0x1>
    32b2:	10 92 8e 22 	sts	0x228E, r1	; 0x80228e <pwm2+0x2>
    32b6:	10 92 8f 22 	sts	0x228F, r1	; 0x80228f <pwm2+0x3>
			pwm_set_duty_cycle_percent(&pwm_cfg_A, pwm1);
    32ba:	80 91 88 22 	lds	r24, 0x2288	; 0x802288 <pwm1>
    32be:	90 91 89 22 	lds	r25, 0x2289	; 0x802289 <pwm1+0x1>
    32c2:	a0 91 8a 22 	lds	r26, 0x228A	; 0x80228a <pwm1+0x2>
    32c6:	b0 91 8b 22 	lds	r27, 0x228B	; 0x80228b <pwm1+0x3>
    32ca:	bc 01       	movw	r22, r24
    32cc:	cd 01       	movw	r24, r26
    32ce:	0e 94 14 3b 	call	0x7628	; 0x7628 <__fixunssfsi>
    32d2:	dc 01       	movw	r26, r24
    32d4:	cb 01       	movw	r24, r22
    32d6:	68 2f       	mov	r22, r24
    32d8:	84 e4       	ldi	r24, 0x44	; 68
    32da:	99 e2       	ldi	r25, 0x29	; 41
    32dc:	21 df       	rcall	.-446    	; 0x3120 <pwm_set_duty_cycle_percent>
			pwm_set_duty_cycle_percent(&pwm_cfg_B, pwm2);
    32de:	80 91 8c 22 	lds	r24, 0x228C	; 0x80228c <pwm2>
    32e2:	90 91 8d 22 	lds	r25, 0x228D	; 0x80228d <pwm2+0x1>
    32e6:	a0 91 8e 22 	lds	r26, 0x228E	; 0x80228e <pwm2+0x2>
    32ea:	b0 91 8f 22 	lds	r27, 0x228F	; 0x80228f <pwm2+0x3>
    32ee:	bc 01       	movw	r22, r24
    32f0:	cd 01       	movw	r24, r26
    32f2:	0e 94 14 3b 	call	0x7628	; 0x7628 <__fixunssfsi>
    32f6:	dc 01       	movw	r26, r24
    32f8:	cb 01       	movw	r24, r22
    32fa:	68 2f       	mov	r22, r24
    32fc:	8c e3       	ldi	r24, 0x3C	; 60
    32fe:	99 e2       	ldi	r25, 0x29	; 41
    3300:	0f df       	rcall	.-482    	; 0x3120 <pwm_set_duty_cycle_percent>
			if (verbose) {
    3302:	80 91 43 29 	lds	r24, 0x2943	; 0x802943 <verbose>
    3306:	88 23       	and	r24, r24
    3308:	09 f4       	brne	.+2      	; 0x330c <process_command+0x138>
    330a:	3e c3       	rjmp	.+1660   	; 0x3988 <process_command+0x7b4>
				udi_cdc_puts("PWM outputs disabled");
    330c:	8b e5       	ldi	r24, 0x5B	; 91
    330e:	91 e2       	ldi	r25, 0x21	; 33
    3310:	0e 94 0a 09 	call	0x1214	; 0x1214 <udi_cdc_puts>
				udi_cdc_puts("\r\n");
    3314:	8d ef       	ldi	r24, 0xFD	; 253
    3316:	90 e2       	ldi	r25, 0x20	; 32
    3318:	0e 94 0a 09 	call	0x1214	; 0x1214 <udi_cdc_puts>
			}
		break;
    331c:	35 c3       	rjmp	.+1642   	; 0x3988 <process_command+0x7b4>
		
		case 'e': // enable pwms
			//pwm_refresh.enabled = 1;
			udi_cdc_puts("PWM outputs enabled");
    331e:	80 e7       	ldi	r24, 0x70	; 112
    3320:	91 e2       	ldi	r25, 0x21	; 33
    3322:	0e 94 0a 09 	call	0x1214	; 0x1214 <udi_cdc_puts>
			udi_cdc_puts("\r\n");
    3326:	8d ef       	ldi	r24, 0xFD	; 253
    3328:	90 e2       	ldi	r25, 0x20	; 32
    332a:	0e 94 0a 09 	call	0x1214	; 0x1214 <udi_cdc_puts>
		break;
    332e:	2f c3       	rjmp	.+1630   	; 0x398e <process_command+0x7ba>
		
		case 'v': // toggle  verbose output
			if (verbose) {
    3330:	80 91 43 29 	lds	r24, 0x2943	; 0x802943 <verbose>
    3334:	88 23       	and	r24, r24
    3336:	59 f0       	breq	.+22     	; 0x334e <process_command+0x17a>
				verbose=0;
    3338:	10 92 43 29 	sts	0x2943, r1	; 0x802943 <verbose>
				udi_cdc_puts("Verbose output disabled");
    333c:	84 e8       	ldi	r24, 0x84	; 132
    333e:	91 e2       	ldi	r25, 0x21	; 33
    3340:	0e 94 0a 09 	call	0x1214	; 0x1214 <udi_cdc_puts>
				udi_cdc_puts("\r\n");
    3344:	8d ef       	ldi	r24, 0xFD	; 253
    3346:	90 e2       	ldi	r25, 0x20	; 32
    3348:	0e 94 0a 09 	call	0x1214	; 0x1214 <udi_cdc_puts>
				verbose=1;
				udi_cdc_puts("Verbose output enabled");
				udi_cdc_puts("\r\n");
			}
			//udi_cdc_puts("\n\r");
		break;
    334c:	20 c3       	rjmp	.+1600   	; 0x398e <process_command+0x7ba>
			if (verbose) {
				verbose=0;
				udi_cdc_puts("Verbose output disabled");
				udi_cdc_puts("\r\n");
			} else {
				verbose=1;
    334e:	81 e0       	ldi	r24, 0x01	; 1
    3350:	80 93 43 29 	sts	0x2943, r24	; 0x802943 <verbose>
				udi_cdc_puts("Verbose output enabled");
    3354:	8c e9       	ldi	r24, 0x9C	; 156
    3356:	91 e2       	ldi	r25, 0x21	; 33
    3358:	0e 94 0a 09 	call	0x1214	; 0x1214 <udi_cdc_puts>
				udi_cdc_puts("\r\n");
    335c:	8d ef       	ldi	r24, 0xFD	; 253
    335e:	90 e2       	ldi	r25, 0x20	; 32
    3360:	0e 94 0a 09 	call	0x1214	; 0x1214 <udi_cdc_puts>
			}
			//udi_cdc_puts("\n\r");
		break;
    3364:	14 c3       	rjmp	.+1576   	; 0x398e <process_command+0x7ba>
		
		case 's': //simulate spi input
			if (command_in[1] == '=') {
    3366:	80 91 00 29 	lds	r24, 0x2900	; 0x802900 <command_in+0x1>
    336a:	8d 33       	cpi	r24, 0x3D	; 61
    336c:	09 f0       	breq	.+2      	; 0x3370 <process_command+0x19c>
    336e:	0e c3       	rjmp	.+1564   	; 0x398c <process_command+0x7b8>
				//input must be in the format s=xx
				// first is the address, second two are the pwm values, third two are the duration

				//http://www.dfstermole.net/OAC/hstrings.html
				strncpy(command_string, &command_in[2], 4);
    3370:	ce 01       	movw	r24, r28
    3372:	09 96       	adiw	r24, 0x09	; 9
    3374:	44 e0       	ldi	r20, 0x04	; 4
    3376:	50 e0       	ldi	r21, 0x00	; 0
    3378:	61 e0       	ldi	r22, 0x01	; 1
    337a:	79 e2       	ldi	r23, 0x29	; 41
    337c:	0e 94 7b 3e 	call	0x7cf6	; 0x7cf6 <strncpy>
				command_string[3]='\0';
    3380:	1c 86       	std	Y+12, r1	; 0x0c
				percent = strtol(command_string, NULL, 10);
    3382:	ce 01       	movw	r24, r28
    3384:	09 96       	adiw	r24, 0x09	; 9
    3386:	4a e0       	ldi	r20, 0x0A	; 10
    3388:	50 e0       	ldi	r21, 0x00	; 0
    338a:	60 e0       	ldi	r22, 0x00	; 0
    338c:	70 e0       	ldi	r23, 0x00	; 0
    338e:	0e 94 38 3d 	call	0x7a70	; 0x7a70 <strtol>
    3392:	dc 01       	movw	r26, r24
    3394:	cb 01       	movw	r24, r22
    3396:	bc 01       	movw	r22, r24
    3398:	cd 01       	movw	r24, r26
    339a:	0e 94 42 3b 	call	0x7684	; 0x7684 <__floatsisf>
    339e:	dc 01       	movw	r26, r24
    33a0:	cb 01       	movw	r24, r22
    33a2:	80 93 90 22 	sts	0x2290, r24	; 0x802290 <percent>
    33a6:	90 93 91 22 	sts	0x2291, r25	; 0x802291 <percent+0x1>
    33aa:	a0 93 92 22 	sts	0x2292, r26	; 0x802292 <percent+0x2>
    33ae:	b0 93 93 22 	sts	0x2293, r27	; 0x802293 <percent+0x3>
				//data_buffer[bytes_received] = atoi(channel_address);
	
				// Set valid range for percent
				if (percent < 0) {
    33b2:	80 91 90 22 	lds	r24, 0x2290	; 0x802290 <percent>
    33b6:	90 91 91 22 	lds	r25, 0x2291	; 0x802291 <percent+0x1>
    33ba:	a0 91 92 22 	lds	r26, 0x2292	; 0x802292 <percent+0x2>
    33be:	b0 91 93 22 	lds	r27, 0x2293	; 0x802293 <percent+0x3>
    33c2:	20 e0       	ldi	r18, 0x00	; 0
    33c4:	30 e0       	ldi	r19, 0x00	; 0
    33c6:	a9 01       	movw	r20, r18
    33c8:	bc 01       	movw	r22, r24
    33ca:	cd 01       	movw	r24, r26
    33cc:	0e 94 69 3a 	call	0x74d2	; 0x74d2 <__cmpsf2>
    33d0:	88 23       	and	r24, r24
    33d2:	44 f4       	brge	.+16     	; 0x33e4 <process_command+0x210>
					percent = 0;
    33d4:	10 92 90 22 	sts	0x2290, r1	; 0x802290 <percent>
    33d8:	10 92 91 22 	sts	0x2291, r1	; 0x802291 <percent+0x1>
    33dc:	10 92 92 22 	sts	0x2292, r1	; 0x802292 <percent+0x2>
    33e0:	10 92 93 22 	sts	0x2293, r1	; 0x802293 <percent+0x3>
				}
				if (percent > 100) {
    33e4:	80 91 90 22 	lds	r24, 0x2290	; 0x802290 <percent>
    33e8:	90 91 91 22 	lds	r25, 0x2291	; 0x802291 <percent+0x1>
    33ec:	a0 91 92 22 	lds	r26, 0x2292	; 0x802292 <percent+0x2>
    33f0:	b0 91 93 22 	lds	r27, 0x2293	; 0x802293 <percent+0x3>
    33f4:	20 e0       	ldi	r18, 0x00	; 0
    33f6:	30 e0       	ldi	r19, 0x00	; 0
    33f8:	48 ec       	ldi	r20, 0xC8	; 200
    33fa:	52 e4       	ldi	r21, 0x42	; 66
    33fc:	bc 01       	movw	r22, r24
    33fe:	cd 01       	movw	r24, r26
    3400:	0e 94 40 3c 	call	0x7880	; 0x7880 <__gesf2>
    3404:	18 16       	cp	r1, r24
    3406:	64 f4       	brge	.+24     	; 0x3420 <process_command+0x24c>
					percent = 100;
    3408:	80 e0       	ldi	r24, 0x00	; 0
    340a:	90 e0       	ldi	r25, 0x00	; 0
    340c:	a8 ec       	ldi	r26, 0xC8	; 200
    340e:	b2 e4       	ldi	r27, 0x42	; 66
    3410:	80 93 90 22 	sts	0x2290, r24	; 0x802290 <percent>
    3414:	90 93 91 22 	sts	0x2291, r25	; 0x802291 <percent+0x1>
    3418:	a0 93 92 22 	sts	0x2292, r26	; 0x802292 <percent+0x2>
    341c:	b0 93 93 22 	sts	0x2293, r27	; 0x802293 <percent+0x3>
				}


				double percentSquared = percent*percent;
    3420:	80 91 90 22 	lds	r24, 0x2290	; 0x802290 <percent>
    3424:	90 91 91 22 	lds	r25, 0x2291	; 0x802291 <percent+0x1>
    3428:	a0 91 92 22 	lds	r26, 0x2292	; 0x802292 <percent+0x2>
    342c:	b0 91 93 22 	lds	r27, 0x2293	; 0x802293 <percent+0x3>
    3430:	20 91 90 22 	lds	r18, 0x2290	; 0x802290 <percent>
    3434:	30 91 91 22 	lds	r19, 0x2291	; 0x802291 <percent+0x1>
    3438:	40 91 92 22 	lds	r20, 0x2292	; 0x802292 <percent+0x2>
    343c:	50 91 93 22 	lds	r21, 0x2293	; 0x802293 <percent+0x3>
    3440:	bc 01       	movw	r22, r24
    3442:	cd 01       	movw	r24, r26
    3444:	0e 94 44 3c 	call	0x7888	; 0x7888 <__mulsf3>
    3448:	dc 01       	movw	r26, r24
    344a:	cb 01       	movw	r24, r22
    344c:	89 83       	std	Y+1, r24	; 0x01
    344e:	9a 83       	std	Y+2, r25	; 0x02
    3450:	ab 83       	std	Y+3, r26	; 0x03
    3452:	bc 83       	std	Y+4, r27	; 0x04
				double percentCubed = percentSquared*percent;
    3454:	80 91 90 22 	lds	r24, 0x2290	; 0x802290 <percent>
    3458:	90 91 91 22 	lds	r25, 0x2291	; 0x802291 <percent+0x1>
    345c:	a0 91 92 22 	lds	r26, 0x2292	; 0x802292 <percent+0x2>
    3460:	b0 91 93 22 	lds	r27, 0x2293	; 0x802293 <percent+0x3>
    3464:	9c 01       	movw	r18, r24
    3466:	ad 01       	movw	r20, r26
    3468:	69 81       	ldd	r22, Y+1	; 0x01
    346a:	7a 81       	ldd	r23, Y+2	; 0x02
    346c:	8b 81       	ldd	r24, Y+3	; 0x03
    346e:	9c 81       	ldd	r25, Y+4	; 0x04
    3470:	0e 94 44 3c 	call	0x7888	; 0x7888 <__mulsf3>
    3474:	dc 01       	movw	r26, r24
    3476:	cb 01       	movw	r24, r22
    3478:	8d 83       	std	Y+5, r24	; 0x05
    347a:	9e 83       	std	Y+6, r25	; 0x06
    347c:	af 83       	std	Y+7, r26	; 0x07
    347e:	b8 87       	std	Y+8, r27	; 0x08
								
				if (percent < 20) {
    3480:	80 91 90 22 	lds	r24, 0x2290	; 0x802290 <percent>
    3484:	90 91 91 22 	lds	r25, 0x2291	; 0x802291 <percent+0x1>
    3488:	a0 91 92 22 	lds	r26, 0x2292	; 0x802292 <percent+0x2>
    348c:	b0 91 93 22 	lds	r27, 0x2293	; 0x802293 <percent+0x3>
    3490:	20 e0       	ldi	r18, 0x00	; 0
    3492:	30 e0       	ldi	r19, 0x00	; 0
    3494:	40 ea       	ldi	r20, 0xA0	; 160
    3496:	51 e4       	ldi	r21, 0x41	; 65
    3498:	bc 01       	movw	r22, r24
    349a:	cd 01       	movw	r24, r26
    349c:	0e 94 69 3a 	call	0x74d2	; 0x74d2 <__cmpsf2>
    34a0:	88 23       	and	r24, r24
    34a2:	0c f0       	brlt	.+2      	; 0x34a6 <process_command+0x2d2>
    34a4:	51 c0       	rjmp	.+162    	; 0x3548 <process_command+0x374>
					//percentCompensated = 0.003001*percentCubed - 0.042495*percentSquared + 0.898157*percent - 0.053577;
					percentCompensated = 0.002351*percentCubed - 0.028552*percentSquared + 0.830766*percent - 0.039634;
    34a6:	2c e3       	ldi	r18, 0x3C	; 60
    34a8:	33 e1       	ldi	r19, 0x13	; 19
    34aa:	4a e1       	ldi	r20, 0x1A	; 26
    34ac:	5b e3       	ldi	r21, 0x3B	; 59
    34ae:	6d 81       	ldd	r22, Y+5	; 0x05
    34b0:	7e 81       	ldd	r23, Y+6	; 0x06
    34b2:	8f 81       	ldd	r24, Y+7	; 0x07
    34b4:	98 85       	ldd	r25, Y+8	; 0x08
    34b6:	0e 94 44 3c 	call	0x7888	; 0x7888 <__mulsf3>
    34ba:	dc 01       	movw	r26, r24
    34bc:	cb 01       	movw	r24, r22
    34be:	6c 01       	movw	r12, r24
    34c0:	7d 01       	movw	r14, r26
    34c2:	22 ee       	ldi	r18, 0xE2	; 226
    34c4:	35 ee       	ldi	r19, 0xE5	; 229
    34c6:	49 ee       	ldi	r20, 0xE9	; 233
    34c8:	5c e3       	ldi	r21, 0x3C	; 60
    34ca:	69 81       	ldd	r22, Y+1	; 0x01
    34cc:	7a 81       	ldd	r23, Y+2	; 0x02
    34ce:	8b 81       	ldd	r24, Y+3	; 0x03
    34d0:	9c 81       	ldd	r25, Y+4	; 0x04
    34d2:	0e 94 44 3c 	call	0x7888	; 0x7888 <__mulsf3>
    34d6:	dc 01       	movw	r26, r24
    34d8:	cb 01       	movw	r24, r22
    34da:	9c 01       	movw	r18, r24
    34dc:	ad 01       	movw	r20, r26
    34de:	c7 01       	movw	r24, r14
    34e0:	b6 01       	movw	r22, r12
    34e2:	0e 94 04 3a 	call	0x7408	; 0x7408 <__subsf3>
    34e6:	dc 01       	movw	r26, r24
    34e8:	cb 01       	movw	r24, r22
    34ea:	6c 01       	movw	r12, r24
    34ec:	7d 01       	movw	r14, r26
    34ee:	80 91 90 22 	lds	r24, 0x2290	; 0x802290 <percent>
    34f2:	90 91 91 22 	lds	r25, 0x2291	; 0x802291 <percent+0x1>
    34f6:	a0 91 92 22 	lds	r26, 0x2292	; 0x802292 <percent+0x2>
    34fa:	b0 91 93 22 	lds	r27, 0x2293	; 0x802293 <percent+0x3>
    34fe:	25 e1       	ldi	r18, 0x15	; 21
    3500:	3d ea       	ldi	r19, 0xAD	; 173
    3502:	44 e5       	ldi	r20, 0x54	; 84
    3504:	5f e3       	ldi	r21, 0x3F	; 63
    3506:	bc 01       	movw	r22, r24
    3508:	cd 01       	movw	r24, r26
    350a:	0e 94 44 3c 	call	0x7888	; 0x7888 <__mulsf3>
    350e:	dc 01       	movw	r26, r24
    3510:	cb 01       	movw	r24, r22
    3512:	9c 01       	movw	r18, r24
    3514:	ad 01       	movw	r20, r26
    3516:	c7 01       	movw	r24, r14
    3518:	b6 01       	movw	r22, r12
    351a:	0e 94 05 3a 	call	0x740a	; 0x740a <__addsf3>
    351e:	dc 01       	movw	r26, r24
    3520:	cb 01       	movw	r24, r22
    3522:	23 e4       	ldi	r18, 0x43	; 67
    3524:	37 e5       	ldi	r19, 0x57	; 87
    3526:	42 e2       	ldi	r20, 0x22	; 34
    3528:	5d e3       	ldi	r21, 0x3D	; 61
    352a:	bc 01       	movw	r22, r24
    352c:	cd 01       	movw	r24, r26
    352e:	0e 94 04 3a 	call	0x7408	; 0x7408 <__subsf3>
    3532:	dc 01       	movw	r26, r24
    3534:	cb 01       	movw	r24, r22
    3536:	80 93 94 22 	sts	0x2294, r24	; 0x802294 <percentCompensated>
    353a:	90 93 95 22 	sts	0x2295, r25	; 0x802295 <percentCompensated+0x1>
    353e:	a0 93 96 22 	sts	0x2296, r26	; 0x802296 <percentCompensated+0x2>
    3542:	b0 93 97 22 	sts	0x2297, r27	; 0x802297 <percentCompensated+0x3>
    3546:	50 c0       	rjmp	.+160    	; 0x35e8 <process_command+0x414>
				} else {
					//percentCompensated = 0.000082*percentCubed - 0.010512*percentSquared + 1.164923*percent + 5.749069;
					percentCompensated = 0.000083*percentCubed - 0.010387*percentSquared + 1.132475*percent + 7.080597;
    3548:	29 e4       	ldi	r18, 0x49	; 73
    354a:	30 e1       	ldi	r19, 0x10	; 16
    354c:	4e ea       	ldi	r20, 0xAE	; 174
    354e:	58 e3       	ldi	r21, 0x38	; 56
    3550:	6d 81       	ldd	r22, Y+5	; 0x05
    3552:	7e 81       	ldd	r23, Y+6	; 0x06
    3554:	8f 81       	ldd	r24, Y+7	; 0x07
    3556:	98 85       	ldd	r25, Y+8	; 0x08
    3558:	0e 94 44 3c 	call	0x7888	; 0x7888 <__mulsf3>
    355c:	dc 01       	movw	r26, r24
    355e:	cb 01       	movw	r24, r22
    3560:	6c 01       	movw	r12, r24
    3562:	7d 01       	movw	r14, r26
    3564:	2c e3       	ldi	r18, 0x3C	; 60
    3566:	3e e2       	ldi	r19, 0x2E	; 46
    3568:	4a e2       	ldi	r20, 0x2A	; 42
    356a:	5c e3       	ldi	r21, 0x3C	; 60
    356c:	69 81       	ldd	r22, Y+1	; 0x01
    356e:	7a 81       	ldd	r23, Y+2	; 0x02
    3570:	8b 81       	ldd	r24, Y+3	; 0x03
    3572:	9c 81       	ldd	r25, Y+4	; 0x04
    3574:	0e 94 44 3c 	call	0x7888	; 0x7888 <__mulsf3>
    3578:	dc 01       	movw	r26, r24
    357a:	cb 01       	movw	r24, r22
    357c:	9c 01       	movw	r18, r24
    357e:	ad 01       	movw	r20, r26
    3580:	c7 01       	movw	r24, r14
    3582:	b6 01       	movw	r22, r12
    3584:	0e 94 04 3a 	call	0x7408	; 0x7408 <__subsf3>
    3588:	dc 01       	movw	r26, r24
    358a:	cb 01       	movw	r24, r22
    358c:	6c 01       	movw	r12, r24
    358e:	7d 01       	movw	r14, r26
    3590:	80 91 90 22 	lds	r24, 0x2290	; 0x802290 <percent>
    3594:	90 91 91 22 	lds	r25, 0x2291	; 0x802291 <percent+0x1>
    3598:	a0 91 92 22 	lds	r26, 0x2292	; 0x802292 <percent+0x2>
    359c:	b0 91 93 22 	lds	r27, 0x2293	; 0x802293 <percent+0x3>
    35a0:	21 ef       	ldi	r18, 0xF1	; 241
    35a2:	34 ef       	ldi	r19, 0xF4	; 244
    35a4:	40 e9       	ldi	r20, 0x90	; 144
    35a6:	5f e3       	ldi	r21, 0x3F	; 63
    35a8:	bc 01       	movw	r22, r24
    35aa:	cd 01       	movw	r24, r26
    35ac:	0e 94 44 3c 	call	0x7888	; 0x7888 <__mulsf3>
    35b0:	dc 01       	movw	r26, r24
    35b2:	cb 01       	movw	r24, r22
    35b4:	9c 01       	movw	r18, r24
    35b6:	ad 01       	movw	r20, r26
    35b8:	c7 01       	movw	r24, r14
    35ba:	b6 01       	movw	r22, r12
    35bc:	0e 94 05 3a 	call	0x740a	; 0x740a <__addsf3>
    35c0:	dc 01       	movw	r26, r24
    35c2:	cb 01       	movw	r24, r22
    35c4:	20 e4       	ldi	r18, 0x40	; 64
    35c6:	34 e9       	ldi	r19, 0x94	; 148
    35c8:	42 ee       	ldi	r20, 0xE2	; 226
    35ca:	50 e4       	ldi	r21, 0x40	; 64
    35cc:	bc 01       	movw	r22, r24
    35ce:	cd 01       	movw	r24, r26
    35d0:	0e 94 05 3a 	call	0x740a	; 0x740a <__addsf3>
    35d4:	dc 01       	movw	r26, r24
    35d6:	cb 01       	movw	r24, r22
    35d8:	80 93 94 22 	sts	0x2294, r24	; 0x802294 <percentCompensated>
    35dc:	90 93 95 22 	sts	0x2295, r25	; 0x802295 <percentCompensated+0x1>
    35e0:	a0 93 96 22 	sts	0x2296, r26	; 0x802296 <percentCompensated+0x2>
    35e4:	b0 93 97 22 	sts	0x2297, r27	; 0x802297 <percentCompensated+0x3>
				}
*/
				
				// calculate pwm percentages
				// scale the pwm outputs so one turns off before the other (to get more low end resolution)
				pwm1 = (percentCompensated*0.90) + 10;
    35e8:	80 91 94 22 	lds	r24, 0x2294	; 0x802294 <percentCompensated>
    35ec:	90 91 95 22 	lds	r25, 0x2295	; 0x802295 <percentCompensated+0x1>
    35f0:	a0 91 96 22 	lds	r26, 0x2296	; 0x802296 <percentCompensated+0x2>
    35f4:	b0 91 97 22 	lds	r27, 0x2297	; 0x802297 <percentCompensated+0x3>
    35f8:	26 e6       	ldi	r18, 0x66	; 102
    35fa:	36 e6       	ldi	r19, 0x66	; 102
    35fc:	46 e6       	ldi	r20, 0x66	; 102
    35fe:	5f e3       	ldi	r21, 0x3F	; 63
    3600:	bc 01       	movw	r22, r24
    3602:	cd 01       	movw	r24, r26
    3604:	0e 94 44 3c 	call	0x7888	; 0x7888 <__mulsf3>
    3608:	dc 01       	movw	r26, r24
    360a:	cb 01       	movw	r24, r22
    360c:	20 e0       	ldi	r18, 0x00	; 0
    360e:	30 e0       	ldi	r19, 0x00	; 0
    3610:	40 e2       	ldi	r20, 0x20	; 32
    3612:	51 e4       	ldi	r21, 0x41	; 65
    3614:	bc 01       	movw	r22, r24
    3616:	cd 01       	movw	r24, r26
    3618:	0e 94 05 3a 	call	0x740a	; 0x740a <__addsf3>
    361c:	dc 01       	movw	r26, r24
    361e:	cb 01       	movw	r24, r22
    3620:	80 93 88 22 	sts	0x2288, r24	; 0x802288 <pwm1>
    3624:	90 93 89 22 	sts	0x2289, r25	; 0x802289 <pwm1+0x1>
    3628:	a0 93 8a 22 	sts	0x228A, r26	; 0x80228a <pwm1+0x2>
    362c:	b0 93 8b 22 	sts	0x228B, r27	; 0x80228b <pwm1+0x3>
				pwm2 = (percentCompensated-20) * 1.25;
    3630:	80 91 94 22 	lds	r24, 0x2294	; 0x802294 <percentCompensated>
    3634:	90 91 95 22 	lds	r25, 0x2295	; 0x802295 <percentCompensated+0x1>
    3638:	a0 91 96 22 	lds	r26, 0x2296	; 0x802296 <percentCompensated+0x2>
    363c:	b0 91 97 22 	lds	r27, 0x2297	; 0x802297 <percentCompensated+0x3>
    3640:	20 e0       	ldi	r18, 0x00	; 0
    3642:	30 e0       	ldi	r19, 0x00	; 0
    3644:	40 ea       	ldi	r20, 0xA0	; 160
    3646:	51 e4       	ldi	r21, 0x41	; 65
    3648:	bc 01       	movw	r22, r24
    364a:	cd 01       	movw	r24, r26
    364c:	0e 94 04 3a 	call	0x7408	; 0x7408 <__subsf3>
    3650:	dc 01       	movw	r26, r24
    3652:	cb 01       	movw	r24, r22
    3654:	20 e0       	ldi	r18, 0x00	; 0
    3656:	30 e0       	ldi	r19, 0x00	; 0
    3658:	40 ea       	ldi	r20, 0xA0	; 160
    365a:	5f e3       	ldi	r21, 0x3F	; 63
    365c:	bc 01       	movw	r22, r24
    365e:	cd 01       	movw	r24, r26
    3660:	0e 94 44 3c 	call	0x7888	; 0x7888 <__mulsf3>
    3664:	dc 01       	movw	r26, r24
    3666:	cb 01       	movw	r24, r22
    3668:	80 93 8c 22 	sts	0x228C, r24	; 0x80228c <pwm2>
    366c:	90 93 8d 22 	sts	0x228D, r25	; 0x80228d <pwm2+0x1>
    3670:	a0 93 8e 22 	sts	0x228E, r26	; 0x80228e <pwm2+0x2>
    3674:	b0 93 8f 22 	sts	0x228F, r27	; 0x80228f <pwm2+0x3>
				
				if (pwm1 < 0.0) {
    3678:	80 91 88 22 	lds	r24, 0x2288	; 0x802288 <pwm1>
    367c:	90 91 89 22 	lds	r25, 0x2289	; 0x802289 <pwm1+0x1>
    3680:	a0 91 8a 22 	lds	r26, 0x228A	; 0x80228a <pwm1+0x2>
    3684:	b0 91 8b 22 	lds	r27, 0x228B	; 0x80228b <pwm1+0x3>
    3688:	20 e0       	ldi	r18, 0x00	; 0
    368a:	30 e0       	ldi	r19, 0x00	; 0
    368c:	a9 01       	movw	r20, r18
    368e:	bc 01       	movw	r22, r24
    3690:	cd 01       	movw	r24, r26
    3692:	0e 94 69 3a 	call	0x74d2	; 0x74d2 <__cmpsf2>
    3696:	88 23       	and	r24, r24
    3698:	4c f4       	brge	.+18     	; 0x36ac <process_command+0x4d8>
					pwm1 = 0.0;
    369a:	10 92 88 22 	sts	0x2288, r1	; 0x802288 <pwm1>
    369e:	10 92 89 22 	sts	0x2289, r1	; 0x802289 <pwm1+0x1>
    36a2:	10 92 8a 22 	sts	0x228A, r1	; 0x80228a <pwm1+0x2>
    36a6:	10 92 8b 22 	sts	0x228B, r1	; 0x80228b <pwm1+0x3>
    36aa:	1e c0       	rjmp	.+60     	; 0x36e8 <process_command+0x514>
				} else if (pwm1 > 100.0) {
    36ac:	80 91 88 22 	lds	r24, 0x2288	; 0x802288 <pwm1>
    36b0:	90 91 89 22 	lds	r25, 0x2289	; 0x802289 <pwm1+0x1>
    36b4:	a0 91 8a 22 	lds	r26, 0x228A	; 0x80228a <pwm1+0x2>
    36b8:	b0 91 8b 22 	lds	r27, 0x228B	; 0x80228b <pwm1+0x3>
    36bc:	20 e0       	ldi	r18, 0x00	; 0
    36be:	30 e0       	ldi	r19, 0x00	; 0
    36c0:	48 ec       	ldi	r20, 0xC8	; 200
    36c2:	52 e4       	ldi	r21, 0x42	; 66
    36c4:	bc 01       	movw	r22, r24
    36c6:	cd 01       	movw	r24, r26
    36c8:	0e 94 40 3c 	call	0x7880	; 0x7880 <__gesf2>
    36cc:	18 16       	cp	r1, r24
    36ce:	64 f4       	brge	.+24     	; 0x36e8 <process_command+0x514>
					pwm1 = 100.0;
    36d0:	80 e0       	ldi	r24, 0x00	; 0
    36d2:	90 e0       	ldi	r25, 0x00	; 0
    36d4:	a8 ec       	ldi	r26, 0xC8	; 200
    36d6:	b2 e4       	ldi	r27, 0x42	; 66
    36d8:	80 93 88 22 	sts	0x2288, r24	; 0x802288 <pwm1>
    36dc:	90 93 89 22 	sts	0x2289, r25	; 0x802289 <pwm1+0x1>
    36e0:	a0 93 8a 22 	sts	0x228A, r26	; 0x80228a <pwm1+0x2>
    36e4:	b0 93 8b 22 	sts	0x228B, r27	; 0x80228b <pwm1+0x3>
				}
				
				if (pwm2 < 0.0) {
    36e8:	80 91 8c 22 	lds	r24, 0x228C	; 0x80228c <pwm2>
    36ec:	90 91 8d 22 	lds	r25, 0x228D	; 0x80228d <pwm2+0x1>
    36f0:	a0 91 8e 22 	lds	r26, 0x228E	; 0x80228e <pwm2+0x2>
    36f4:	b0 91 8f 22 	lds	r27, 0x228F	; 0x80228f <pwm2+0x3>
    36f8:	20 e0       	ldi	r18, 0x00	; 0
    36fa:	30 e0       	ldi	r19, 0x00	; 0
    36fc:	a9 01       	movw	r20, r18
    36fe:	bc 01       	movw	r22, r24
    3700:	cd 01       	movw	r24, r26
    3702:	0e 94 69 3a 	call	0x74d2	; 0x74d2 <__cmpsf2>
    3706:	88 23       	and	r24, r24
    3708:	4c f4       	brge	.+18     	; 0x371c <process_command+0x548>
					pwm2 = 0.0;
    370a:	10 92 8c 22 	sts	0x228C, r1	; 0x80228c <pwm2>
    370e:	10 92 8d 22 	sts	0x228D, r1	; 0x80228d <pwm2+0x1>
    3712:	10 92 8e 22 	sts	0x228E, r1	; 0x80228e <pwm2+0x2>
    3716:	10 92 8f 22 	sts	0x228F, r1	; 0x80228f <pwm2+0x3>
    371a:	1e c0       	rjmp	.+60     	; 0x3758 <process_command+0x584>
				} else if (pwm2 > 100.0) {
    371c:	80 91 8c 22 	lds	r24, 0x228C	; 0x80228c <pwm2>
    3720:	90 91 8d 22 	lds	r25, 0x228D	; 0x80228d <pwm2+0x1>
    3724:	a0 91 8e 22 	lds	r26, 0x228E	; 0x80228e <pwm2+0x2>
    3728:	b0 91 8f 22 	lds	r27, 0x228F	; 0x80228f <pwm2+0x3>
    372c:	20 e0       	ldi	r18, 0x00	; 0
    372e:	30 e0       	ldi	r19, 0x00	; 0
    3730:	48 ec       	ldi	r20, 0xC8	; 200
    3732:	52 e4       	ldi	r21, 0x42	; 66
    3734:	bc 01       	movw	r22, r24
    3736:	cd 01       	movw	r24, r26
    3738:	0e 94 40 3c 	call	0x7880	; 0x7880 <__gesf2>
    373c:	18 16       	cp	r1, r24
    373e:	64 f4       	brge	.+24     	; 0x3758 <process_command+0x584>
					pwm2 = 100.0;
    3740:	80 e0       	ldi	r24, 0x00	; 0
    3742:	90 e0       	ldi	r25, 0x00	; 0
    3744:	a8 ec       	ldi	r26, 0xC8	; 200
    3746:	b2 e4       	ldi	r27, 0x42	; 66
    3748:	80 93 8c 22 	sts	0x228C, r24	; 0x80228c <pwm2>
    374c:	90 93 8d 22 	sts	0x228D, r25	; 0x80228d <pwm2+0x1>
    3750:	a0 93 8e 22 	sts	0x228E, r26	; 0x80228e <pwm2+0x2>
    3754:	b0 93 8f 22 	sts	0x228F, r27	; 0x80228f <pwm2+0x3>
				}
				
				
				pwm_set_duty_cycle_percent(&pwm_cfg_A, (uint8_t)pwm1);
    3758:	80 91 88 22 	lds	r24, 0x2288	; 0x802288 <pwm1>
    375c:	90 91 89 22 	lds	r25, 0x2289	; 0x802289 <pwm1+0x1>
    3760:	a0 91 8a 22 	lds	r26, 0x228A	; 0x80228a <pwm1+0x2>
    3764:	b0 91 8b 22 	lds	r27, 0x228B	; 0x80228b <pwm1+0x3>
    3768:	bc 01       	movw	r22, r24
    376a:	cd 01       	movw	r24, r26
    376c:	0e 94 14 3b 	call	0x7628	; 0x7628 <__fixunssfsi>
    3770:	dc 01       	movw	r26, r24
    3772:	cb 01       	movw	r24, r22
    3774:	68 2f       	mov	r22, r24
    3776:	84 e4       	ldi	r24, 0x44	; 68
    3778:	99 e2       	ldi	r25, 0x29	; 41
    377a:	d2 dc       	rcall	.-1628   	; 0x3120 <pwm_set_duty_cycle_percent>
				pwm_set_duty_cycle_percent(&pwm_cfg_B, (uint8_t)pwm2);
    377c:	80 91 8c 22 	lds	r24, 0x228C	; 0x80228c <pwm2>
    3780:	90 91 8d 22 	lds	r25, 0x228D	; 0x80228d <pwm2+0x1>
    3784:	a0 91 8e 22 	lds	r26, 0x228E	; 0x80228e <pwm2+0x2>
    3788:	b0 91 8f 22 	lds	r27, 0x228F	; 0x80228f <pwm2+0x3>
    378c:	bc 01       	movw	r22, r24
    378e:	cd 01       	movw	r24, r26
    3790:	0e 94 14 3b 	call	0x7628	; 0x7628 <__fixunssfsi>
    3794:	dc 01       	movw	r26, r24
    3796:	cb 01       	movw	r24, r22
    3798:	68 2f       	mov	r22, r24
    379a:	8c e3       	ldi	r24, 0x3C	; 60
    379c:	99 e2       	ldi	r25, 0x29	; 41
    379e:	c0 dc       	rcall	.-1664   	; 0x3120 <pwm_set_duty_cycle_percent>
		
				if (verbose) {
    37a0:	80 91 43 29 	lds	r24, 0x2943	; 0x802943 <verbose>
    37a4:	88 23       	and	r24, r24
    37a6:	09 f4       	brne	.+2      	; 0x37aa <process_command+0x5d6>
    37a8:	f1 c0       	rjmp	.+482    	; 0x398c <process_command+0x7b8>
					udi_cdc_puts("command in=");
    37aa:	83 eb       	ldi	r24, 0xB3	; 179
    37ac:	91 e2       	ldi	r25, 0x21	; 33
    37ae:	0e 94 0a 09 	call	0x1214	; 0x1214 <udi_cdc_puts>
					udi_cdc_puts(command_in);
    37b2:	8f ef       	ldi	r24, 0xFF	; 255
    37b4:	98 e2       	ldi	r25, 0x28	; 40
    37b6:	0e 94 0a 09 	call	0x1214	; 0x1214 <udi_cdc_puts>
					udi_cdc_puts(", command string=");
    37ba:	8f eb       	ldi	r24, 0xBF	; 191
    37bc:	91 e2       	ldi	r25, 0x21	; 33
    37be:	0e 94 0a 09 	call	0x1214	; 0x1214 <udi_cdc_puts>
					udi_cdc_puts(command_string);
    37c2:	ce 01       	movw	r24, r28
    37c4:	09 96       	adiw	r24, 0x09	; 9
    37c6:	0e 94 0a 09 	call	0x1214	; 0x1214 <udi_cdc_puts>
					udi_cdc_puts(", percent=");
    37ca:	81 ed       	ldi	r24, 0xD1	; 209
    37cc:	91 e2       	ldi	r25, 0x21	; 33
    37ce:	0e 94 0a 09 	call	0x1214	; 0x1214 <udi_cdc_puts>
					print_value32(percent);
    37d2:	80 91 90 22 	lds	r24, 0x2290	; 0x802290 <percent>
    37d6:	90 91 91 22 	lds	r25, 0x2291	; 0x802291 <percent+0x1>
    37da:	a0 91 92 22 	lds	r26, 0x2292	; 0x802292 <percent+0x2>
    37de:	b0 91 93 22 	lds	r27, 0x2293	; 0x802293 <percent+0x3>
    37e2:	bc 01       	movw	r22, r24
    37e4:	cd 01       	movw	r24, r26
    37e6:	0e 94 0f 3b 	call	0x761e	; 0x761e <__fixsfsi>
    37ea:	dc 01       	movw	r26, r24
    37ec:	cb 01       	movw	r24, r22
    37ee:	bc 01       	movw	r22, r24
    37f0:	cd 01       	movw	r24, r26
    37f2:	0e 94 b4 08 	call	0x1168	; 0x1168 <print_value32>
					udi_cdc_puts(", pwm1=");
    37f6:	8c ed       	ldi	r24, 0xDC	; 220
    37f8:	91 e2       	ldi	r25, 0x21	; 33
    37fa:	0e 94 0a 09 	call	0x1214	; 0x1214 <udi_cdc_puts>
					print_value32(pwm1);
    37fe:	80 91 88 22 	lds	r24, 0x2288	; 0x802288 <pwm1>
    3802:	90 91 89 22 	lds	r25, 0x2289	; 0x802289 <pwm1+0x1>
    3806:	a0 91 8a 22 	lds	r26, 0x228A	; 0x80228a <pwm1+0x2>
    380a:	b0 91 8b 22 	lds	r27, 0x228B	; 0x80228b <pwm1+0x3>
    380e:	bc 01       	movw	r22, r24
    3810:	cd 01       	movw	r24, r26
    3812:	0e 94 0f 3b 	call	0x761e	; 0x761e <__fixsfsi>
    3816:	dc 01       	movw	r26, r24
    3818:	cb 01       	movw	r24, r22
    381a:	bc 01       	movw	r22, r24
    381c:	cd 01       	movw	r24, r26
    381e:	0e 94 b4 08 	call	0x1168	; 0x1168 <print_value32>
					udi_cdc_puts(", pwm2=");
    3822:	84 ee       	ldi	r24, 0xE4	; 228
    3824:	91 e2       	ldi	r25, 0x21	; 33
    3826:	0e 94 0a 09 	call	0x1214	; 0x1214 <udi_cdc_puts>
					print_value32(pwm2);
    382a:	80 91 8c 22 	lds	r24, 0x228C	; 0x80228c <pwm2>
    382e:	90 91 8d 22 	lds	r25, 0x228D	; 0x80228d <pwm2+0x1>
    3832:	a0 91 8e 22 	lds	r26, 0x228E	; 0x80228e <pwm2+0x2>
    3836:	b0 91 8f 22 	lds	r27, 0x228F	; 0x80228f <pwm2+0x3>
    383a:	bc 01       	movw	r22, r24
    383c:	cd 01       	movw	r24, r26
    383e:	0e 94 0f 3b 	call	0x761e	; 0x761e <__fixsfsi>
    3842:	dc 01       	movw	r26, r24
    3844:	cb 01       	movw	r24, r22
    3846:	bc 01       	movw	r22, r24
    3848:	cd 01       	movw	r24, r26
    384a:	0e 94 b4 08 	call	0x1168	; 0x1168 <print_value32>
					udi_cdc_puts("\r\n");
    384e:	8d ef       	ldi	r24, 0xFD	; 253
    3850:	90 e2       	ldi	r25, 0x20	; 32
    3852:	0e 94 0a 09 	call	0x1214	; 0x1214 <udi_cdc_puts>
				} 
			}				
		break;
    3856:	9a c0       	rjmp	.+308    	; 0x398c <process_command+0x7b8>
		
		case 'g': // display settings
			if (verbose) {
    3858:	80 91 43 29 	lds	r24, 0x2943	; 0x802943 <verbose>
    385c:	88 23       	and	r24, r24
    385e:	09 f4       	brne	.+2      	; 0x3862 <process_command+0x68e>
    3860:	47 c0       	rjmp	.+142    	; 0x38f0 <process_command+0x71c>
				udi_cdc_puts("percent=");
    3862:	83 ed       	ldi	r24, 0xD3	; 211
    3864:	91 e2       	ldi	r25, 0x21	; 33
    3866:	0e 94 0a 09 	call	0x1214	; 0x1214 <udi_cdc_puts>
				print_value32(percent);
    386a:	80 91 90 22 	lds	r24, 0x2290	; 0x802290 <percent>
    386e:	90 91 91 22 	lds	r25, 0x2291	; 0x802291 <percent+0x1>
    3872:	a0 91 92 22 	lds	r26, 0x2292	; 0x802292 <percent+0x2>
    3876:	b0 91 93 22 	lds	r27, 0x2293	; 0x802293 <percent+0x3>
    387a:	bc 01       	movw	r22, r24
    387c:	cd 01       	movw	r24, r26
    387e:	0e 94 0f 3b 	call	0x761e	; 0x761e <__fixsfsi>
    3882:	dc 01       	movw	r26, r24
    3884:	cb 01       	movw	r24, r22
    3886:	bc 01       	movw	r22, r24
    3888:	cd 01       	movw	r24, r26
    388a:	0e 94 b4 08 	call	0x1168	; 0x1168 <print_value32>
				udi_cdc_puts(", pwm1=");
    388e:	8c ed       	ldi	r24, 0xDC	; 220
    3890:	91 e2       	ldi	r25, 0x21	; 33
    3892:	0e 94 0a 09 	call	0x1214	; 0x1214 <udi_cdc_puts>
				print_value32(pwm1);
    3896:	80 91 88 22 	lds	r24, 0x2288	; 0x802288 <pwm1>
    389a:	90 91 89 22 	lds	r25, 0x2289	; 0x802289 <pwm1+0x1>
    389e:	a0 91 8a 22 	lds	r26, 0x228A	; 0x80228a <pwm1+0x2>
    38a2:	b0 91 8b 22 	lds	r27, 0x228B	; 0x80228b <pwm1+0x3>
    38a6:	bc 01       	movw	r22, r24
    38a8:	cd 01       	movw	r24, r26
    38aa:	0e 94 0f 3b 	call	0x761e	; 0x761e <__fixsfsi>
    38ae:	dc 01       	movw	r26, r24
    38b0:	cb 01       	movw	r24, r22
    38b2:	bc 01       	movw	r22, r24
    38b4:	cd 01       	movw	r24, r26
    38b6:	0e 94 b4 08 	call	0x1168	; 0x1168 <print_value32>
				udi_cdc_puts(", pwm2=");
    38ba:	84 ee       	ldi	r24, 0xE4	; 228
    38bc:	91 e2       	ldi	r25, 0x21	; 33
    38be:	0e 94 0a 09 	call	0x1214	; 0x1214 <udi_cdc_puts>
				print_value32(pwm2);
    38c2:	80 91 8c 22 	lds	r24, 0x228C	; 0x80228c <pwm2>
    38c6:	90 91 8d 22 	lds	r25, 0x228D	; 0x80228d <pwm2+0x1>
    38ca:	a0 91 8e 22 	lds	r26, 0x228E	; 0x80228e <pwm2+0x2>
    38ce:	b0 91 8f 22 	lds	r27, 0x228F	; 0x80228f <pwm2+0x3>
    38d2:	bc 01       	movw	r22, r24
    38d4:	cd 01       	movw	r24, r26
    38d6:	0e 94 0f 3b 	call	0x761e	; 0x761e <__fixsfsi>
    38da:	dc 01       	movw	r26, r24
    38dc:	cb 01       	movw	r24, r22
    38de:	bc 01       	movw	r22, r24
    38e0:	cd 01       	movw	r24, r26
    38e2:	0e 94 b4 08 	call	0x1168	; 0x1168 <print_value32>
				udi_cdc_puts("\r\n");
    38e6:	8d ef       	ldi	r24, 0xFD	; 253
    38e8:	90 e2       	ldi	r25, 0x20	; 32
    38ea:	0e 94 0a 09 	call	0x1214	; 0x1214 <udi_cdc_puts>
				print_value32(pwm1);
				udi_cdc_puts(",");
				print_value32(pwm2);
				udi_cdc_puts("\r\n");
			}
		break;
    38ee:	4f c0       	rjmp	.+158    	; 0x398e <process_command+0x7ba>
				print_value32(pwm1);
				udi_cdc_puts(", pwm2=");
				print_value32(pwm2);
				udi_cdc_puts("\r\n");
			} else {
				print_value32(percent);
    38f0:	80 91 90 22 	lds	r24, 0x2290	; 0x802290 <percent>
    38f4:	90 91 91 22 	lds	r25, 0x2291	; 0x802291 <percent+0x1>
    38f8:	a0 91 92 22 	lds	r26, 0x2292	; 0x802292 <percent+0x2>
    38fc:	b0 91 93 22 	lds	r27, 0x2293	; 0x802293 <percent+0x3>
    3900:	bc 01       	movw	r22, r24
    3902:	cd 01       	movw	r24, r26
    3904:	0e 94 0f 3b 	call	0x761e	; 0x761e <__fixsfsi>
    3908:	dc 01       	movw	r26, r24
    390a:	cb 01       	movw	r24, r22
    390c:	bc 01       	movw	r22, r24
    390e:	cd 01       	movw	r24, r26
    3910:	0e 94 b4 08 	call	0x1168	; 0x1168 <print_value32>
				udi_cdc_puts(",");
    3914:	8c ee       	ldi	r24, 0xEC	; 236
    3916:	91 e2       	ldi	r25, 0x21	; 33
    3918:	0e 94 0a 09 	call	0x1214	; 0x1214 <udi_cdc_puts>
				print_value32(pwm1);
    391c:	80 91 88 22 	lds	r24, 0x2288	; 0x802288 <pwm1>
    3920:	90 91 89 22 	lds	r25, 0x2289	; 0x802289 <pwm1+0x1>
    3924:	a0 91 8a 22 	lds	r26, 0x228A	; 0x80228a <pwm1+0x2>
    3928:	b0 91 8b 22 	lds	r27, 0x228B	; 0x80228b <pwm1+0x3>
    392c:	bc 01       	movw	r22, r24
    392e:	cd 01       	movw	r24, r26
    3930:	0e 94 0f 3b 	call	0x761e	; 0x761e <__fixsfsi>
    3934:	dc 01       	movw	r26, r24
    3936:	cb 01       	movw	r24, r22
    3938:	bc 01       	movw	r22, r24
    393a:	cd 01       	movw	r24, r26
    393c:	0e 94 b4 08 	call	0x1168	; 0x1168 <print_value32>
				udi_cdc_puts(",");
    3940:	8c ee       	ldi	r24, 0xEC	; 236
    3942:	91 e2       	ldi	r25, 0x21	; 33
    3944:	0e 94 0a 09 	call	0x1214	; 0x1214 <udi_cdc_puts>
				print_value32(pwm2);
    3948:	80 91 8c 22 	lds	r24, 0x228C	; 0x80228c <pwm2>
    394c:	90 91 8d 22 	lds	r25, 0x228D	; 0x80228d <pwm2+0x1>
    3950:	a0 91 8e 22 	lds	r26, 0x228E	; 0x80228e <pwm2+0x2>
    3954:	b0 91 8f 22 	lds	r27, 0x228F	; 0x80228f <pwm2+0x3>
    3958:	bc 01       	movw	r22, r24
    395a:	cd 01       	movw	r24, r26
    395c:	0e 94 0f 3b 	call	0x761e	; 0x761e <__fixsfsi>
    3960:	dc 01       	movw	r26, r24
    3962:	cb 01       	movw	r24, r22
    3964:	bc 01       	movw	r22, r24
    3966:	cd 01       	movw	r24, r26
    3968:	0e 94 b4 08 	call	0x1168	; 0x1168 <print_value32>
				udi_cdc_puts("\r\n");
    396c:	8d ef       	ldi	r24, 0xFD	; 253
    396e:	90 e2       	ldi	r25, 0x20	; 32
    3970:	0e 94 0a 09 	call	0x1214	; 0x1214 <udi_cdc_puts>
			}
		break;
    3974:	0c c0       	rjmp	.+24     	; 0x398e <process_command+0x7ba>
	
		
		default:
			udi_cdc_puts("NOT RECOGNISED.  Enter h for list of commands");
    3976:	8e ee       	ldi	r24, 0xEE	; 238
    3978:	91 e2       	ldi	r25, 0x21	; 33
    397a:	0e 94 0a 09 	call	0x1214	; 0x1214 <udi_cdc_puts>
			udi_cdc_puts("\r\n");
    397e:	8d ef       	ldi	r24, 0xFD	; 253
    3980:	90 e2       	ldi	r25, 0x20	; 32
    3982:	0e 94 0a 09 	call	0x1214	; 0x1214 <udi_cdc_puts>
		break;
    3986:	03 c0       	rjmp	.+6      	; 0x398e <process_command+0x7ba>
			pwm_set_duty_cycle_percent(&pwm_cfg_B, pwm2);
			if (verbose) {
				udi_cdc_puts("PWM outputs disabled");
				udi_cdc_puts("\r\n");
			}
		break;
    3988:	00 00       	nop
    398a:	01 c0       	rjmp	.+2      	; 0x398e <process_command+0x7ba>
					udi_cdc_puts(", pwm2=");
					print_value32(pwm2);
					udi_cdc_puts("\r\n");
				} 
			}				
		break;
    398c:	00 00       	nop
		default:
			udi_cdc_puts("NOT RECOGNISED.  Enter h for list of commands");
			udi_cdc_puts("\r\n");
		break;
	}
}
    398e:	00 00       	nop
    3990:	2c 96       	adiw	r28, 0x0c	; 12
    3992:	cd bf       	out	0x3d, r28	; 61
    3994:	de bf       	out	0x3e, r29	; 62
    3996:	df 91       	pop	r29
    3998:	cf 91       	pop	r28
    399a:	ff 90       	pop	r15
    399c:	ef 90       	pop	r14
    399e:	df 90       	pop	r13
    39a0:	cf 90       	pop	r12
    39a2:	08 95       	ret

000039a4 <main>:


/*! \brief Main function. Execution starts here.
 */
int main(void)
{
    39a4:	2f 92       	push	r2
    39a6:	3f 92       	push	r3
    39a8:	4f 92       	push	r4
    39aa:	5f 92       	push	r5
    39ac:	6f 92       	push	r6
    39ae:	7f 92       	push	r7
    39b0:	8f 92       	push	r8
    39b2:	9f 92       	push	r9
    39b4:	af 92       	push	r10
    39b6:	bf 92       	push	r11
    39b8:	cf 92       	push	r12
    39ba:	df 92       	push	r13
    39bc:	ef 92       	push	r14
    39be:	ff 92       	push	r15
    39c0:	0f 93       	push	r16
    39c2:	1f 93       	push	r17
    39c4:	cf 93       	push	r28
    39c6:	df 93       	push	r29
    39c8:	cd b7       	in	r28, 0x3d	; 61
    39ca:	de b7       	in	r29, 0x3e	; 62
    39cc:	28 97       	sbiw	r28, 0x08	; 8
    39ce:	cd bf       	out	0x3d, r28	; 61
    39d0:	de bf       	out	0x3e, r29	; 62
	irq_initialize_vectors();
    39d2:	80 ea       	ldi	r24, 0xA0	; 160
    39d4:	90 e0       	ldi	r25, 0x00	; 0
    39d6:	27 e0       	ldi	r18, 0x07	; 7
    39d8:	fc 01       	movw	r30, r24
    39da:	22 83       	std	Z+2, r18	; 0x02
	cpu_irq_enable();
    39dc:	78 94       	sei

	// Initialize the sleep manager
	sleepmgr_init();
    39de:	88 da       	rcall	.-2800   	; 0x2ef0 <sleepmgr_init>

	sysclk_init();
    39e0:	26 d3       	rcall	.+1612   	; 0x402e <sysclk_init>
    39e2:	60 e1       	ldi	r22, 0x10	; 16
		.baudrate = USART_SERIAL_BAUDRATE,
		.charlength = USART_SERIAL_CHAR_LENGTH,
		.paritytype = USART_SERIAL_PARITY,
		.stopbits = USART_SERIAL_STOP_BIT
	};
	sysclk_enable_module(SYSCLK_PORT_D, PR_USART0_bm);
    39e4:	84 e0       	ldi	r24, 0x04	; 4
    39e6:	7b d3       	rcall	.+1782   	; 0x40de <sysclk_enable_module>
    39e8:	60 e0       	ldi	r22, 0x00	; 0
	usart_init_rs232(USART_SERIAL, &USART_SERIAL_OPTIONS);
    39ea:	70 e2       	ldi	r23, 0x20	; 32
    39ec:	80 ea       	ldi	r24, 0xA0	; 160
    39ee:	99 e0       	ldi	r25, 0x09	; 9
    39f0:	0e 94 b6 14 	call	0x296c	; 0x296c <usart_init_rs232>
		.baudrate = LCD_SERIAL_BAUDRATE,
		.charlength = LCD_SERIAL_CHAR_LENGTH,
		.paritytype = LCD_SERIAL_PARITY,
		.stopbits = LCD_SERIAL_STOP_BIT
	};
	sysclk_enable_module(SYSCLK_PORT_F, PR_USART0_bm);
    39f4:	60 e1       	ldi	r22, 0x10	; 16
    39f6:	86 e0       	ldi	r24, 0x06	; 6
    39f8:	72 d3       	rcall	.+1764   	; 0x40de <sysclk_enable_module>
    39fa:	67 e0       	ldi	r22, 0x07	; 7
	usart_init_rs232(LCD_SERIAL, &LCD_SERIAL_OPTIONS);
    39fc:	70 e2       	ldi	r23, 0x20	; 32
    39fe:	80 ea       	ldi	r24, 0xA0	; 160
    3a00:	9b e0       	ldi	r25, 0x0B	; 11
    3a02:	0e 94 b6 14 	call	0x296c	; 0x296c <usart_init_rs232>
	
	board_init();
    3a06:	11 da       	rcall	.-3038   	; 0x2e2a <board_init>
	
	pmic_init();
    3a08:	14 db       	rcall	.-2520   	; 0x3032 <pmic_init>
    3a0a:	20 ec       	ldi	r18, 0xC0	; 192
	// dont need these two ui things
	//	ui_init();
	//	ui_powerdown();

	// initialize the pwms at 24kHx
	pwm_init(&pwm_cfg_A, PWM_TCC0, PWM_CH_A, 24000);
    3a0c:	3d e5       	ldi	r19, 0x5D	; 93
    3a0e:	41 e0       	ldi	r20, 0x01	; 1
    3a10:	60 e0       	ldi	r22, 0x00	; 0
    3a12:	84 e4       	ldi	r24, 0x44	; 68
    3a14:	99 e2       	ldi	r25, 0x29	; 41
    3a16:	0e 94 ff 06 	call	0xdfe	; 0xdfe <pwm_init>
    3a1a:	20 ec       	ldi	r18, 0xC0	; 192
	pwm_init(&pwm_cfg_B, PWM_TCC0, PWM_CH_B, 24000);
    3a1c:	3d e5       	ldi	r19, 0x5D	; 93
    3a1e:	42 e0       	ldi	r20, 0x02	; 2
    3a20:	60 e0       	ldi	r22, 0x00	; 0
    3a22:	8c e3       	ldi	r24, 0x3C	; 60
    3a24:	99 e2       	ldi	r25, 0x29	; 41
    3a26:	0e 94 ff 06 	call	0xdfe	; 0xdfe <pwm_init>
    3a2a:	60 e0       	ldi	r22, 0x00	; 0

	// initialize fans at 0% then wait for 2s before starting
	pwm_start(&pwm_cfg_A, 0);
    3a2c:	84 e4       	ldi	r24, 0x44	; 68
    3a2e:	99 e2       	ldi	r25, 0x29	; 41
    3a30:	0e 94 67 08 	call	0x10ce	; 0x10ce <pwm_start>
    3a34:	60 e0       	ldi	r22, 0x00	; 0
	pwm_start(&pwm_cfg_B, 0);
    3a36:	8c e3       	ldi	r24, 0x3C	; 60
    3a38:	99 e2       	ldi	r25, 0x29	; 41
    3a3a:	0e 94 67 08 	call	0x10ce	; 0x10ce <pwm_start>
    3a3e:	6e ef       	ldi	r22, 0xFE	; 254

	// Display boot screen on lcd

	// clear screen
	usart_putchar(LCD_SERIAL, 0xFE);
    3a40:	80 ea       	ldi	r24, 0xA0	; 160
    3a42:	9b e0       	ldi	r25, 0x0B	; 11
    3a44:	0e 94 fc 14 	call	0x29f8	; 0x29f8 <usart_putchar>
    3a48:	68 e5       	ldi	r22, 0x58	; 88
	usart_putchar(LCD_SERIAL, 0x58);
    3a4a:	80 ea       	ldi	r24, 0xA0	; 160
    3a4c:	9b e0       	ldi	r25, 0x0B	; 11
    3a4e:	0e 94 fc 14 	call	0x29f8	; 0x29f8 <usart_putchar>
    3a52:	6e ef       	ldi	r22, 0xFE	; 254

	// Go home
	usart_putchar(LCD_SERIAL, 0xFE);
    3a54:	80 ea       	ldi	r24, 0xA0	; 160
    3a56:	9b e0       	ldi	r25, 0x0B	; 11
    3a58:	0e 94 fc 14 	call	0x29f8	; 0x29f8 <usart_putchar>
    3a5c:	68 e4       	ldi	r22, 0x48	; 72
	usart_putchar(LCD_SERIAL, 0x48);
    3a5e:	80 ea       	ldi	r24, 0xA0	; 160
    3a60:	9b e0       	ldi	r25, 0x0B	; 11
    3a62:	0e 94 fc 14 	call	0x29f8	; 0x29f8 <usart_putchar>

	lcd_puts("     Wind Tunnel");
    3a66:	8c e1       	ldi	r24, 0x1C	; 28
    3a68:	92 e2       	ldi	r25, 0x22	; 34
    3a6a:	92 db       	rcall	.-2268   	; 0x3190 <lcd_puts>
    3a6c:	6e ef       	ldi	r22, 0xFE	; 254
	// Set cursor position
	usart_putchar(LCD_SERIAL, 0xFE);
    3a6e:	80 ea       	ldi	r24, 0xA0	; 160
    3a70:	9b e0       	ldi	r25, 0x0B	; 11
    3a72:	0e 94 fc 14 	call	0x29f8	; 0x29f8 <usart_putchar>
    3a76:	67 e4       	ldi	r22, 0x47	; 71
	usart_putchar(LCD_SERIAL, 0x47);
    3a78:	80 ea       	ldi	r24, 0xA0	; 160
    3a7a:	9b e0       	ldi	r25, 0x0B	; 11
    3a7c:	0e 94 fc 14 	call	0x29f8	; 0x29f8 <usart_putchar>
    3a80:	61 e0       	ldi	r22, 0x01	; 1
	usart_putchar(LCD_SERIAL, 0x01); // col
    3a82:	80 ea       	ldi	r24, 0xA0	; 160
    3a84:	9b e0       	ldi	r25, 0x0B	; 11
    3a86:	0e 94 fc 14 	call	0x29f8	; 0x29f8 <usart_putchar>
    3a8a:	62 e0       	ldi	r22, 0x02	; 2
	usart_putchar(LCD_SERIAL, 0x02); // row
    3a8c:	80 ea       	ldi	r24, 0xA0	; 160
    3a8e:	9b e0       	ldi	r25, 0x0B	; 11
    3a90:	0e 94 fc 14 	call	0x29f8	; 0x29f8 <usart_putchar>
	lcd_puts("    ramping fans");
    3a94:	8d e2       	ldi	r24, 0x2D	; 45
    3a96:	92 e2       	ldi	r25, 0x22	; 34
    3a98:	7b db       	rcall	.-2314   	; 0x3190 <lcd_puts>

	// delay for 2s while fans ramp up to 50%
	delay_ms(2000);
    3a9a:	b9 da       	rcall	.-2702   	; 0x300e <sysclk_get_cpu_hz>
    3a9c:	dc 01       	movw	r26, r24
    3a9e:	cb 01       	movw	r24, r22
    3aa0:	8c 01       	movw	r16, r24
    3aa2:	9d 01       	movw	r18, r26
    3aa4:	40 e0       	ldi	r20, 0x00	; 0
    3aa6:	50 e0       	ldi	r21, 0x00	; 0
    3aa8:	ba 01       	movw	r22, r20
    3aaa:	09 83       	std	Y+1, r16	; 0x01
    3aac:	1a 83       	std	Y+2, r17	; 0x02
    3aae:	2b 83       	std	Y+3, r18	; 0x03
    3ab0:	3c 83       	std	Y+4, r19	; 0x04
    3ab2:	4d 83       	std	Y+5, r20	; 0x05
    3ab4:	5e 83       	std	Y+6, r21	; 0x06
    3ab6:	6f 83       	std	Y+7, r22	; 0x07
    3ab8:	78 87       	std	Y+8, r23	; 0x08
    3aba:	29 80       	ldd	r2, Y+1	; 0x01
    3abc:	3a 80       	ldd	r3, Y+2	; 0x02
    3abe:	4b 80       	ldd	r4, Y+3	; 0x03
    3ac0:	5c 80       	ldd	r5, Y+4	; 0x04
    3ac2:	6d 80       	ldd	r6, Y+5	; 0x05
    3ac4:	7e 80       	ldd	r7, Y+6	; 0x06
    3ac6:	8f 80       	ldd	r8, Y+7	; 0x07
    3ac8:	98 84       	ldd	r9, Y+8	; 0x08
    3aca:	22 2d       	mov	r18, r2
    3acc:	33 2d       	mov	r19, r3
    3ace:	44 2d       	mov	r20, r4
    3ad0:	55 2d       	mov	r21, r5
    3ad2:	66 2d       	mov	r22, r6
    3ad4:	77 2d       	mov	r23, r7
    3ad6:	88 2d       	mov	r24, r8
    3ad8:	99 2d       	mov	r25, r9
    3ada:	02 e0       	ldi	r16, 0x02	; 2
    3adc:	0e 94 fe 3c 	call	0x79fc	; 0x79fc <__ashldi3>
    3ae0:	a2 2e       	mov	r10, r18
    3ae2:	b3 2e       	mov	r11, r19
    3ae4:	c4 2e       	mov	r12, r20
    3ae6:	d5 2e       	mov	r13, r21
    3ae8:	e6 2e       	mov	r14, r22
    3aea:	f7 2e       	mov	r15, r23
    3aec:	08 2f       	mov	r16, r24
    3aee:	19 2f       	mov	r17, r25
    3af0:	2a 2c       	mov	r2, r10
    3af2:	3b 2c       	mov	r3, r11
    3af4:	4c 2c       	mov	r4, r12
    3af6:	5d 2c       	mov	r5, r13
    3af8:	6e 2c       	mov	r6, r14
    3afa:	7f 2c       	mov	r7, r15
    3afc:	80 2e       	mov	r8, r16
    3afe:	91 2e       	mov	r9, r17
    3b00:	22 2d       	mov	r18, r2
    3b02:	33 2d       	mov	r19, r3
    3b04:	44 2d       	mov	r20, r4
    3b06:	55 2d       	mov	r21, r5
    3b08:	66 2d       	mov	r22, r6
    3b0a:	77 2d       	mov	r23, r7
    3b0c:	88 2d       	mov	r24, r8
    3b0e:	99 2d       	mov	r25, r9
    3b10:	05 e0       	ldi	r16, 0x05	; 5
    3b12:	0e 94 fe 3c 	call	0x79fc	; 0x79fc <__ashldi3>
    3b16:	a2 2e       	mov	r10, r18
    3b18:	b3 2e       	mov	r11, r19
    3b1a:	c4 2e       	mov	r12, r20
    3b1c:	d5 2e       	mov	r13, r21
    3b1e:	e6 2e       	mov	r14, r22
    3b20:	f7 2e       	mov	r15, r23
    3b22:	08 2f       	mov	r16, r24
    3b24:	19 2f       	mov	r17, r25
    3b26:	2a 2d       	mov	r18, r10
    3b28:	3b 2d       	mov	r19, r11
    3b2a:	4c 2d       	mov	r20, r12
    3b2c:	5d 2d       	mov	r21, r13
    3b2e:	6e 2d       	mov	r22, r14
    3b30:	7f 2d       	mov	r23, r15
    3b32:	80 2f       	mov	r24, r16
    3b34:	91 2f       	mov	r25, r17
    3b36:	a2 2c       	mov	r10, r2
    3b38:	b3 2c       	mov	r11, r3
    3b3a:	c4 2c       	mov	r12, r4
    3b3c:	d5 2c       	mov	r13, r5
    3b3e:	e6 2c       	mov	r14, r6
    3b40:	f7 2c       	mov	r15, r7
    3b42:	08 2d       	mov	r16, r8
    3b44:	19 2d       	mov	r17, r9
    3b46:	0e 94 20 3d 	call	0x7a40	; 0x7a40 <__subdi3>
    3b4a:	a2 2e       	mov	r10, r18
    3b4c:	b3 2e       	mov	r11, r19
    3b4e:	c4 2e       	mov	r12, r20
    3b50:	d5 2e       	mov	r13, r21
    3b52:	e6 2e       	mov	r14, r22
    3b54:	f7 2e       	mov	r15, r23
    3b56:	08 2f       	mov	r16, r24
    3b58:	19 2f       	mov	r17, r25
    3b5a:	2a 2d       	mov	r18, r10
    3b5c:	3b 2d       	mov	r19, r11
    3b5e:	4c 2d       	mov	r20, r12
    3b60:	5d 2d       	mov	r21, r13
    3b62:	6e 2d       	mov	r22, r14
    3b64:	7f 2d       	mov	r23, r15
    3b66:	80 2f       	mov	r24, r16
    3b68:	91 2f       	mov	r25, r17
    3b6a:	a9 80       	ldd	r10, Y+1	; 0x01
    3b6c:	ba 80       	ldd	r11, Y+2	; 0x02
    3b6e:	cb 80       	ldd	r12, Y+3	; 0x03
    3b70:	dc 80       	ldd	r13, Y+4	; 0x04
    3b72:	ed 80       	ldd	r14, Y+5	; 0x05
    3b74:	fe 80       	ldd	r15, Y+6	; 0x06
    3b76:	0f 81       	ldd	r16, Y+7	; 0x07
    3b78:	18 85       	ldd	r17, Y+8	; 0x08
    3b7a:	0e 94 17 3d 	call	0x7a2e	; 0x7a2e <__adddi3>
    3b7e:	a2 2e       	mov	r10, r18
    3b80:	b3 2e       	mov	r11, r19
    3b82:	c4 2e       	mov	r12, r20
    3b84:	d5 2e       	mov	r13, r21
    3b86:	e6 2e       	mov	r14, r22
    3b88:	f7 2e       	mov	r15, r23
    3b8a:	08 2f       	mov	r16, r24
    3b8c:	19 2f       	mov	r17, r25
    3b8e:	2a 2d       	mov	r18, r10
    3b90:	3b 2d       	mov	r19, r11
    3b92:	4c 2d       	mov	r20, r12
    3b94:	5d 2d       	mov	r21, r13
    3b96:	6e 2d       	mov	r22, r14
    3b98:	7f 2d       	mov	r23, r15
    3b9a:	80 2f       	mov	r24, r16
    3b9c:	91 2f       	mov	r25, r17
    3b9e:	04 e0       	ldi	r16, 0x04	; 4
    3ba0:	0e 94 fe 3c 	call	0x79fc	; 0x79fc <__ashldi3>
    3ba4:	22 2e       	mov	r2, r18
    3ba6:	33 2e       	mov	r3, r19
    3ba8:	44 2e       	mov	r4, r20
    3baa:	55 2e       	mov	r5, r21
    3bac:	66 2e       	mov	r6, r22
    3bae:	77 2e       	mov	r7, r23
    3bb0:	88 2e       	mov	r8, r24
    3bb2:	99 2e       	mov	r9, r25
    3bb4:	a2 2c       	mov	r10, r2
    3bb6:	b3 2c       	mov	r11, r3
    3bb8:	c4 2c       	mov	r12, r4
    3bba:	d5 2c       	mov	r13, r5
    3bbc:	e6 2c       	mov	r14, r6
    3bbe:	f7 2c       	mov	r15, r7
    3bc0:	08 2d       	mov	r16, r8
    3bc2:	19 2d       	mov	r17, r9
    3bc4:	2a 2c       	mov	r2, r10
    3bc6:	3b 2c       	mov	r3, r11
    3bc8:	4c 2c       	mov	r4, r12
    3bca:	5d 2c       	mov	r5, r13
    3bcc:	6e 2c       	mov	r6, r14
    3bce:	7f 2c       	mov	r7, r15
    3bd0:	80 2e       	mov	r8, r16
    3bd2:	91 2e       	mov	r9, r17
    3bd4:	22 2d       	mov	r18, r2
    3bd6:	33 2d       	mov	r19, r3
    3bd8:	44 2d       	mov	r20, r4
    3bda:	55 2d       	mov	r21, r5
    3bdc:	66 2d       	mov	r22, r6
    3bde:	77 2d       	mov	r23, r7
    3be0:	88 2d       	mov	r24, r8
    3be2:	99 2d       	mov	r25, r9
    3be4:	29 51       	subi	r18, 0x19	; 25
    3be6:	3c 4f       	sbci	r19, 0xFC	; 252
    3be8:	4f 4f       	sbci	r20, 0xFF	; 255
    3bea:	5f 4f       	sbci	r21, 0xFF	; 255
    3bec:	6f 4f       	sbci	r22, 0xFF	; 255
    3bee:	7f 4f       	sbci	r23, 0xFF	; 255
    3bf0:	8f 4f       	sbci	r24, 0xFF	; 255
    3bf2:	9f 4f       	sbci	r25, 0xFF	; 255
    3bf4:	a2 2e       	mov	r10, r18
    3bf6:	b3 2e       	mov	r11, r19
    3bf8:	c4 2e       	mov	r12, r20
    3bfa:	d5 2e       	mov	r13, r21
    3bfc:	e6 2e       	mov	r14, r22
    3bfe:	f7 2e       	mov	r15, r23
    3c00:	08 2f       	mov	r16, r24
    3c02:	19 2f       	mov	r17, r25
    3c04:	2a 2d       	mov	r18, r10
    3c06:	3b 2d       	mov	r19, r11
    3c08:	4c 2d       	mov	r20, r12
    3c0a:	5d 2d       	mov	r21, r13
    3c0c:	6e 2d       	mov	r22, r14
    3c0e:	7f 2d       	mov	r23, r15
    3c10:	80 2f       	mov	r24, r16
    3c12:	91 2f       	mov	r25, r17
    3c14:	0e 94 7d 3b 	call	0x76fa	; 0x76fa <__floatundisf>
    3c18:	dc 01       	movw	r26, r24
    3c1a:	cb 01       	movw	r24, r22
    3c1c:	20 e0       	ldi	r18, 0x00	; 0
    3c1e:	30 e8       	ldi	r19, 0x80	; 128
    3c20:	4b eb       	ldi	r20, 0xBB	; 187
    3c22:	55 e4       	ldi	r21, 0x45	; 69
    3c24:	bc 01       	movw	r22, r24
    3c26:	cd 01       	movw	r24, r26
    3c28:	0e 94 6d 3a 	call	0x74da	; 0x74da <__divsf3>
    3c2c:	dc 01       	movw	r26, r24
    3c2e:	cb 01       	movw	r24, r22
    3c30:	bc 01       	movw	r22, r24
    3c32:	cd 01       	movw	r24, r26
    3c34:	0e 94 da 3a 	call	0x75b4	; 0x75b4 <__fixunssfdi>
    3c38:	a2 2e       	mov	r10, r18
    3c3a:	b3 2e       	mov	r11, r19
    3c3c:	c4 2e       	mov	r12, r20
    3c3e:	d5 2e       	mov	r13, r21
    3c40:	e6 2e       	mov	r14, r22
    3c42:	f7 2e       	mov	r15, r23
    3c44:	08 2f       	mov	r16, r24
    3c46:	19 2f       	mov	r17, r25
    3c48:	d6 01       	movw	r26, r12
    3c4a:	c5 01       	movw	r24, r10
    3c4c:	bc 01       	movw	r22, r24
    3c4e:	cd 01       	movw	r24, r26
    3c50:	ea d9       	rcall	.-3116   	; 0x3026 <__portable_avr_delay_cycles>
	// Initialize Horizontal Bar
	//usart_putchar(LCD_SERIAL, 0xFE);
	//usart_putchar(LCD_SERIAL, 0x68);

	// Start USB stack to authorize VBus monitoring
	udc_start();
    3c52:	0e 94 08 2a 	call	0x5410	; 0x5410 <udc_start>

	// The main loop manages only the power mode
	// because the USB management is done by interrupt
	while (true) {
		sleepmgr_enter_sleep();
    3c56:	88 d9       	rcall	.-3312   	; 0x2f68 <sleepmgr_enter_sleep>
    3c58:	80 91 3b 29 	lds	r24, 0x293B	; 0x80293b <command_ready>
		
		if (command_ready == 1) {
    3c5c:	81 30       	cpi	r24, 0x01	; 1
    3c5e:	d9 f7       	brne	.-10     	; 0x3c56 <main+0x2b2>
    3c60:	0e 94 e3 08 	call	0x11c6	; 0x11c6 <copy_command>
			copy_command();
    3c64:	b7 da       	rcall	.-2706   	; 0x31d4 <process_command>
			process_command();
    3c66:	10 92 3b 29 	sts	0x293B, r1	; 0x80293b <command_ready>
			command_ready = 0;
    3c6a:	f5 cf       	rjmp	.-22     	; 0x3c56 <main+0x2b2>

00003c6c <main_suspend_action>:
    3c6c:	cf 93       	push	r28
		}
	}
    3c6e:	df 93       	push	r29
}

void main_suspend_action(void)
{
    3c70:	cd b7       	in	r28, 0x3d	; 61
    3c72:	de b7       	in	r29, 0x3e	; 62
	//ui_powerdown();
}
    3c74:	00 00       	nop
    3c76:	df 91       	pop	r29
    3c78:	cf 91       	pop	r28
    3c7a:	08 95       	ret

00003c7c <main_resume_action>:

void main_resume_action(void)
{
    3c7c:	cf 93       	push	r28
    3c7e:	df 93       	push	r29
    3c80:	cd b7       	in	r28, 0x3d	; 61
    3c82:	de b7       	in	r29, 0x3e	; 62
	//ui_wakeup();
}
    3c84:	00 00       	nop
    3c86:	df 91       	pop	r29
    3c88:	cf 91       	pop	r28
    3c8a:	08 95       	ret

00003c8c <main_sof_action>:

void main_sof_action(void)
{
    3c8c:	cf 93       	push	r28
    3c8e:	df 93       	push	r29
    3c90:	cd b7       	in	r28, 0x3d	; 61
    3c92:	de b7       	in	r29, 0x3e	; 62
	if (!main_b_cdc_enable)
    3c94:	80 91 86 22 	lds	r24, 0x2286	; 0x802286 <main_b_cdc_enable>
		return;
	//ui_process(udd_get_frame_number());
}
    3c98:	df 91       	pop	r29
    3c9a:	cf 91       	pop	r28
    3c9c:	08 95       	ret

00003c9e <main_cdc_enable>:

bool main_cdc_enable(uint8_t port)
{
    3c9e:	cf 93       	push	r28
    3ca0:	df 93       	push	r29
    3ca2:	1f 92       	push	r1
    3ca4:	cd b7       	in	r28, 0x3d	; 61
    3ca6:	de b7       	in	r29, 0x3e	; 62
    3ca8:	89 83       	std	Y+1, r24	; 0x01
	main_b_cdc_enable = true;
    3caa:	81 e0       	ldi	r24, 0x01	; 1
    3cac:	80 93 86 22 	sts	0x2286, r24	; 0x802286 <main_b_cdc_enable>
	main_port_open = 0;
    3cb0:	10 92 87 22 	sts	0x2287, r1	; 0x802287 <main_port_open>
	// Open communication
	//uart_open(port);
	return true;
    3cb4:	81 e0       	ldi	r24, 0x01	; 1
}
    3cb6:	0f 90       	pop	r0
    3cb8:	df 91       	pop	r29
    3cba:	cf 91       	pop	r28
    3cbc:	08 95       	ret

00003cbe <main_cdc_disable>:

void main_cdc_disable(uint8_t port)
{
    3cbe:	cf 93       	push	r28
    3cc0:	df 93       	push	r29
    3cc2:	1f 92       	push	r1
    3cc4:	cd b7       	in	r28, 0x3d	; 61
    3cc6:	de b7       	in	r29, 0x3e	; 62
    3cc8:	89 83       	std	Y+1, r24	; 0x01
	main_b_cdc_enable = false;
    3cca:	10 92 86 22 	sts	0x2286, r1	; 0x802286 <main_b_cdc_enable>
	// Close communication
	//uart_close(port);
}
    3cce:	00 00       	nop
    3cd0:	0f 90       	pop	r0
    3cd2:	df 91       	pop	r29
    3cd4:	cf 91       	pop	r28
    3cd6:	08 95       	ret

00003cd8 <main_cdc_set_dtr>:

void main_cdc_set_dtr(uint8_t port, bool b_enable)
{
    3cd8:	cf 93       	push	r28
    3cda:	df 93       	push	r29
    3cdc:	1f 92       	push	r1
    3cde:	1f 92       	push	r1
    3ce0:	cd b7       	in	r28, 0x3d	; 61
    3ce2:	de b7       	in	r29, 0x3e	; 62
    3ce4:	89 83       	std	Y+1, r24	; 0x01
    3ce6:	6a 83       	std	Y+2, r22	; 0x02
	if (b_enable) {
    3ce8:	8a 81       	ldd	r24, Y+2	; 0x02
    3cea:	88 23       	and	r24, r24
    3cec:	89 f0       	breq	.+34     	; 0x3d10 <main_cdc_set_dtr+0x38>
		// Host terminal has open COM
		main_port_open |= 1 << port;
    3cee:	89 81       	ldd	r24, Y+1	; 0x01
    3cf0:	28 2f       	mov	r18, r24
    3cf2:	30 e0       	ldi	r19, 0x00	; 0
    3cf4:	81 e0       	ldi	r24, 0x01	; 1
    3cf6:	90 e0       	ldi	r25, 0x00	; 0
    3cf8:	02 c0       	rjmp	.+4      	; 0x3cfe <main_cdc_set_dtr+0x26>
    3cfa:	88 0f       	add	r24, r24
    3cfc:	99 1f       	adc	r25, r25
    3cfe:	2a 95       	dec	r18
    3d00:	e2 f7       	brpl	.-8      	; 0x3cfa <main_cdc_set_dtr+0x22>
    3d02:	98 2f       	mov	r25, r24
    3d04:	80 91 87 22 	lds	r24, 0x2287	; 0x802287 <main_port_open>
    3d08:	89 2b       	or	r24, r25
    3d0a:	80 93 87 22 	sts	0x2287, r24	; 0x802287 <main_port_open>
	}else{
		// Host terminal has close COM
		main_port_open &= ~(1 << port);
		//ui_com_close(port);
	}
    3d0e:	10 c0       	rjmp	.+32     	; 0x3d30 <main_cdc_set_dtr+0x58>
		// Host terminal has open COM
		main_port_open |= 1 << port;
		//ui_com_open(port);
	}else{
		// Host terminal has close COM
		main_port_open &= ~(1 << port);
    3d10:	89 81       	ldd	r24, Y+1	; 0x01
    3d12:	28 2f       	mov	r18, r24
    3d14:	30 e0       	ldi	r19, 0x00	; 0
    3d16:	81 e0       	ldi	r24, 0x01	; 1
    3d18:	90 e0       	ldi	r25, 0x00	; 0
    3d1a:	02 c0       	rjmp	.+4      	; 0x3d20 <main_cdc_set_dtr+0x48>
    3d1c:	88 0f       	add	r24, r24
    3d1e:	99 1f       	adc	r25, r25
    3d20:	2a 95       	dec	r18
    3d22:	e2 f7       	brpl	.-8      	; 0x3d1c <main_cdc_set_dtr+0x44>
    3d24:	80 95       	com	r24
    3d26:	90 91 87 22 	lds	r25, 0x2287	; 0x802287 <main_port_open>
    3d2a:	89 23       	and	r24, r25
    3d2c:	80 93 87 22 	sts	0x2287, r24	; 0x802287 <main_port_open>
		//ui_com_close(port);
	}
    3d30:	00 00       	nop
    3d32:	0f 90       	pop	r0
    3d34:	0f 90       	pop	r0
    3d36:	df 91       	pop	r29
    3d38:	cf 91       	pop	r28
    3d3a:	08 95       	ret

00003d3c <cpu_irq_save>:
    3d3c:	cf 93       	push	r28
    3d3e:	df 93       	push	r29
    3d40:	1f 92       	push	r1
    3d42:	cd b7       	in	r28, 0x3d	; 61
    3d44:	de b7       	in	r29, 0x3e	; 62
    3d46:	8f e3       	ldi	r24, 0x3F	; 63
    3d48:	90 e0       	ldi	r25, 0x00	; 0
    3d4a:	fc 01       	movw	r30, r24
    3d4c:	80 81       	ld	r24, Z
    3d4e:	89 83       	std	Y+1, r24	; 0x01
    3d50:	f8 94       	cli
    3d52:	89 81       	ldd	r24, Y+1	; 0x01
    3d54:	0f 90       	pop	r0
    3d56:	df 91       	pop	r29
    3d58:	cf 91       	pop	r28
    3d5a:	08 95       	ret

00003d5c <cpu_irq_restore>:
    3d5c:	cf 93       	push	r28
    3d5e:	df 93       	push	r29
    3d60:	1f 92       	push	r1
    3d62:	cd b7       	in	r28, 0x3d	; 61
    3d64:	de b7       	in	r29, 0x3e	; 62
    3d66:	89 83       	std	Y+1, r24	; 0x01
    3d68:	8f e3       	ldi	r24, 0x3F	; 63
    3d6a:	90 e0       	ldi	r25, 0x00	; 0
    3d6c:	29 81       	ldd	r18, Y+1	; 0x01
    3d6e:	fc 01       	movw	r30, r24
    3d70:	20 83       	st	Z, r18
    3d72:	00 00       	nop
    3d74:	0f 90       	pop	r0
    3d76:	df 91       	pop	r29
    3d78:	cf 91       	pop	r28
    3d7a:	08 95       	ret

00003d7c <osc_enable_internal>:
    3d7c:	cf 93       	push	r28
    3d7e:	df 93       	push	r29
    3d80:	1f 92       	push	r1
    3d82:	1f 92       	push	r1
    3d84:	cd b7       	in	r28, 0x3d	; 61
    3d86:	de b7       	in	r29, 0x3e	; 62
    3d88:	8a 83       	std	Y+2, r24	; 0x02
    3d8a:	d8 df       	rcall	.-80     	; 0x3d3c <cpu_irq_save>
    3d8c:	89 83       	std	Y+1, r24	; 0x01
    3d8e:	80 e5       	ldi	r24, 0x50	; 80
    3d90:	90 e0       	ldi	r25, 0x00	; 0
    3d92:	20 e5       	ldi	r18, 0x50	; 80
    3d94:	30 e0       	ldi	r19, 0x00	; 0
    3d96:	f9 01       	movw	r30, r18
    3d98:	30 81       	ld	r19, Z
    3d9a:	2a 81       	ldd	r18, Y+2	; 0x02
    3d9c:	23 2b       	or	r18, r19
    3d9e:	fc 01       	movw	r30, r24
    3da0:	20 83       	st	Z, r18
    3da2:	89 81       	ldd	r24, Y+1	; 0x01
    3da4:	db df       	rcall	.-74     	; 0x3d5c <cpu_irq_restore>
    3da6:	00 00       	nop
    3da8:	0f 90       	pop	r0
    3daa:	0f 90       	pop	r0
    3dac:	df 91       	pop	r29
    3dae:	cf 91       	pop	r28
    3db0:	08 95       	ret

00003db2 <osc_enable_external>:
    3db2:	cf 93       	push	r28
    3db4:	df 93       	push	r29
    3db6:	1f 92       	push	r1
    3db8:	cd b7       	in	r28, 0x3d	; 61
    3dba:	de b7       	in	r29, 0x3e	; 62
    3dbc:	89 83       	std	Y+1, r24	; 0x01
    3dbe:	00 00       	nop
    3dc0:	0f 90       	pop	r0
    3dc2:	df 91       	pop	r29
    3dc4:	cf 91       	pop	r28
    3dc6:	08 95       	ret

00003dc8 <osc_disable>:
    3dc8:	cf 93       	push	r28
    3dca:	df 93       	push	r29
    3dcc:	1f 92       	push	r1
    3dce:	1f 92       	push	r1
    3dd0:	cd b7       	in	r28, 0x3d	; 61
    3dd2:	de b7       	in	r29, 0x3e	; 62
    3dd4:	8a 83       	std	Y+2, r24	; 0x02
    3dd6:	b2 df       	rcall	.-156    	; 0x3d3c <cpu_irq_save>
    3dd8:	89 83       	std	Y+1, r24	; 0x01
    3dda:	80 e5       	ldi	r24, 0x50	; 80
    3ddc:	90 e0       	ldi	r25, 0x00	; 0
    3dde:	20 e5       	ldi	r18, 0x50	; 80
    3de0:	30 e0       	ldi	r19, 0x00	; 0
    3de2:	f9 01       	movw	r30, r18
    3de4:	20 81       	ld	r18, Z
    3de6:	32 2f       	mov	r19, r18
    3de8:	2a 81       	ldd	r18, Y+2	; 0x02
    3dea:	20 95       	com	r18
    3dec:	23 23       	and	r18, r19
    3dee:	fc 01       	movw	r30, r24
    3df0:	20 83       	st	Z, r18
    3df2:	89 81       	ldd	r24, Y+1	; 0x01
    3df4:	b3 df       	rcall	.-154    	; 0x3d5c <cpu_irq_restore>
    3df6:	00 00       	nop
    3df8:	0f 90       	pop	r0
    3dfa:	0f 90       	pop	r0
    3dfc:	df 91       	pop	r29
    3dfe:	cf 91       	pop	r28
    3e00:	08 95       	ret

00003e02 <osc_enable>:
    3e02:	cf 93       	push	r28
    3e04:	df 93       	push	r29
    3e06:	1f 92       	push	r1
    3e08:	cd b7       	in	r28, 0x3d	; 61
    3e0a:	de b7       	in	r29, 0x3e	; 62
    3e0c:	89 83       	std	Y+1, r24	; 0x01
    3e0e:	89 81       	ldd	r24, Y+1	; 0x01
    3e10:	88 30       	cpi	r24, 0x08	; 8
    3e12:	19 f0       	breq	.+6      	; 0x3e1a <osc_enable+0x18>
    3e14:	89 81       	ldd	r24, Y+1	; 0x01
    3e16:	b2 df       	rcall	.-156    	; 0x3d7c <osc_enable_internal>
    3e18:	02 c0       	rjmp	.+4      	; 0x3e1e <osc_enable+0x1c>
    3e1a:	89 81       	ldd	r24, Y+1	; 0x01
    3e1c:	ca df       	rcall	.-108    	; 0x3db2 <osc_enable_external>
    3e1e:	00 00       	nop
    3e20:	0f 90       	pop	r0
    3e22:	df 91       	pop	r29
    3e24:	cf 91       	pop	r28
    3e26:	08 95       	ret

00003e28 <osc_is_ready>:
    3e28:	cf 93       	push	r28
    3e2a:	df 93       	push	r29
    3e2c:	1f 92       	push	r1
    3e2e:	cd b7       	in	r28, 0x3d	; 61
    3e30:	de b7       	in	r29, 0x3e	; 62
    3e32:	89 83       	std	Y+1, r24	; 0x01
    3e34:	80 e5       	ldi	r24, 0x50	; 80
    3e36:	90 e0       	ldi	r25, 0x00	; 0
    3e38:	fc 01       	movw	r30, r24
    3e3a:	91 81       	ldd	r25, Z+1	; 0x01
    3e3c:	89 81       	ldd	r24, Y+1	; 0x01
    3e3e:	98 23       	and	r25, r24
    3e40:	81 e0       	ldi	r24, 0x01	; 1
    3e42:	99 23       	and	r25, r25
    3e44:	09 f4       	brne	.+2      	; 0x3e48 <osc_is_ready+0x20>
    3e46:	80 e0       	ldi	r24, 0x00	; 0
    3e48:	0f 90       	pop	r0
    3e4a:	df 91       	pop	r29
    3e4c:	cf 91       	pop	r28
    3e4e:	08 95       	ret

00003e50 <osc_enable_autocalibration>:
    3e50:	cf 93       	push	r28
    3e52:	df 93       	push	r29
    3e54:	00 d0       	rcall	.+0      	; 0x3e56 <osc_enable_autocalibration+0x6>
    3e56:	cd b7       	in	r28, 0x3d	; 61
    3e58:	de b7       	in	r29, 0x3e	; 62
    3e5a:	8a 83       	std	Y+2, r24	; 0x02
    3e5c:	6b 83       	std	Y+3, r22	; 0x03
    3e5e:	6e df       	rcall	.-292    	; 0x3d3c <cpu_irq_save>
    3e60:	89 83       	std	Y+1, r24	; 0x01
    3e62:	8a 81       	ldd	r24, Y+2	; 0x02
    3e64:	88 2f       	mov	r24, r24
    3e66:	90 e0       	ldi	r25, 0x00	; 0
    3e68:	81 30       	cpi	r24, 0x01	; 1
    3e6a:	91 05       	cpc	r25, r1
    3e6c:	19 f0       	breq	.+6      	; 0x3e74 <osc_enable_autocalibration+0x24>
    3e6e:	02 97       	sbiw	r24, 0x02	; 2
    3e70:	19 f1       	breq	.+70     	; 0x3eb8 <osc_enable_autocalibration+0x68>
    3e72:	66 c0       	rjmp	.+204    	; 0x3f40 <osc_enable_autocalibration+0xf0>
    3e74:	8b 81       	ldd	r24, Y+3	; 0x03
    3e76:	88 30       	cpi	r24, 0x08	; 8
    3e78:	61 f4       	brne	.+24     	; 0x3e92 <osc_enable_autocalibration+0x42>
    3e7a:	84 e0       	ldi	r24, 0x04	; 4
    3e7c:	c2 df       	rcall	.-124    	; 0x3e02 <osc_enable>
    3e7e:	80 e5       	ldi	r24, 0x50	; 80
    3e80:	90 e0       	ldi	r25, 0x00	; 0
    3e82:	20 e5       	ldi	r18, 0x50	; 80
    3e84:	30 e0       	ldi	r19, 0x00	; 0
    3e86:	f9 01       	movw	r30, r18
    3e88:	26 81       	ldd	r18, Z+6	; 0x06
    3e8a:	21 60       	ori	r18, 0x01	; 1
    3e8c:	fc 01       	movw	r30, r24
    3e8e:	26 83       	std	Z+6, r18	; 0x06
    3e90:	09 c0       	rjmp	.+18     	; 0x3ea4 <osc_enable_autocalibration+0x54>
    3e92:	80 e5       	ldi	r24, 0x50	; 80
    3e94:	90 e0       	ldi	r25, 0x00	; 0
    3e96:	20 e5       	ldi	r18, 0x50	; 80
    3e98:	30 e0       	ldi	r19, 0x00	; 0
    3e9a:	f9 01       	movw	r30, r18
    3e9c:	26 81       	ldd	r18, Z+6	; 0x06
    3e9e:	2e 7f       	andi	r18, 0xFE	; 254
    3ea0:	fc 01       	movw	r30, r24
    3ea2:	26 83       	std	Z+6, r18	; 0x06
    3ea4:	88 e6       	ldi	r24, 0x68	; 104
    3ea6:	90 e0       	ldi	r25, 0x00	; 0
    3ea8:	28 e6       	ldi	r18, 0x68	; 104
    3eaa:	30 e0       	ldi	r19, 0x00	; 0
    3eac:	f9 01       	movw	r30, r18
    3eae:	20 81       	ld	r18, Z
    3eb0:	21 60       	ori	r18, 0x01	; 1
    3eb2:	fc 01       	movw	r30, r24
    3eb4:	20 83       	st	Z, r18
    3eb6:	44 c0       	rjmp	.+136    	; 0x3f40 <osc_enable_autocalibration+0xf0>
    3eb8:	80 e5       	ldi	r24, 0x50	; 80
    3eba:	90 e0       	ldi	r25, 0x00	; 0
    3ebc:	20 e5       	ldi	r18, 0x50	; 80
    3ebe:	30 e0       	ldi	r19, 0x00	; 0
    3ec0:	f9 01       	movw	r30, r18
    3ec2:	26 81       	ldd	r18, Z+6	; 0x06
    3ec4:	29 7f       	andi	r18, 0xF9	; 249
    3ec6:	fc 01       	movw	r30, r24
    3ec8:	26 83       	std	Z+6, r18	; 0x06
    3eca:	8b 81       	ldd	r24, Y+3	; 0x03
    3ecc:	88 30       	cpi	r24, 0x08	; 8
    3ece:	61 f4       	brne	.+24     	; 0x3ee8 <osc_enable_autocalibration+0x98>
    3ed0:	84 e0       	ldi	r24, 0x04	; 4
    3ed2:	97 df       	rcall	.-210    	; 0x3e02 <osc_enable>
    3ed4:	80 e5       	ldi	r24, 0x50	; 80
    3ed6:	90 e0       	ldi	r25, 0x00	; 0
    3ed8:	20 e5       	ldi	r18, 0x50	; 80
    3eda:	30 e0       	ldi	r19, 0x00	; 0
    3edc:	f9 01       	movw	r30, r18
    3ede:	26 81       	ldd	r18, Z+6	; 0x06
    3ee0:	22 60       	ori	r18, 0x02	; 2
    3ee2:	fc 01       	movw	r30, r24
    3ee4:	26 83       	std	Z+6, r18	; 0x06
    3ee6:	22 c0       	rjmp	.+68     	; 0x3f2c <osc_enable_autocalibration+0xdc>
    3ee8:	8b 81       	ldd	r24, Y+3	; 0x03
    3eea:	84 30       	cpi	r24, 0x04	; 4
    3eec:	49 f4       	brne	.+18     	; 0x3f00 <osc_enable_autocalibration+0xb0>
    3eee:	80 e5       	ldi	r24, 0x50	; 80
    3ef0:	90 e0       	ldi	r25, 0x00	; 0
    3ef2:	20 e5       	ldi	r18, 0x50	; 80
    3ef4:	30 e0       	ldi	r19, 0x00	; 0
    3ef6:	f9 01       	movw	r30, r18
    3ef8:	26 81       	ldd	r18, Z+6	; 0x06
    3efa:	fc 01       	movw	r30, r24
    3efc:	26 83       	std	Z+6, r18	; 0x06
    3efe:	16 c0       	rjmp	.+44     	; 0x3f2c <osc_enable_autocalibration+0xdc>
    3f00:	8b 81       	ldd	r24, Y+3	; 0x03
    3f02:	8f 3f       	cpi	r24, 0xFF	; 255
    3f04:	99 f4       	brne	.+38     	; 0x3f2c <osc_enable_autocalibration+0xdc>
    3f06:	80 e6       	ldi	r24, 0x60	; 96
    3f08:	90 e0       	ldi	r25, 0x00	; 0
    3f0a:	20 e8       	ldi	r18, 0x80	; 128
    3f0c:	fc 01       	movw	r30, r24
    3f0e:	25 83       	std	Z+5, r18	; 0x05
    3f10:	80 e6       	ldi	r24, 0x60	; 96
    3f12:	90 e0       	ldi	r25, 0x00	; 0
    3f14:	2b eb       	ldi	r18, 0xBB	; 187
    3f16:	fc 01       	movw	r30, r24
    3f18:	26 83       	std	Z+6, r18	; 0x06
    3f1a:	80 e5       	ldi	r24, 0x50	; 80
    3f1c:	90 e0       	ldi	r25, 0x00	; 0
    3f1e:	20 e5       	ldi	r18, 0x50	; 80
    3f20:	30 e0       	ldi	r19, 0x00	; 0
    3f22:	f9 01       	movw	r30, r18
    3f24:	26 81       	ldd	r18, Z+6	; 0x06
    3f26:	24 60       	ori	r18, 0x04	; 4
    3f28:	fc 01       	movw	r30, r24
    3f2a:	26 83       	std	Z+6, r18	; 0x06
    3f2c:	80 e6       	ldi	r24, 0x60	; 96
    3f2e:	90 e0       	ldi	r25, 0x00	; 0
    3f30:	20 e6       	ldi	r18, 0x60	; 96
    3f32:	30 e0       	ldi	r19, 0x00	; 0
    3f34:	f9 01       	movw	r30, r18
    3f36:	20 81       	ld	r18, Z
    3f38:	21 60       	ori	r18, 0x01	; 1
    3f3a:	fc 01       	movw	r30, r24
    3f3c:	20 83       	st	Z, r18
    3f3e:	00 00       	nop
    3f40:	89 81       	ldd	r24, Y+1	; 0x01
    3f42:	0c df       	rcall	.-488    	; 0x3d5c <cpu_irq_restore>
    3f44:	00 00       	nop
    3f46:	23 96       	adiw	r28, 0x03	; 3
    3f48:	cd bf       	out	0x3d, r28	; 61
    3f4a:	de bf       	out	0x3e, r29	; 62
    3f4c:	df 91       	pop	r29
    3f4e:	cf 91       	pop	r28
    3f50:	08 95       	ret

00003f52 <osc_user_calibration>:
    3f52:	cf 93       	push	r28
    3f54:	df 93       	push	r29
    3f56:	00 d0       	rcall	.+0      	; 0x3f58 <osc_user_calibration+0x6>
    3f58:	cd b7       	in	r28, 0x3d	; 61
    3f5a:	de b7       	in	r29, 0x3e	; 62
    3f5c:	89 83       	std	Y+1, r24	; 0x01
    3f5e:	6a 83       	std	Y+2, r22	; 0x02
    3f60:	7b 83       	std	Y+3, r23	; 0x03
    3f62:	89 81       	ldd	r24, Y+1	; 0x01
    3f64:	88 2f       	mov	r24, r24
    3f66:	90 e0       	ldi	r25, 0x00	; 0
    3f68:	81 30       	cpi	r24, 0x01	; 1
    3f6a:	91 05       	cpc	r25, r1
    3f6c:	19 f0       	breq	.+6      	; 0x3f74 <osc_user_calibration+0x22>
    3f6e:	02 97       	sbiw	r24, 0x02	; 2
    3f70:	81 f0       	breq	.+32     	; 0x3f92 <osc_user_calibration+0x40>
    3f72:	1e c0       	rjmp	.+60     	; 0x3fb0 <osc_user_calibration+0x5e>
    3f74:	88 e6       	ldi	r24, 0x68	; 104
    3f76:	90 e0       	ldi	r25, 0x00	; 0
    3f78:	9e 01       	movw	r18, r28
    3f7a:	2e 5f       	subi	r18, 0xFE	; 254
    3f7c:	3f 4f       	sbci	r19, 0xFF	; 255
    3f7e:	f9 01       	movw	r30, r18
    3f80:	20 81       	ld	r18, Z
    3f82:	fc 01       	movw	r30, r24
    3f84:	22 83       	std	Z+2, r18	; 0x02
    3f86:	88 e6       	ldi	r24, 0x68	; 104
    3f88:	90 e0       	ldi	r25, 0x00	; 0
    3f8a:	2b 81       	ldd	r18, Y+3	; 0x03
    3f8c:	fc 01       	movw	r30, r24
    3f8e:	23 83       	std	Z+3, r18	; 0x03
    3f90:	0f c0       	rjmp	.+30     	; 0x3fb0 <osc_user_calibration+0x5e>
    3f92:	80 e6       	ldi	r24, 0x60	; 96
    3f94:	90 e0       	ldi	r25, 0x00	; 0
    3f96:	9e 01       	movw	r18, r28
    3f98:	2e 5f       	subi	r18, 0xFE	; 254
    3f9a:	3f 4f       	sbci	r19, 0xFF	; 255
    3f9c:	f9 01       	movw	r30, r18
    3f9e:	20 81       	ld	r18, Z
    3fa0:	fc 01       	movw	r30, r24
    3fa2:	22 83       	std	Z+2, r18	; 0x02
    3fa4:	80 e6       	ldi	r24, 0x60	; 96
    3fa6:	90 e0       	ldi	r25, 0x00	; 0
    3fa8:	2b 81       	ldd	r18, Y+3	; 0x03
    3faa:	fc 01       	movw	r30, r24
    3fac:	23 83       	std	Z+3, r18	; 0x03
    3fae:	00 00       	nop
    3fb0:	00 00       	nop
    3fb2:	23 96       	adiw	r28, 0x03	; 3
    3fb4:	cd bf       	out	0x3d, r28	; 61
    3fb6:	de bf       	out	0x3e, r29	; 62
    3fb8:	df 91       	pop	r29
    3fba:	cf 91       	pop	r28
    3fbc:	08 95       	ret

00003fbe <osc_wait_ready>:
    3fbe:	cf 93       	push	r28
    3fc0:	df 93       	push	r29
    3fc2:	1f 92       	push	r1
    3fc4:	cd b7       	in	r28, 0x3d	; 61
    3fc6:	de b7       	in	r29, 0x3e	; 62
    3fc8:	89 83       	std	Y+1, r24	; 0x01
    3fca:	00 00       	nop
    3fcc:	89 81       	ldd	r24, Y+1	; 0x01
    3fce:	2c df       	rcall	.-424    	; 0x3e28 <osc_is_ready>
    3fd0:	98 2f       	mov	r25, r24
    3fd2:	81 e0       	ldi	r24, 0x01	; 1
    3fd4:	89 27       	eor	r24, r25
    3fd6:	88 23       	and	r24, r24
    3fd8:	c9 f7       	brne	.-14     	; 0x3fcc <osc_wait_ready+0xe>
    3fda:	00 00       	nop
    3fdc:	0f 90       	pop	r0
    3fde:	df 91       	pop	r29
    3fe0:	cf 91       	pop	r28
    3fe2:	08 95       	ret

00003fe4 <sysclk_set_prescalers>:
    3fe4:	cf 93       	push	r28
    3fe6:	df 93       	push	r29
    3fe8:	1f 92       	push	r1
    3fea:	1f 92       	push	r1
    3fec:	cd b7       	in	r28, 0x3d	; 61
    3fee:	de b7       	in	r29, 0x3e	; 62
    3ff0:	89 83       	std	Y+1, r24	; 0x01
    3ff2:	6a 83       	std	Y+2, r22	; 0x02
    3ff4:	99 81       	ldd	r25, Y+1	; 0x01
    3ff6:	8a 81       	ldd	r24, Y+2	; 0x02
    3ff8:	89 2b       	or	r24, r25
    3ffa:	68 2f       	mov	r22, r24
    3ffc:	81 e4       	ldi	r24, 0x41	; 65
    3ffe:	90 e0       	ldi	r25, 0x00	; 0
    4000:	be d0       	rcall	.+380    	; 0x417e <ccp_write_io>
    4002:	00 00       	nop
    4004:	0f 90       	pop	r0
    4006:	0f 90       	pop	r0
    4008:	df 91       	pop	r29
    400a:	cf 91       	pop	r28
    400c:	08 95       	ret

0000400e <nvm_read_production_signature_row>:
    400e:	cf 93       	push	r28
    4010:	df 93       	push	r29
    4012:	1f 92       	push	r1
    4014:	cd b7       	in	r28, 0x3d	; 61
    4016:	de b7       	in	r29, 0x3e	; 62
    4018:	89 83       	std	Y+1, r24	; 0x01
    401a:	89 81       	ldd	r24, Y+1	; 0x01
    401c:	88 2f       	mov	r24, r24
    401e:	90 e0       	ldi	r25, 0x00	; 0
    4020:	bc 01       	movw	r22, r24
    4022:	82 e0       	ldi	r24, 0x02	; 2
    4024:	b2 d0       	rcall	.+356    	; 0x418a <nvm_read_byte>
    4026:	0f 90       	pop	r0
    4028:	df 91       	pop	r29
    402a:	cf 91       	pop	r28
    402c:	08 95       	ret

0000402e <sysclk_init>:
    402e:	0f 93       	push	r16
    4030:	1f 93       	push	r17
    4032:	cf 93       	push	r28
    4034:	df 93       	push	r29
    4036:	00 d0       	rcall	.+0      	; 0x4038 <sysclk_init+0xa>
    4038:	00 d0       	rcall	.+0      	; 0x403a <sysclk_init+0xc>
    403a:	cd b7       	in	r28, 0x3d	; 61
    403c:	de b7       	in	r29, 0x3e	; 62
    403e:	80 e7       	ldi	r24, 0x70	; 112
    4040:	90 e0       	ldi	r25, 0x00	; 0
    4042:	89 83       	std	Y+1, r24	; 0x01
    4044:	9a 83       	std	Y+2, r25	; 0x02
    4046:	1c 82       	std	Y+4, r1	; 0x04
    4048:	1b 82       	std	Y+3, r1	; 0x03
    404a:	0d c0       	rjmp	.+26     	; 0x4066 <sysclk_init+0x38>
    404c:	89 81       	ldd	r24, Y+1	; 0x01
    404e:	9a 81       	ldd	r25, Y+2	; 0x02
    4050:	9c 01       	movw	r18, r24
    4052:	2f 5f       	subi	r18, 0xFF	; 255
    4054:	3f 4f       	sbci	r19, 0xFF	; 255
    4056:	29 83       	std	Y+1, r18	; 0x01
    4058:	3a 83       	std	Y+2, r19	; 0x02
    405a:	2f ef       	ldi	r18, 0xFF	; 255
    405c:	fc 01       	movw	r30, r24
    405e:	20 83       	st	Z, r18
    4060:	8b 81       	ldd	r24, Y+3	; 0x03
    4062:	8f 5f       	subi	r24, 0xFF	; 255
    4064:	8b 83       	std	Y+3, r24	; 0x03
    4066:	8b 81       	ldd	r24, Y+3	; 0x03
    4068:	87 30       	cpi	r24, 0x07	; 7
    406a:	80 f3       	brcs	.-32     	; 0x404c <sysclk_init+0x1e>
    406c:	60 e0       	ldi	r22, 0x00	; 0
    406e:	84 e0       	ldi	r24, 0x04	; 4
    4070:	b9 df       	rcall	.-142    	; 0x3fe4 <sysclk_set_prescalers>
    4072:	8e 01       	movw	r16, r28
    4074:	0b 5f       	subi	r16, 0xFB	; 251
    4076:	1f 4f       	sbci	r17, 0xFF	; 255
    4078:	0f 5f       	subi	r16, 0xFF	; 255
    407a:	1f 4f       	sbci	r17, 0xFF	; 255
    407c:	8c e1       	ldi	r24, 0x1C	; 28
    407e:	c7 df       	rcall	.-114    	; 0x400e <nvm_read_production_signature_row>
    4080:	f8 01       	movw	r30, r16
    4082:	80 83       	st	Z, r24
    4084:	8e 01       	movw	r16, r28
    4086:	0b 5f       	subi	r16, 0xFB	; 251
    4088:	1f 4f       	sbci	r17, 0xFF	; 255
    408a:	8d e1       	ldi	r24, 0x1D	; 29
    408c:	c0 df       	rcall	.-128    	; 0x400e <nvm_read_production_signature_row>
    408e:	f8 01       	movw	r30, r16
    4090:	80 83       	st	Z, r24
    4092:	8d 81       	ldd	r24, Y+5	; 0x05
    4094:	9e 81       	ldd	r25, Y+6	; 0x06
    4096:	01 96       	adiw	r24, 0x01	; 1
    4098:	21 f4       	brne	.+8      	; 0x40a2 <sysclk_init+0x74>
    409a:	80 e4       	ldi	r24, 0x40	; 64
    409c:	93 e2       	ldi	r25, 0x23	; 35
    409e:	8d 83       	std	Y+5, r24	; 0x05
    40a0:	9e 83       	std	Y+6, r25	; 0x06
    40a2:	8d 81       	ldd	r24, Y+5	; 0x05
    40a4:	9e 81       	ldd	r25, Y+6	; 0x06
    40a6:	bc 01       	movw	r22, r24
    40a8:	82 e0       	ldi	r24, 0x02	; 2
    40aa:	53 df       	rcall	.-346    	; 0x3f52 <osc_user_calibration>
    40ac:	82 e0       	ldi	r24, 0x02	; 2
    40ae:	a9 de       	rcall	.-686    	; 0x3e02 <osc_enable>
    40b0:	82 e0       	ldi	r24, 0x02	; 2
    40b2:	85 df       	rcall	.-246    	; 0x3fbe <osc_wait_ready>
    40b4:	6f ef       	ldi	r22, 0xFF	; 255
    40b6:	82 e0       	ldi	r24, 0x02	; 2
    40b8:	cb de       	rcall	.-618    	; 0x3e50 <osc_enable_autocalibration>
    40ba:	00 00       	nop
    40bc:	61 e0       	ldi	r22, 0x01	; 1
    40be:	80 e4       	ldi	r24, 0x40	; 64
    40c0:	90 e0       	ldi	r25, 0x00	; 0
    40c2:	5d d0       	rcall	.+186    	; 0x417e <ccp_write_io>
    40c4:	8c 81       	ldd	r24, Y+4	; 0x04
    40c6:	88 23       	and	r24, r24
    40c8:	11 f4       	brne	.+4      	; 0x40ce <sysclk_init+0xa0>
    40ca:	81 e0       	ldi	r24, 0x01	; 1
    40cc:	7d de       	rcall	.-774    	; 0x3dc8 <osc_disable>
    40ce:	26 96       	adiw	r28, 0x06	; 6
    40d0:	cd bf       	out	0x3d, r28	; 61
    40d2:	de bf       	out	0x3e, r29	; 62
    40d4:	df 91       	pop	r29
    40d6:	cf 91       	pop	r28
    40d8:	1f 91       	pop	r17
    40da:	0f 91       	pop	r16
    40dc:	08 95       	ret

000040de <sysclk_enable_module>:
    40de:	cf 93       	push	r28
    40e0:	df 93       	push	r29
    40e2:	00 d0       	rcall	.+0      	; 0x40e4 <sysclk_enable_module+0x6>
    40e4:	cd b7       	in	r28, 0x3d	; 61
    40e6:	de b7       	in	r29, 0x3e	; 62
    40e8:	8a 83       	std	Y+2, r24	; 0x02
    40ea:	6b 83       	std	Y+3, r22	; 0x03
    40ec:	27 de       	rcall	.-946    	; 0x3d3c <cpu_irq_save>
    40ee:	89 83       	std	Y+1, r24	; 0x01
    40f0:	8a 81       	ldd	r24, Y+2	; 0x02
    40f2:	88 2f       	mov	r24, r24
    40f4:	90 e0       	ldi	r25, 0x00	; 0
    40f6:	80 59       	subi	r24, 0x90	; 144
    40f8:	9f 4f       	sbci	r25, 0xFF	; 255
    40fa:	2a 81       	ldd	r18, Y+2	; 0x02
    40fc:	22 2f       	mov	r18, r18
    40fe:	30 e0       	ldi	r19, 0x00	; 0
    4100:	20 59       	subi	r18, 0x90	; 144
    4102:	3f 4f       	sbci	r19, 0xFF	; 255
    4104:	f9 01       	movw	r30, r18
    4106:	20 81       	ld	r18, Z
    4108:	32 2f       	mov	r19, r18
    410a:	2b 81       	ldd	r18, Y+3	; 0x03
    410c:	20 95       	com	r18
    410e:	23 23       	and	r18, r19
    4110:	fc 01       	movw	r30, r24
    4112:	20 83       	st	Z, r18
    4114:	89 81       	ldd	r24, Y+1	; 0x01
    4116:	22 de       	rcall	.-956    	; 0x3d5c <cpu_irq_restore>
    4118:	00 00       	nop
    411a:	23 96       	adiw	r28, 0x03	; 3
    411c:	cd bf       	out	0x3d, r28	; 61
    411e:	de bf       	out	0x3e, r29	; 62
    4120:	df 91       	pop	r29
    4122:	cf 91       	pop	r28
    4124:	08 95       	ret

00004126 <sysclk_enable_usb>:
    4126:	cf 93       	push	r28
    4128:	df 93       	push	r29
    412a:	1f 92       	push	r1
    412c:	1f 92       	push	r1
    412e:	cd b7       	in	r28, 0x3d	; 61
    4130:	de b7       	in	r29, 0x3e	; 62
    4132:	8a 83       	std	Y+2, r24	; 0x02
    4134:	8a 81       	ldd	r24, Y+2	; 0x02
    4136:	86 30       	cpi	r24, 0x06	; 6
    4138:	19 f4       	brne	.+6      	; 0x4140 <sysclk_enable_usb+0x1a>
    413a:	88 e1       	ldi	r24, 0x18	; 24
    413c:	89 83       	std	Y+1, r24	; 0x01
    413e:	01 c0       	rjmp	.+2      	; 0x4142 <sysclk_enable_usb+0x1c>
    4140:	19 82       	std	Y+1, r1	; 0x01
    4142:	82 e0       	ldi	r24, 0x02	; 2
    4144:	71 de       	rcall	.-798    	; 0x3e28 <osc_is_ready>
    4146:	98 2f       	mov	r25, r24
    4148:	81 e0       	ldi	r24, 0x01	; 1
    414a:	89 27       	eor	r24, r25
    414c:	88 23       	and	r24, r24
    414e:	39 f0       	breq	.+14     	; 0x415e <sysclk_enable_usb+0x38>
    4150:	82 e0       	ldi	r24, 0x02	; 2
    4152:	57 de       	rcall	.-850    	; 0x3e02 <osc_enable>
    4154:	82 e0       	ldi	r24, 0x02	; 2
    4156:	33 df       	rcall	.-410    	; 0x3fbe <osc_wait_ready>
    4158:	6f ef       	ldi	r22, 0xFF	; 255
    415a:	82 e0       	ldi	r24, 0x02	; 2
    415c:	79 de       	rcall	.-782    	; 0x3e50 <osc_enable_autocalibration>
    415e:	89 81       	ldd	r24, Y+1	; 0x01
    4160:	83 60       	ori	r24, 0x03	; 3
    4162:	68 2f       	mov	r22, r24
    4164:	84 e4       	ldi	r24, 0x44	; 68
    4166:	90 e0       	ldi	r25, 0x00	; 0
    4168:	0a d0       	rcall	.+20     	; 0x417e <ccp_write_io>
    416a:	00 00       	nop
    416c:	60 e4       	ldi	r22, 0x40	; 64
    416e:	80 e0       	ldi	r24, 0x00	; 0
    4170:	b6 df       	rcall	.-148    	; 0x40de <sysclk_enable_module>
    4172:	00 00       	nop
    4174:	0f 90       	pop	r0
    4176:	0f 90       	pop	r0
    4178:	df 91       	pop	r29
    417a:	cf 91       	pop	r28
    417c:	08 95       	ret

0000417e <ccp_write_io>:
    417e:	1b be       	out	0x3b, r1	; 59
    4180:	fc 01       	movw	r30, r24
    4182:	28 ed       	ldi	r18, 0xD8	; 216
    4184:	24 bf       	out	0x34, r18	; 52
    4186:	60 83       	st	Z, r22
    4188:	08 95       	ret

0000418a <nvm_read_byte>:
    418a:	40 91 ca 01 	lds	r20, 0x01CA	; 0x8001ca <__TEXT_REGION_LENGTH__+0x7001ca>
    418e:	e6 2f       	mov	r30, r22
    4190:	f7 2f       	mov	r31, r23
    4192:	80 93 ca 01 	sts	0x01CA, r24	; 0x8001ca <__TEXT_REGION_LENGTH__+0x7001ca>
    4196:	84 91       	lpm	r24, Z
    4198:	40 93 ca 01 	sts	0x01CA, r20	; 0x8001ca <__TEXT_REGION_LENGTH__+0x7001ca>
    419c:	08 95       	ret

0000419e <ioport_configure_port_pin>:
    419e:	cf 93       	push	r28
    41a0:	df 93       	push	r29
    41a2:	00 d0       	rcall	.+0      	; 0x41a4 <ioport_configure_port_pin+0x6>
    41a4:	00 d0       	rcall	.+0      	; 0x41a6 <ioport_configure_port_pin+0x8>
    41a6:	cd b7       	in	r28, 0x3d	; 61
    41a8:	de b7       	in	r29, 0x3e	; 62
    41aa:	8a 83       	std	Y+2, r24	; 0x02
    41ac:	9b 83       	std	Y+3, r25	; 0x03
    41ae:	6c 83       	std	Y+4, r22	; 0x04
    41b0:	4d 83       	std	Y+5, r20	; 0x05
    41b2:	5e 83       	std	Y+6, r21	; 0x06
    41b4:	19 82       	std	Y+1, r1	; 0x01
    41b6:	20 c0       	rjmp	.+64     	; 0x41f8 <ioport_configure_port_pin+0x5a>
    41b8:	8c 81       	ldd	r24, Y+4	; 0x04
    41ba:	88 2f       	mov	r24, r24
    41bc:	90 e0       	ldi	r25, 0x00	; 0
    41be:	29 81       	ldd	r18, Y+1	; 0x01
    41c0:	22 2f       	mov	r18, r18
    41c2:	30 e0       	ldi	r19, 0x00	; 0
    41c4:	02 c0       	rjmp	.+4      	; 0x41ca <ioport_configure_port_pin+0x2c>
    41c6:	95 95       	asr	r25
    41c8:	87 95       	ror	r24
    41ca:	2a 95       	dec	r18
    41cc:	e2 f7       	brpl	.-8      	; 0x41c6 <ioport_configure_port_pin+0x28>
    41ce:	81 70       	andi	r24, 0x01	; 1
    41d0:	99 27       	eor	r25, r25
    41d2:	89 2b       	or	r24, r25
    41d4:	71 f0       	breq	.+28     	; 0x41f2 <ioport_configure_port_pin+0x54>
    41d6:	89 81       	ldd	r24, Y+1	; 0x01
    41d8:	88 2f       	mov	r24, r24
    41da:	90 e0       	ldi	r25, 0x00	; 0
    41dc:	40 96       	adiw	r24, 0x10	; 16
    41de:	2a 81       	ldd	r18, Y+2	; 0x02
    41e0:	3b 81       	ldd	r19, Y+3	; 0x03
    41e2:	82 0f       	add	r24, r18
    41e4:	93 1f       	adc	r25, r19
    41e6:	2d 81       	ldd	r18, Y+5	; 0x05
    41e8:	3e 81       	ldd	r19, Y+6	; 0x06
    41ea:	23 2f       	mov	r18, r19
    41ec:	33 27       	eor	r19, r19
    41ee:	fc 01       	movw	r30, r24
    41f0:	20 83       	st	Z, r18
    41f2:	89 81       	ldd	r24, Y+1	; 0x01
    41f4:	8f 5f       	subi	r24, 0xFF	; 255
    41f6:	89 83       	std	Y+1, r24	; 0x01
    41f8:	89 81       	ldd	r24, Y+1	; 0x01
    41fa:	88 30       	cpi	r24, 0x08	; 8
    41fc:	e8 f2       	brcs	.-70     	; 0x41b8 <ioport_configure_port_pin+0x1a>
    41fe:	8d 81       	ldd	r24, Y+5	; 0x05
    4200:	9e 81       	ldd	r25, Y+6	; 0x06
    4202:	81 70       	andi	r24, 0x01	; 1
    4204:	99 27       	eor	r25, r25
    4206:	89 2b       	or	r24, r25
    4208:	d1 f0       	breq	.+52     	; 0x423e <ioport_configure_port_pin+0xa0>
    420a:	8d 81       	ldd	r24, Y+5	; 0x05
    420c:	9e 81       	ldd	r25, Y+6	; 0x06
    420e:	82 70       	andi	r24, 0x02	; 2
    4210:	99 27       	eor	r25, r25
    4212:	89 2b       	or	r24, r25
    4214:	39 f0       	breq	.+14     	; 0x4224 <ioport_configure_port_pin+0x86>
    4216:	8a 81       	ldd	r24, Y+2	; 0x02
    4218:	9b 81       	ldd	r25, Y+3	; 0x03
    421a:	05 96       	adiw	r24, 0x05	; 5
    421c:	2c 81       	ldd	r18, Y+4	; 0x04
    421e:	fc 01       	movw	r30, r24
    4220:	20 83       	st	Z, r18
    4222:	06 c0       	rjmp	.+12     	; 0x4230 <ioport_configure_port_pin+0x92>
    4224:	8a 81       	ldd	r24, Y+2	; 0x02
    4226:	9b 81       	ldd	r25, Y+3	; 0x03
    4228:	06 96       	adiw	r24, 0x06	; 6
    422a:	2c 81       	ldd	r18, Y+4	; 0x04
    422c:	fc 01       	movw	r30, r24
    422e:	20 83       	st	Z, r18
    4230:	8a 81       	ldd	r24, Y+2	; 0x02
    4232:	9b 81       	ldd	r25, Y+3	; 0x03
    4234:	01 96       	adiw	r24, 0x01	; 1
    4236:	2c 81       	ldd	r18, Y+4	; 0x04
    4238:	fc 01       	movw	r30, r24
    423a:	20 83       	st	Z, r18
    423c:	06 c0       	rjmp	.+12     	; 0x424a <ioport_configure_port_pin+0xac>
    423e:	8a 81       	ldd	r24, Y+2	; 0x02
    4240:	9b 81       	ldd	r25, Y+3	; 0x03
    4242:	02 96       	adiw	r24, 0x02	; 2
    4244:	2c 81       	ldd	r18, Y+4	; 0x04
    4246:	fc 01       	movw	r30, r24
    4248:	20 83       	st	Z, r18
    424a:	00 00       	nop
    424c:	26 96       	adiw	r28, 0x06	; 6
    424e:	cd bf       	out	0x3d, r28	; 61
    4250:	de bf       	out	0x3e, r29	; 62
    4252:	df 91       	pop	r29
    4254:	cf 91       	pop	r28
    4256:	08 95       	ret

00004258 <cpu_irq_save>:
    4258:	cf 93       	push	r28
    425a:	df 93       	push	r29
    425c:	1f 92       	push	r1
    425e:	cd b7       	in	r28, 0x3d	; 61
    4260:	de b7       	in	r29, 0x3e	; 62
    4262:	8f e3       	ldi	r24, 0x3F	; 63
    4264:	90 e0       	ldi	r25, 0x00	; 0
    4266:	fc 01       	movw	r30, r24
    4268:	80 81       	ld	r24, Z
    426a:	89 83       	std	Y+1, r24	; 0x01
    426c:	f8 94       	cli
    426e:	89 81       	ldd	r24, Y+1	; 0x01
    4270:	0f 90       	pop	r0
    4272:	df 91       	pop	r29
    4274:	cf 91       	pop	r28
    4276:	08 95       	ret

00004278 <cpu_irq_restore>:
    4278:	cf 93       	push	r28
    427a:	df 93       	push	r29
    427c:	1f 92       	push	r1
    427e:	cd b7       	in	r28, 0x3d	; 61
    4280:	de b7       	in	r29, 0x3e	; 62
    4282:	89 83       	std	Y+1, r24	; 0x01
    4284:	8f e3       	ldi	r24, 0x3F	; 63
    4286:	90 e0       	ldi	r25, 0x00	; 0
    4288:	29 81       	ldd	r18, Y+1	; 0x01
    428a:	fc 01       	movw	r30, r24
    428c:	20 83       	st	Z, r18
    428e:	00 00       	nop
    4290:	0f 90       	pop	r0
    4292:	df 91       	pop	r29
    4294:	cf 91       	pop	r28
    4296:	08 95       	ret

00004298 <udi_cdc_comm_enable>:
    4298:	cf 93       	push	r28
    429a:	df 93       	push	r29
    429c:	1f 92       	push	r1
    429e:	1f 92       	push	r1
    42a0:	cd b7       	in	r28, 0x3d	; 61
    42a2:	de b7       	in	r29, 0x3e	; 62
    42a4:	1a 82       	std	Y+2, r1	; 0x02
    42a6:	10 92 ac 22 	sts	0x22AC, r1	; 0x8022ac <udi_cdc_nb_comm_enabled>
    42aa:	8a 81       	ldd	r24, Y+2	; 0x02
    42ac:	88 2f       	mov	r24, r24
    42ae:	90 e0       	ldi	r25, 0x00	; 0
    42b0:	88 0f       	add	r24, r24
    42b2:	99 1f       	adc	r25, r25
    42b4:	81 56       	subi	r24, 0x61	; 97
    42b6:	9d 4d       	sbci	r25, 0xDD	; 221
    42b8:	fc 01       	movw	r30, r24
    42ba:	10 82       	st	Z, r1
    42bc:	11 82       	std	Z+1, r1	; 0x01
    42be:	8a 81       	ldd	r24, Y+2	; 0x02
    42c0:	88 2f       	mov	r24, r24
    42c2:	90 e0       	ldi	r25, 0x00	; 0
    42c4:	88 0f       	add	r24, r24
    42c6:	99 1f       	adc	r25, r25
    42c8:	9c 01       	movw	r18, r24
    42ca:	22 0f       	add	r18, r18
    42cc:	33 1f       	adc	r19, r19
    42ce:	22 0f       	add	r18, r18
    42d0:	33 1f       	adc	r19, r19
    42d2:	82 0f       	add	r24, r18
    42d4:	93 1f       	adc	r25, r19
    42d6:	8e 55       	subi	r24, 0x5E	; 94
    42d8:	9d 4d       	sbci	r25, 0xDD	; 221
    42da:	21 ea       	ldi	r18, 0xA1	; 161
    42dc:	fc 01       	movw	r30, r24
    42de:	20 83       	st	Z, r18
    42e0:	8a 81       	ldd	r24, Y+2	; 0x02
    42e2:	88 2f       	mov	r24, r24
    42e4:	90 e0       	ldi	r25, 0x00	; 0
    42e6:	88 0f       	add	r24, r24
    42e8:	99 1f       	adc	r25, r25
    42ea:	9c 01       	movw	r18, r24
    42ec:	22 0f       	add	r18, r18
    42ee:	33 1f       	adc	r19, r19
    42f0:	22 0f       	add	r18, r18
    42f2:	33 1f       	adc	r19, r19
    42f4:	82 0f       	add	r24, r18
    42f6:	93 1f       	adc	r25, r19
    42f8:	8d 55       	subi	r24, 0x5D	; 93
    42fa:	9d 4d       	sbci	r25, 0xDD	; 221
    42fc:	20 e2       	ldi	r18, 0x20	; 32
    42fe:	fc 01       	movw	r30, r24
    4300:	20 83       	st	Z, r18
    4302:	8a 81       	ldd	r24, Y+2	; 0x02
    4304:	88 2f       	mov	r24, r24
    4306:	90 e0       	ldi	r25, 0x00	; 0
    4308:	88 0f       	add	r24, r24
    430a:	99 1f       	adc	r25, r25
    430c:	9c 01       	movw	r18, r24
    430e:	22 0f       	add	r18, r18
    4310:	33 1f       	adc	r19, r19
    4312:	22 0f       	add	r18, r18
    4314:	33 1f       	adc	r19, r19
    4316:	82 0f       	add	r24, r18
    4318:	93 1f       	adc	r25, r19
    431a:	8c 55       	subi	r24, 0x5C	; 92
    431c:	9d 4d       	sbci	r25, 0xDD	; 221
    431e:	fc 01       	movw	r30, r24
    4320:	10 82       	st	Z, r1
    4322:	11 82       	std	Z+1, r1	; 0x01
    4324:	8a 81       	ldd	r24, Y+2	; 0x02
    4326:	88 2f       	mov	r24, r24
    4328:	90 e0       	ldi	r25, 0x00	; 0
    432a:	89 2b       	or	r24, r25
    432c:	11 f4       	brne	.+4      	; 0x4332 <udi_cdc_comm_enable+0x9a>
    432e:	19 82       	std	Y+1, r1	; 0x01
    4330:	02 c0       	rjmp	.+4      	; 0x4336 <udi_cdc_comm_enable+0x9e>
    4332:	19 82       	std	Y+1, r1	; 0x01
    4334:	00 00       	nop
    4336:	8a 81       	ldd	r24, Y+2	; 0x02
    4338:	88 2f       	mov	r24, r24
    433a:	90 e0       	ldi	r25, 0x00	; 0
    433c:	29 81       	ldd	r18, Y+1	; 0x01
    433e:	22 2f       	mov	r18, r18
    4340:	30 e0       	ldi	r19, 0x00	; 0
    4342:	88 0f       	add	r24, r24
    4344:	99 1f       	adc	r25, r25
    4346:	ac 01       	movw	r20, r24
    4348:	44 0f       	add	r20, r20
    434a:	55 1f       	adc	r21, r21
    434c:	44 0f       	add	r20, r20
    434e:	55 1f       	adc	r21, r21
    4350:	84 0f       	add	r24, r20
    4352:	95 1f       	adc	r25, r21
    4354:	8a 55       	subi	r24, 0x5A	; 90
    4356:	9d 4d       	sbci	r25, 0xDD	; 221
    4358:	fc 01       	movw	r30, r24
    435a:	20 83       	st	Z, r18
    435c:	31 83       	std	Z+1, r19	; 0x01
    435e:	8a 81       	ldd	r24, Y+2	; 0x02
    4360:	88 2f       	mov	r24, r24
    4362:	90 e0       	ldi	r25, 0x00	; 0
    4364:	88 0f       	add	r24, r24
    4366:	99 1f       	adc	r25, r25
    4368:	9c 01       	movw	r18, r24
    436a:	22 0f       	add	r18, r18
    436c:	33 1f       	adc	r19, r19
    436e:	22 0f       	add	r18, r18
    4370:	33 1f       	adc	r19, r19
    4372:	82 0f       	add	r24, r18
    4374:	93 1f       	adc	r25, r19
    4376:	88 55       	subi	r24, 0x58	; 88
    4378:	9d 4d       	sbci	r25, 0xDD	; 221
    437a:	22 e0       	ldi	r18, 0x02	; 2
    437c:	30 e0       	ldi	r19, 0x00	; 0
    437e:	fc 01       	movw	r30, r24
    4380:	20 83       	st	Z, r18
    4382:	31 83       	std	Z+1, r19	; 0x01
    4384:	8a 81       	ldd	r24, Y+2	; 0x02
    4386:	88 2f       	mov	r24, r24
    4388:	90 e0       	ldi	r25, 0x00	; 0
    438a:	88 0f       	add	r24, r24
    438c:	99 1f       	adc	r25, r25
    438e:	9c 01       	movw	r18, r24
    4390:	22 0f       	add	r18, r18
    4392:	33 1f       	adc	r19, r19
    4394:	22 0f       	add	r18, r18
    4396:	33 1f       	adc	r19, r19
    4398:	82 0f       	add	r24, r18
    439a:	93 1f       	adc	r25, r19
    439c:	86 55       	subi	r24, 0x56	; 86
    439e:	9d 4d       	sbci	r25, 0xDD	; 221
    43a0:	fc 01       	movw	r30, r24
    43a2:	10 82       	st	Z, r1
    43a4:	11 82       	std	Z+1, r1	; 0x01
    43a6:	8a 81       	ldd	r24, Y+2	; 0x02
    43a8:	28 2f       	mov	r18, r24
    43aa:	30 e0       	ldi	r19, 0x00	; 0
    43ac:	c9 01       	movw	r24, r18
    43ae:	88 0f       	add	r24, r24
    43b0:	99 1f       	adc	r25, r25
    43b2:	88 0f       	add	r24, r24
    43b4:	99 1f       	adc	r25, r25
    43b6:	88 0f       	add	r24, r24
    43b8:	99 1f       	adc	r25, r25
    43ba:	82 1b       	sub	r24, r18
    43bc:	93 0b       	sbc	r25, r19
    43be:	9c 01       	movw	r18, r24
    43c0:	28 56       	subi	r18, 0x68	; 104
    43c2:	3d 4d       	sbci	r19, 0xDD	; 221
    43c4:	80 e0       	ldi	r24, 0x00	; 0
    43c6:	92 ec       	ldi	r25, 0xC2	; 194
    43c8:	a1 e0       	ldi	r26, 0x01	; 1
    43ca:	b0 e0       	ldi	r27, 0x00	; 0
    43cc:	f9 01       	movw	r30, r18
    43ce:	80 83       	st	Z, r24
    43d0:	91 83       	std	Z+1, r25	; 0x01
    43d2:	a2 83       	std	Z+2, r26	; 0x02
    43d4:	b3 83       	std	Z+3, r27	; 0x03
    43d6:	8a 81       	ldd	r24, Y+2	; 0x02
    43d8:	28 2f       	mov	r18, r24
    43da:	30 e0       	ldi	r19, 0x00	; 0
    43dc:	c9 01       	movw	r24, r18
    43de:	88 0f       	add	r24, r24
    43e0:	99 1f       	adc	r25, r25
    43e2:	88 0f       	add	r24, r24
    43e4:	99 1f       	adc	r25, r25
    43e6:	88 0f       	add	r24, r24
    43e8:	99 1f       	adc	r25, r25
    43ea:	82 1b       	sub	r24, r18
    43ec:	93 0b       	sbc	r25, r19
    43ee:	84 56       	subi	r24, 0x64	; 100
    43f0:	9d 4d       	sbci	r25, 0xDD	; 221
    43f2:	fc 01       	movw	r30, r24
    43f4:	10 82       	st	Z, r1
    43f6:	8a 81       	ldd	r24, Y+2	; 0x02
    43f8:	28 2f       	mov	r18, r24
    43fa:	30 e0       	ldi	r19, 0x00	; 0
    43fc:	c9 01       	movw	r24, r18
    43fe:	88 0f       	add	r24, r24
    4400:	99 1f       	adc	r25, r25
    4402:	88 0f       	add	r24, r24
    4404:	99 1f       	adc	r25, r25
    4406:	88 0f       	add	r24, r24
    4408:	99 1f       	adc	r25, r25
    440a:	82 1b       	sub	r24, r18
    440c:	93 0b       	sbc	r25, r19
    440e:	83 56       	subi	r24, 0x63	; 99
    4410:	9d 4d       	sbci	r25, 0xDD	; 221
    4412:	fc 01       	movw	r30, r24
    4414:	10 82       	st	Z, r1
    4416:	8a 81       	ldd	r24, Y+2	; 0x02
    4418:	28 2f       	mov	r18, r24
    441a:	30 e0       	ldi	r19, 0x00	; 0
    441c:	c9 01       	movw	r24, r18
    441e:	88 0f       	add	r24, r24
    4420:	99 1f       	adc	r25, r25
    4422:	88 0f       	add	r24, r24
    4424:	99 1f       	adc	r25, r25
    4426:	88 0f       	add	r24, r24
    4428:	99 1f       	adc	r25, r25
    442a:	82 1b       	sub	r24, r18
    442c:	93 0b       	sbc	r25, r19
    442e:	82 56       	subi	r24, 0x62	; 98
    4430:	9d 4d       	sbci	r25, 0xDD	; 221
    4432:	28 e0       	ldi	r18, 0x08	; 8
    4434:	fc 01       	movw	r30, r24
    4436:	20 83       	st	Z, r18
    4438:	8a 81       	ldd	r24, Y+2	; 0x02
    443a:	31 dc       	rcall	.-1950   	; 0x3c9e <main_cdc_enable>
    443c:	98 2f       	mov	r25, r24
    443e:	81 e0       	ldi	r24, 0x01	; 1
    4440:	89 27       	eor	r24, r25
    4442:	88 23       	and	r24, r24
    4444:	11 f0       	breq	.+4      	; 0x444a <udi_cdc_comm_enable+0x1b2>
    4446:	80 e0       	ldi	r24, 0x00	; 0
    4448:	06 c0       	rjmp	.+12     	; 0x4456 <udi_cdc_comm_enable+0x1be>
    444a:	80 91 ac 22 	lds	r24, 0x22AC	; 0x8022ac <udi_cdc_nb_comm_enabled>
    444e:	8f 5f       	subi	r24, 0xFF	; 255
    4450:	80 93 ac 22 	sts	0x22AC, r24	; 0x8022ac <udi_cdc_nb_comm_enabled>
    4454:	81 e0       	ldi	r24, 0x01	; 1
    4456:	0f 90       	pop	r0
    4458:	0f 90       	pop	r0
    445a:	df 91       	pop	r29
    445c:	cf 91       	pop	r28
    445e:	08 95       	ret

00004460 <udi_cdc_data_enable>:
    4460:	cf 93       	push	r28
    4462:	df 93       	push	r29
    4464:	1f 92       	push	r1
    4466:	cd b7       	in	r28, 0x3d	; 61
    4468:	de b7       	in	r29, 0x3e	; 62
    446a:	19 82       	std	Y+1, r1	; 0x01
    446c:	10 92 ad 22 	sts	0x22AD, r1	; 0x8022ad <udi_cdc_nb_data_enabled>
    4470:	89 81       	ldd	r24, Y+1	; 0x01
    4472:	88 2f       	mov	r24, r24
    4474:	90 e0       	ldi	r25, 0x00	; 0
    4476:	81 54       	subi	r24, 0x41	; 65
    4478:	98 4d       	sbci	r25, 0xD8	; 216
    447a:	fc 01       	movw	r30, r24
    447c:	10 82       	st	Z, r1
    447e:	89 81       	ldd	r24, Y+1	; 0x01
    4480:	88 2f       	mov	r24, r24
    4482:	90 e0       	ldi	r25, 0x00	; 0
    4484:	80 54       	subi	r24, 0x40	; 64
    4486:	98 4d       	sbci	r25, 0xD8	; 216
    4488:	fc 01       	movw	r30, r24
    448a:	10 82       	st	Z, r1
    448c:	89 81       	ldd	r24, Y+1	; 0x01
    448e:	88 2f       	mov	r24, r24
    4490:	90 e0       	ldi	r25, 0x00	; 0
    4492:	84 54       	subi	r24, 0x44	; 68
    4494:	98 4d       	sbci	r25, 0xD8	; 216
    4496:	fc 01       	movw	r30, r24
    4498:	10 82       	st	Z, r1
    449a:	89 81       	ldd	r24, Y+1	; 0x01
    449c:	88 2f       	mov	r24, r24
    449e:	90 e0       	ldi	r25, 0x00	; 0
    44a0:	88 0f       	add	r24, r24
    44a2:	99 1f       	adc	r25, r25
    44a4:	88 0f       	add	r24, r24
    44a6:	99 1f       	adc	r25, r25
    44a8:	88 54       	subi	r24, 0x48	; 72
    44aa:	98 4d       	sbci	r25, 0xD8	; 216
    44ac:	fc 01       	movw	r30, r24
    44ae:	10 82       	st	Z, r1
    44b0:	11 82       	std	Z+1, r1	; 0x01
    44b2:	89 81       	ldd	r24, Y+1	; 0x01
    44b4:	88 2f       	mov	r24, r24
    44b6:	90 e0       	ldi	r25, 0x00	; 0
    44b8:	88 0f       	add	r24, r24
    44ba:	99 1f       	adc	r25, r25
    44bc:	88 0f       	add	r24, r24
    44be:	99 1f       	adc	r25, r25
    44c0:	86 54       	subi	r24, 0x46	; 70
    44c2:	98 4d       	sbci	r25, 0xD8	; 216
    44c4:	fc 01       	movw	r30, r24
    44c6:	10 82       	st	Z, r1
    44c8:	11 82       	std	Z+1, r1	; 0x01
    44ca:	89 81       	ldd	r24, Y+1	; 0x01
    44cc:	88 2f       	mov	r24, r24
    44ce:	90 e0       	ldi	r25, 0x00	; 0
    44d0:	88 0f       	add	r24, r24
    44d2:	99 1f       	adc	r25, r25
    44d4:	83 54       	subi	r24, 0x43	; 67
    44d6:	98 4d       	sbci	r25, 0xD8	; 216
    44d8:	fc 01       	movw	r30, r24
    44da:	10 82       	st	Z, r1
    44dc:	11 82       	std	Z+1, r1	; 0x01
    44de:	89 81       	ldd	r24, Y+1	; 0x01
    44e0:	92 d2       	rcall	.+1316   	; 0x4a06 <udi_cdc_tx_send>
    44e2:	89 81       	ldd	r24, Y+1	; 0x01
    44e4:	88 2f       	mov	r24, r24
    44e6:	90 e0       	ldi	r25, 0x00	; 0
    44e8:	89 5c       	subi	r24, 0xC9	; 201
    44ea:	9a 4d       	sbci	r25, 0xDA	; 218
    44ec:	fc 01       	movw	r30, r24
    44ee:	10 82       	st	Z, r1
    44f0:	89 81       	ldd	r24, Y+1	; 0x01
    44f2:	88 2f       	mov	r24, r24
    44f4:	90 e0       	ldi	r25, 0x00	; 0
    44f6:	8c 5c       	subi	r24, 0xCC	; 204
    44f8:	9a 4d       	sbci	r25, 0xDA	; 218
    44fa:	fc 01       	movw	r30, r24
    44fc:	10 82       	st	Z, r1
    44fe:	89 81       	ldd	r24, Y+1	; 0x01
    4500:	88 2f       	mov	r24, r24
    4502:	90 e0       	ldi	r25, 0x00	; 0
    4504:	88 0f       	add	r24, r24
    4506:	99 1f       	adc	r25, r25
    4508:	88 0f       	add	r24, r24
    450a:	99 1f       	adc	r25, r25
    450c:	80 5d       	subi	r24, 0xD0	; 208
    450e:	9a 4d       	sbci	r25, 0xDA	; 218
    4510:	fc 01       	movw	r30, r24
    4512:	10 82       	st	Z, r1
    4514:	11 82       	std	Z+1, r1	; 0x01
    4516:	89 81       	ldd	r24, Y+1	; 0x01
    4518:	88 2f       	mov	r24, r24
    451a:	90 e0       	ldi	r25, 0x00	; 0
    451c:	88 0f       	add	r24, r24
    451e:	99 1f       	adc	r25, r25
    4520:	8b 5c       	subi	r24, 0xCB	; 203
    4522:	9a 4d       	sbci	r25, 0xDA	; 218
    4524:	fc 01       	movw	r30, r24
    4526:	10 82       	st	Z, r1
    4528:	11 82       	std	Z+1, r1	; 0x01
    452a:	89 81       	ldd	r24, Y+1	; 0x01
    452c:	06 d1       	rcall	.+524    	; 0x473a <udi_cdc_rx_start>
    452e:	98 2f       	mov	r25, r24
    4530:	81 e0       	ldi	r24, 0x01	; 1
    4532:	89 27       	eor	r24, r25
    4534:	88 23       	and	r24, r24
    4536:	11 f0       	breq	.+4      	; 0x453c <udi_cdc_data_enable+0xdc>
    4538:	80 e0       	ldi	r24, 0x00	; 0
    453a:	0d c0       	rjmp	.+26     	; 0x4556 <udi_cdc_data_enable+0xf6>
    453c:	80 91 ad 22 	lds	r24, 0x22AD	; 0x8022ad <udi_cdc_nb_data_enabled>
    4540:	8f 5f       	subi	r24, 0xFF	; 255
    4542:	80 93 ad 22 	sts	0x22AD, r24	; 0x8022ad <udi_cdc_nb_data_enabled>
    4546:	80 91 ad 22 	lds	r24, 0x22AD	; 0x8022ad <udi_cdc_nb_data_enabled>
    454a:	81 30       	cpi	r24, 0x01	; 1
    454c:	19 f4       	brne	.+6      	; 0x4554 <udi_cdc_data_enable+0xf4>
    454e:	81 e0       	ldi	r24, 0x01	; 1
    4550:	80 93 ae 22 	sts	0x22AE, r24	; 0x8022ae <udi_cdc_data_running>
    4554:	81 e0       	ldi	r24, 0x01	; 1
    4556:	0f 90       	pop	r0
    4558:	df 91       	pop	r29
    455a:	cf 91       	pop	r28
    455c:	08 95       	ret

0000455e <udi_cdc_comm_disable>:
    455e:	cf 93       	push	r28
    4560:	df 93       	push	r29
    4562:	cd b7       	in	r28, 0x3d	; 61
    4564:	de b7       	in	r29, 0x3e	; 62
    4566:	80 91 ac 22 	lds	r24, 0x22AC	; 0x8022ac <udi_cdc_nb_comm_enabled>
    456a:	81 50       	subi	r24, 0x01	; 1
    456c:	80 93 ac 22 	sts	0x22AC, r24	; 0x8022ac <udi_cdc_nb_comm_enabled>
    4570:	00 00       	nop
    4572:	df 91       	pop	r29
    4574:	cf 91       	pop	r28
    4576:	08 95       	ret

00004578 <udi_cdc_data_disable>:
    4578:	cf 93       	push	r28
    457a:	df 93       	push	r29
    457c:	1f 92       	push	r1
    457e:	cd b7       	in	r28, 0x3d	; 61
    4580:	de b7       	in	r29, 0x3e	; 62
    4582:	80 91 ad 22 	lds	r24, 0x22AD	; 0x8022ad <udi_cdc_nb_data_enabled>
    4586:	81 50       	subi	r24, 0x01	; 1
    4588:	80 93 ad 22 	sts	0x22AD, r24	; 0x8022ad <udi_cdc_nb_data_enabled>
    458c:	80 91 ad 22 	lds	r24, 0x22AD	; 0x8022ad <udi_cdc_nb_data_enabled>
    4590:	89 83       	std	Y+1, r24	; 0x01
    4592:	89 81       	ldd	r24, Y+1	; 0x01
    4594:	94 db       	rcall	.-2264   	; 0x3cbe <main_cdc_disable>
    4596:	10 92 ae 22 	sts	0x22AE, r1	; 0x8022ae <udi_cdc_data_running>
    459a:	00 00       	nop
    459c:	0f 90       	pop	r0
    459e:	df 91       	pop	r29
    45a0:	cf 91       	pop	r28
    45a2:	08 95       	ret

000045a4 <udi_cdc_comm_setup>:
    45a4:	cf 93       	push	r28
    45a6:	df 93       	push	r29
    45a8:	1f 92       	push	r1
    45aa:	cd b7       	in	r28, 0x3d	; 61
    45ac:	de b7       	in	r29, 0x3e	; 62
    45ae:	a4 d0       	rcall	.+328    	; 0x46f8 <udi_cdc_setup_to_port>
    45b0:	89 83       	std	Y+1, r24	; 0x01
    45b2:	80 91 52 29 	lds	r24, 0x2952	; 0x802952 <udd_g_ctrlreq>
    45b6:	88 23       	and	r24, r24
    45b8:	84 f5       	brge	.+96     	; 0x461a <udi_cdc_comm_setup+0x76>
    45ba:	80 91 52 29 	lds	r24, 0x2952	; 0x802952 <udd_g_ctrlreq>
    45be:	88 2f       	mov	r24, r24
    45c0:	90 e0       	ldi	r25, 0x00	; 0
    45c2:	80 76       	andi	r24, 0x60	; 96
    45c4:	99 27       	eor	r25, r25
    45c6:	80 97       	sbiw	r24, 0x20	; 32
    45c8:	41 f5       	brne	.+80     	; 0x461a <udi_cdc_comm_setup+0x76>
    45ca:	80 91 53 29 	lds	r24, 0x2953	; 0x802953 <udd_g_ctrlreq+0x1>
    45ce:	88 2f       	mov	r24, r24
    45d0:	90 e0       	ldi	r25, 0x00	; 0
    45d2:	81 97       	sbiw	r24, 0x21	; 33
    45d4:	11 f5       	brne	.+68     	; 0x461a <udi_cdc_comm_setup+0x76>
    45d6:	80 91 58 29 	lds	r24, 0x2958	; 0x802958 <udd_g_ctrlreq+0x6>
    45da:	90 91 59 29 	lds	r25, 0x2959	; 0x802959 <udd_g_ctrlreq+0x7>
    45de:	07 97       	sbiw	r24, 0x07	; 7
    45e0:	11 f0       	breq	.+4      	; 0x45e6 <udi_cdc_comm_setup+0x42>
    45e2:	80 e0       	ldi	r24, 0x00	; 0
    45e4:	6a c0       	rjmp	.+212    	; 0x46ba <udi_cdc_comm_setup+0x116>
    45e6:	89 81       	ldd	r24, Y+1	; 0x01
    45e8:	28 2f       	mov	r18, r24
    45ea:	30 e0       	ldi	r19, 0x00	; 0
    45ec:	c9 01       	movw	r24, r18
    45ee:	88 0f       	add	r24, r24
    45f0:	99 1f       	adc	r25, r25
    45f2:	88 0f       	add	r24, r24
    45f4:	99 1f       	adc	r25, r25
    45f6:	88 0f       	add	r24, r24
    45f8:	99 1f       	adc	r25, r25
    45fa:	82 1b       	sub	r24, r18
    45fc:	93 0b       	sbc	r25, r19
    45fe:	88 56       	subi	r24, 0x68	; 104
    4600:	9d 4d       	sbci	r25, 0xDD	; 221
    4602:	80 93 5a 29 	sts	0x295A, r24	; 0x80295a <udd_g_ctrlreq+0x8>
    4606:	90 93 5b 29 	sts	0x295B, r25	; 0x80295b <udd_g_ctrlreq+0x9>
    460a:	87 e0       	ldi	r24, 0x07	; 7
    460c:	90 e0       	ldi	r25, 0x00	; 0
    460e:	80 93 5c 29 	sts	0x295C, r24	; 0x80295c <udd_g_ctrlreq+0xa>
    4612:	90 93 5d 29 	sts	0x295D, r25	; 0x80295d <udd_g_ctrlreq+0xb>
    4616:	81 e0       	ldi	r24, 0x01	; 1
    4618:	50 c0       	rjmp	.+160    	; 0x46ba <udi_cdc_comm_setup+0x116>
    461a:	80 91 52 29 	lds	r24, 0x2952	; 0x802952 <udd_g_ctrlreq>
    461e:	88 23       	and	r24, r24
    4620:	0c f4       	brge	.+2      	; 0x4624 <udi_cdc_comm_setup+0x80>
    4622:	4a c0       	rjmp	.+148    	; 0x46b8 <udi_cdc_comm_setup+0x114>
    4624:	80 91 52 29 	lds	r24, 0x2952	; 0x802952 <udd_g_ctrlreq>
    4628:	88 2f       	mov	r24, r24
    462a:	90 e0       	ldi	r25, 0x00	; 0
    462c:	80 76       	andi	r24, 0x60	; 96
    462e:	99 27       	eor	r25, r25
    4630:	80 97       	sbiw	r24, 0x20	; 32
    4632:	09 f0       	breq	.+2      	; 0x4636 <udi_cdc_comm_setup+0x92>
    4634:	41 c0       	rjmp	.+130    	; 0x46b8 <udi_cdc_comm_setup+0x114>
    4636:	80 91 53 29 	lds	r24, 0x2953	; 0x802953 <udd_g_ctrlreq+0x1>
    463a:	88 2f       	mov	r24, r24
    463c:	90 e0       	ldi	r25, 0x00	; 0
    463e:	80 32       	cpi	r24, 0x20	; 32
    4640:	91 05       	cpc	r25, r1
    4642:	19 f0       	breq	.+6      	; 0x464a <udi_cdc_comm_setup+0xa6>
    4644:	82 97       	sbiw	r24, 0x22	; 34
    4646:	49 f1       	breq	.+82     	; 0x469a <udi_cdc_comm_setup+0xf6>
    4648:	37 c0       	rjmp	.+110    	; 0x46b8 <udi_cdc_comm_setup+0x114>
    464a:	80 91 58 29 	lds	r24, 0x2958	; 0x802958 <udd_g_ctrlreq+0x6>
    464e:	90 91 59 29 	lds	r25, 0x2959	; 0x802959 <udd_g_ctrlreq+0x7>
    4652:	07 97       	sbiw	r24, 0x07	; 7
    4654:	11 f0       	breq	.+4      	; 0x465a <udi_cdc_comm_setup+0xb6>
    4656:	80 e0       	ldi	r24, 0x00	; 0
    4658:	30 c0       	rjmp	.+96     	; 0x46ba <udi_cdc_comm_setup+0x116>
    465a:	81 e9       	ldi	r24, 0x91	; 145
    465c:	93 e2       	ldi	r25, 0x23	; 35
    465e:	80 93 5e 29 	sts	0x295E, r24	; 0x80295e <udd_g_ctrlreq+0xc>
    4662:	90 93 5f 29 	sts	0x295F, r25	; 0x80295f <udd_g_ctrlreq+0xd>
    4666:	89 81       	ldd	r24, Y+1	; 0x01
    4668:	28 2f       	mov	r18, r24
    466a:	30 e0       	ldi	r19, 0x00	; 0
    466c:	c9 01       	movw	r24, r18
    466e:	88 0f       	add	r24, r24
    4670:	99 1f       	adc	r25, r25
    4672:	88 0f       	add	r24, r24
    4674:	99 1f       	adc	r25, r25
    4676:	88 0f       	add	r24, r24
    4678:	99 1f       	adc	r25, r25
    467a:	82 1b       	sub	r24, r18
    467c:	93 0b       	sbc	r25, r19
    467e:	88 56       	subi	r24, 0x68	; 104
    4680:	9d 4d       	sbci	r25, 0xDD	; 221
    4682:	80 93 5a 29 	sts	0x295A, r24	; 0x80295a <udd_g_ctrlreq+0x8>
    4686:	90 93 5b 29 	sts	0x295B, r25	; 0x80295b <udd_g_ctrlreq+0x9>
    468a:	87 e0       	ldi	r24, 0x07	; 7
    468c:	90 e0       	ldi	r25, 0x00	; 0
    468e:	80 93 5c 29 	sts	0x295C, r24	; 0x80295c <udd_g_ctrlreq+0xa>
    4692:	90 93 5d 29 	sts	0x295D, r25	; 0x80295d <udd_g_ctrlreq+0xb>
    4696:	81 e0       	ldi	r24, 0x01	; 1
    4698:	10 c0       	rjmp	.+32     	; 0x46ba <udi_cdc_comm_setup+0x116>
    469a:	80 91 54 29 	lds	r24, 0x2954	; 0x802954 <udd_g_ctrlreq+0x2>
    469e:	90 91 55 29 	lds	r25, 0x2955	; 0x802955 <udd_g_ctrlreq+0x3>
    46a2:	81 70       	andi	r24, 0x01	; 1
    46a4:	99 27       	eor	r25, r25
    46a6:	21 e0       	ldi	r18, 0x01	; 1
    46a8:	89 2b       	or	r24, r25
    46aa:	09 f4       	brne	.+2      	; 0x46ae <udi_cdc_comm_setup+0x10a>
    46ac:	20 e0       	ldi	r18, 0x00	; 0
    46ae:	62 2f       	mov	r22, r18
    46b0:	89 81       	ldd	r24, Y+1	; 0x01
    46b2:	12 db       	rcall	.-2524   	; 0x3cd8 <main_cdc_set_dtr>
    46b4:	81 e0       	ldi	r24, 0x01	; 1
    46b6:	01 c0       	rjmp	.+2      	; 0x46ba <udi_cdc_comm_setup+0x116>
    46b8:	80 e0       	ldi	r24, 0x00	; 0
    46ba:	0f 90       	pop	r0
    46bc:	df 91       	pop	r29
    46be:	cf 91       	pop	r28
    46c0:	08 95       	ret

000046c2 <udi_cdc_data_setup>:
    46c2:	cf 93       	push	r28
    46c4:	df 93       	push	r29
    46c6:	cd b7       	in	r28, 0x3d	; 61
    46c8:	de b7       	in	r29, 0x3e	; 62
    46ca:	80 e0       	ldi	r24, 0x00	; 0
    46cc:	df 91       	pop	r29
    46ce:	cf 91       	pop	r28
    46d0:	08 95       	ret

000046d2 <udi_cdc_getsetting>:
    46d2:	cf 93       	push	r28
    46d4:	df 93       	push	r29
    46d6:	cd b7       	in	r28, 0x3d	; 61
    46d8:	de b7       	in	r29, 0x3e	; 62
    46da:	80 e0       	ldi	r24, 0x00	; 0
    46dc:	df 91       	pop	r29
    46de:	cf 91       	pop	r28
    46e0:	08 95       	ret

000046e2 <udi_cdc_data_sof_notify>:
    46e2:	cf 93       	push	r28
    46e4:	df 93       	push	r29
    46e6:	cd b7       	in	r28, 0x3d	; 61
    46e8:	de b7       	in	r29, 0x3e	; 62
    46ea:	80 91 c1 27 	lds	r24, 0x27C1	; 0x8027c1 <port_notify.4983>
    46ee:	8b d1       	rcall	.+790    	; 0x4a06 <udi_cdc_tx_send>
    46f0:	00 00       	nop
    46f2:	df 91       	pop	r29
    46f4:	cf 91       	pop	r28
    46f6:	08 95       	ret

000046f8 <udi_cdc_setup_to_port>:
    46f8:	cf 93       	push	r28
    46fa:	df 93       	push	r29
    46fc:	1f 92       	push	r1
    46fe:	cd b7       	in	r28, 0x3d	; 61
    4700:	de b7       	in	r29, 0x3e	; 62
    4702:	80 91 56 29 	lds	r24, 0x2956	; 0x802956 <udd_g_ctrlreq+0x4>
    4706:	90 91 57 29 	lds	r25, 0x2957	; 0x802957 <udd_g_ctrlreq+0x5>
    470a:	99 27       	eor	r25, r25
    470c:	89 2b       	or	r24, r25
    470e:	11 f4       	brne	.+4      	; 0x4714 <udi_cdc_setup_to_port+0x1c>
    4710:	19 82       	std	Y+1, r1	; 0x01
    4712:	02 c0       	rjmp	.+4      	; 0x4718 <udi_cdc_setup_to_port+0x20>
    4714:	19 82       	std	Y+1, r1	; 0x01
    4716:	00 00       	nop
    4718:	89 81       	ldd	r24, Y+1	; 0x01
    471a:	0f 90       	pop	r0
    471c:	df 91       	pop	r29
    471e:	cf 91       	pop	r28
    4720:	08 95       	ret

00004722 <udi_cdc_line_coding_received>:
    4722:	cf 93       	push	r28
    4724:	df 93       	push	r29
    4726:	1f 92       	push	r1
    4728:	cd b7       	in	r28, 0x3d	; 61
    472a:	de b7       	in	r29, 0x3e	; 62
    472c:	e5 df       	rcall	.-54     	; 0x46f8 <udi_cdc_setup_to_port>
    472e:	89 83       	std	Y+1, r24	; 0x01
    4730:	00 00       	nop
    4732:	0f 90       	pop	r0
    4734:	df 91       	pop	r29
    4736:	cf 91       	pop	r28
    4738:	08 95       	ret

0000473a <udi_cdc_rx_start>:
    473a:	0f 93       	push	r16
    473c:	1f 93       	push	r17
    473e:	cf 93       	push	r28
    4740:	df 93       	push	r29
    4742:	00 d0       	rcall	.+0      	; 0x4744 <udi_cdc_rx_start+0xa>
    4744:	1f 92       	push	r1
    4746:	cd b7       	in	r28, 0x3d	; 61
    4748:	de b7       	in	r29, 0x3e	; 62
    474a:	8c 83       	std	Y+4, r24	; 0x04
    474c:	1c 82       	std	Y+4, r1	; 0x04
    474e:	84 dd       	rcall	.-1272   	; 0x4258 <cpu_irq_save>
    4750:	8a 83       	std	Y+2, r24	; 0x02
    4752:	8c 81       	ldd	r24, Y+4	; 0x04
    4754:	88 2f       	mov	r24, r24
    4756:	90 e0       	ldi	r25, 0x00	; 0
    4758:	8c 5c       	subi	r24, 0xCC	; 204
    475a:	9a 4d       	sbci	r25, 0xDA	; 218
    475c:	fc 01       	movw	r30, r24
    475e:	80 81       	ld	r24, Z
    4760:	8b 83       	std	Y+3, r24	; 0x03
    4762:	8c 81       	ldd	r24, Y+4	; 0x04
    4764:	88 2f       	mov	r24, r24
    4766:	90 e0       	ldi	r25, 0x00	; 0
    4768:	89 5c       	subi	r24, 0xC9	; 201
    476a:	9a 4d       	sbci	r25, 0xDA	; 218
    476c:	fc 01       	movw	r30, r24
    476e:	80 81       	ld	r24, Z
    4770:	88 23       	and	r24, r24
    4772:	f1 f4       	brne	.+60     	; 0x47b0 <udi_cdc_rx_start+0x76>
    4774:	8c 81       	ldd	r24, Y+4	; 0x04
    4776:	88 2f       	mov	r24, r24
    4778:	90 e0       	ldi	r25, 0x00	; 0
    477a:	88 0f       	add	r24, r24
    477c:	99 1f       	adc	r25, r25
    477e:	8b 5c       	subi	r24, 0xCB	; 203
    4780:	9a 4d       	sbci	r25, 0xDA	; 218
    4782:	fc 01       	movw	r30, r24
    4784:	20 81       	ld	r18, Z
    4786:	31 81       	ldd	r19, Z+1	; 0x01
    4788:	8c 81       	ldd	r24, Y+4	; 0x04
    478a:	48 2f       	mov	r20, r24
    478c:	50 e0       	ldi	r21, 0x00	; 0
    478e:	8b 81       	ldd	r24, Y+3	; 0x03
    4790:	88 2f       	mov	r24, r24
    4792:	90 e0       	ldi	r25, 0x00	; 0
    4794:	44 0f       	add	r20, r20
    4796:	55 1f       	adc	r21, r21
    4798:	84 0f       	add	r24, r20
    479a:	95 1f       	adc	r25, r21
    479c:	88 0f       	add	r24, r24
    479e:	99 1f       	adc	r25, r25
    47a0:	80 5d       	subi	r24, 0xD0	; 208
    47a2:	9a 4d       	sbci	r25, 0xDA	; 218
    47a4:	fc 01       	movw	r30, r24
    47a6:	80 81       	ld	r24, Z
    47a8:	91 81       	ldd	r25, Z+1	; 0x01
    47aa:	28 17       	cp	r18, r24
    47ac:	39 07       	cpc	r19, r25
    47ae:	20 f4       	brcc	.+8      	; 0x47b8 <udi_cdc_rx_start+0x7e>
    47b0:	8a 81       	ldd	r24, Y+2	; 0x02
    47b2:	62 dd       	rcall	.-1340   	; 0x4278 <cpu_irq_restore>
    47b4:	80 e0       	ldi	r24, 0x00	; 0
    47b6:	5b c0       	rjmp	.+182    	; 0x486e <udi_cdc_rx_start+0x134>
    47b8:	8c 81       	ldd	r24, Y+4	; 0x04
    47ba:	88 2f       	mov	r24, r24
    47bc:	90 e0       	ldi	r25, 0x00	; 0
    47be:	88 0f       	add	r24, r24
    47c0:	99 1f       	adc	r25, r25
    47c2:	8b 5c       	subi	r24, 0xCB	; 203
    47c4:	9a 4d       	sbci	r25, 0xDA	; 218
    47c6:	fc 01       	movw	r30, r24
    47c8:	10 82       	st	Z, r1
    47ca:	11 82       	std	Z+1, r1	; 0x01
    47cc:	8c 81       	ldd	r24, Y+4	; 0x04
    47ce:	88 2f       	mov	r24, r24
    47d0:	90 e0       	ldi	r25, 0x00	; 0
    47d2:	21 e0       	ldi	r18, 0x01	; 1
    47d4:	3b 81       	ldd	r19, Y+3	; 0x03
    47d6:	33 23       	and	r19, r19
    47d8:	09 f0       	breq	.+2      	; 0x47dc <udi_cdc_rx_start+0xa2>
    47da:	20 e0       	ldi	r18, 0x00	; 0
    47dc:	8c 5c       	subi	r24, 0xCC	; 204
    47de:	9a 4d       	sbci	r25, 0xDA	; 218
    47e0:	fc 01       	movw	r30, r24
    47e2:	20 83       	st	Z, r18
    47e4:	8c 81       	ldd	r24, Y+4	; 0x04
    47e6:	88 2f       	mov	r24, r24
    47e8:	90 e0       	ldi	r25, 0x00	; 0
    47ea:	89 5c       	subi	r24, 0xC9	; 201
    47ec:	9a 4d       	sbci	r25, 0xDA	; 218
    47ee:	21 e0       	ldi	r18, 0x01	; 1
    47f0:	fc 01       	movw	r30, r24
    47f2:	20 83       	st	Z, r18
    47f4:	8a 81       	ldd	r24, Y+2	; 0x02
    47f6:	40 dd       	rcall	.-1408   	; 0x4278 <cpu_irq_restore>
    47f8:	8c 81       	ldd	r24, Y+4	; 0x04
    47fa:	81 d2       	rcall	.+1282   	; 0x4cfe <udi_cdc_multi_is_rx_ready>
    47fc:	88 23       	and	r24, r24
    47fe:	19 f0       	breq	.+6      	; 0x4806 <udi_cdc_rx_start+0xcc>
    4800:	8c 81       	ldd	r24, Y+4	; 0x04
    4802:	0e 94 2d 09 	call	0x125a	; 0x125a <usb_cdc_interface_rx_notify>
    4806:	8c 81       	ldd	r24, Y+4	; 0x04
    4808:	88 2f       	mov	r24, r24
    480a:	90 e0       	ldi	r25, 0x00	; 0
    480c:	89 2b       	or	r24, r25
    480e:	19 f4       	brne	.+6      	; 0x4816 <udi_cdc_rx_start+0xdc>
    4810:	82 e0       	ldi	r24, 0x02	; 2
    4812:	89 83       	std	Y+1, r24	; 0x01
    4814:	03 c0       	rjmp	.+6      	; 0x481c <udi_cdc_rx_start+0xe2>
    4816:	82 e0       	ldi	r24, 0x02	; 2
    4818:	89 83       	std	Y+1, r24	; 0x01
    481a:	00 00       	nop
    481c:	8c 81       	ldd	r24, Y+4	; 0x04
    481e:	68 2f       	mov	r22, r24
    4820:	70 e0       	ldi	r23, 0x00	; 0
    4822:	8b 81       	ldd	r24, Y+3	; 0x03
    4824:	48 2f       	mov	r20, r24
    4826:	50 e0       	ldi	r21, 0x00	; 0
    4828:	80 e4       	ldi	r24, 0x40	; 64
    482a:	91 e0       	ldi	r25, 0x01	; 1
    482c:	48 9f       	mul	r20, r24
    482e:	90 01       	movw	r18, r0
    4830:	49 9f       	mul	r20, r25
    4832:	30 0d       	add	r19, r0
    4834:	58 9f       	mul	r21, r24
    4836:	30 0d       	add	r19, r0
    4838:	11 24       	eor	r1, r1
    483a:	cb 01       	movw	r24, r22
    483c:	96 95       	lsr	r25
    483e:	98 2f       	mov	r25, r24
    4840:	88 27       	eor	r24, r24
    4842:	97 95       	ror	r25
    4844:	87 95       	ror	r24
    4846:	ac 01       	movw	r20, r24
    4848:	44 0f       	add	r20, r20
    484a:	55 1f       	adc	r21, r21
    484c:	44 0f       	add	r20, r20
    484e:	55 1f       	adc	r21, r21
    4850:	84 0f       	add	r24, r20
    4852:	95 1f       	adc	r25, r21
    4854:	82 0f       	add	r24, r18
    4856:	93 1f       	adc	r25, r19
    4858:	80 55       	subi	r24, 0x50	; 80
    485a:	9d 4d       	sbci	r25, 0xDD	; 221
    485c:	0f e3       	ldi	r16, 0x3F	; 63
    485e:	14 e2       	ldi	r17, 0x24	; 36
    4860:	20 e4       	ldi	r18, 0x40	; 64
    4862:	31 e0       	ldi	r19, 0x01	; 1
    4864:	ac 01       	movw	r20, r24
    4866:	61 e0       	ldi	r22, 0x01	; 1
    4868:	89 81       	ldd	r24, Y+1	; 0x01
    486a:	0e 94 a4 31 	call	0x6348	; 0x6348 <udd_ep_run>
    486e:	24 96       	adiw	r28, 0x04	; 4
    4870:	cd bf       	out	0x3d, r28	; 61
    4872:	de bf       	out	0x3e, r29	; 62
    4874:	df 91       	pop	r29
    4876:	cf 91       	pop	r28
    4878:	1f 91       	pop	r17
    487a:	0f 91       	pop	r16
    487c:	08 95       	ret

0000487e <udi_cdc_data_received>:
    487e:	0f 93       	push	r16
    4880:	1f 93       	push	r17
    4882:	cf 93       	push	r28
    4884:	df 93       	push	r29
    4886:	00 d0       	rcall	.+0      	; 0x4888 <udi_cdc_data_received+0xa>
    4888:	00 d0       	rcall	.+0      	; 0x488a <udi_cdc_data_received+0xc>
    488a:	cd b7       	in	r28, 0x3d	; 61
    488c:	de b7       	in	r29, 0x3e	; 62
    488e:	8b 83       	std	Y+3, r24	; 0x03
    4890:	6c 83       	std	Y+4, r22	; 0x04
    4892:	7d 83       	std	Y+5, r23	; 0x05
    4894:	4e 83       	std	Y+6, r20	; 0x06
    4896:	8e 81       	ldd	r24, Y+6	; 0x06
    4898:	88 2f       	mov	r24, r24
    489a:	90 e0       	ldi	r25, 0x00	; 0
    489c:	02 97       	sbiw	r24, 0x02	; 2
    489e:	11 f4       	brne	.+4      	; 0x48a4 <udi_cdc_data_received+0x26>
    48a0:	19 82       	std	Y+1, r1	; 0x01
    48a2:	02 c0       	rjmp	.+4      	; 0x48a8 <udi_cdc_data_received+0x2a>
    48a4:	19 82       	std	Y+1, r1	; 0x01
    48a6:	00 00       	nop
    48a8:	8b 81       	ldd	r24, Y+3	; 0x03
    48aa:	88 23       	and	r24, r24
    48ac:	09 f0       	breq	.+2      	; 0x48b0 <udi_cdc_data_received+0x32>
    48ae:	57 c0       	rjmp	.+174    	; 0x495e <udi_cdc_data_received+0xe0>
    48b0:	89 81       	ldd	r24, Y+1	; 0x01
    48b2:	88 2f       	mov	r24, r24
    48b4:	90 e0       	ldi	r25, 0x00	; 0
    48b6:	8c 5c       	subi	r24, 0xCC	; 204
    48b8:	9a 4d       	sbci	r25, 0xDA	; 218
    48ba:	fc 01       	movw	r30, r24
    48bc:	90 81       	ld	r25, Z
    48be:	81 e0       	ldi	r24, 0x01	; 1
    48c0:	99 23       	and	r25, r25
    48c2:	09 f0       	breq	.+2      	; 0x48c6 <udi_cdc_data_received+0x48>
    48c4:	80 e0       	ldi	r24, 0x00	; 0
    48c6:	8a 83       	std	Y+2, r24	; 0x02
    48c8:	8c 81       	ldd	r24, Y+4	; 0x04
    48ca:	9d 81       	ldd	r25, Y+5	; 0x05
    48cc:	89 2b       	or	r24, r25
    48ce:	51 f5       	brne	.+84     	; 0x4924 <udi_cdc_data_received+0xa6>
    48d0:	89 81       	ldd	r24, Y+1	; 0x01
    48d2:	68 2f       	mov	r22, r24
    48d4:	70 e0       	ldi	r23, 0x00	; 0
    48d6:	8a 81       	ldd	r24, Y+2	; 0x02
    48d8:	48 2f       	mov	r20, r24
    48da:	50 e0       	ldi	r21, 0x00	; 0
    48dc:	80 e4       	ldi	r24, 0x40	; 64
    48de:	91 e0       	ldi	r25, 0x01	; 1
    48e0:	48 9f       	mul	r20, r24
    48e2:	90 01       	movw	r18, r0
    48e4:	49 9f       	mul	r20, r25
    48e6:	30 0d       	add	r19, r0
    48e8:	58 9f       	mul	r21, r24
    48ea:	30 0d       	add	r19, r0
    48ec:	11 24       	eor	r1, r1
    48ee:	cb 01       	movw	r24, r22
    48f0:	96 95       	lsr	r25
    48f2:	98 2f       	mov	r25, r24
    48f4:	88 27       	eor	r24, r24
    48f6:	97 95       	ror	r25
    48f8:	87 95       	ror	r24
    48fa:	ac 01       	movw	r20, r24
    48fc:	44 0f       	add	r20, r20
    48fe:	55 1f       	adc	r21, r21
    4900:	44 0f       	add	r20, r20
    4902:	55 1f       	adc	r21, r21
    4904:	84 0f       	add	r24, r20
    4906:	95 1f       	adc	r25, r21
    4908:	82 0f       	add	r24, r18
    490a:	93 1f       	adc	r25, r19
    490c:	80 55       	subi	r24, 0x50	; 80
    490e:	9d 4d       	sbci	r25, 0xDD	; 221
    4910:	0f e3       	ldi	r16, 0x3F	; 63
    4912:	14 e2       	ldi	r17, 0x24	; 36
    4914:	20 e4       	ldi	r18, 0x40	; 64
    4916:	31 e0       	ldi	r19, 0x01	; 1
    4918:	ac 01       	movw	r20, r24
    491a:	61 e0       	ldi	r22, 0x01	; 1
    491c:	8e 81       	ldd	r24, Y+6	; 0x06
    491e:	0e 94 a4 31 	call	0x6348	; 0x6348 <udd_ep_run>
    4922:	1e c0       	rjmp	.+60     	; 0x4960 <udi_cdc_data_received+0xe2>
    4924:	89 81       	ldd	r24, Y+1	; 0x01
    4926:	28 2f       	mov	r18, r24
    4928:	30 e0       	ldi	r19, 0x00	; 0
    492a:	8a 81       	ldd	r24, Y+2	; 0x02
    492c:	88 2f       	mov	r24, r24
    492e:	90 e0       	ldi	r25, 0x00	; 0
    4930:	22 0f       	add	r18, r18
    4932:	33 1f       	adc	r19, r19
    4934:	82 0f       	add	r24, r18
    4936:	93 1f       	adc	r25, r19
    4938:	88 0f       	add	r24, r24
    493a:	99 1f       	adc	r25, r25
    493c:	80 5d       	subi	r24, 0xD0	; 208
    493e:	9a 4d       	sbci	r25, 0xDA	; 218
    4940:	2c 81       	ldd	r18, Y+4	; 0x04
    4942:	3d 81       	ldd	r19, Y+5	; 0x05
    4944:	fc 01       	movw	r30, r24
    4946:	20 83       	st	Z, r18
    4948:	31 83       	std	Z+1, r19	; 0x01
    494a:	89 81       	ldd	r24, Y+1	; 0x01
    494c:	88 2f       	mov	r24, r24
    494e:	90 e0       	ldi	r25, 0x00	; 0
    4950:	89 5c       	subi	r24, 0xC9	; 201
    4952:	9a 4d       	sbci	r25, 0xDA	; 218
    4954:	fc 01       	movw	r30, r24
    4956:	10 82       	st	Z, r1
    4958:	89 81       	ldd	r24, Y+1	; 0x01
    495a:	ef de       	rcall	.-546    	; 0x473a <udi_cdc_rx_start>
    495c:	01 c0       	rjmp	.+2      	; 0x4960 <udi_cdc_data_received+0xe2>
    495e:	00 00       	nop
    4960:	26 96       	adiw	r28, 0x06	; 6
    4962:	cd bf       	out	0x3d, r28	; 61
    4964:	de bf       	out	0x3e, r29	; 62
    4966:	df 91       	pop	r29
    4968:	cf 91       	pop	r28
    496a:	1f 91       	pop	r17
    496c:	0f 91       	pop	r16
    496e:	08 95       	ret

00004970 <udi_cdc_data_sent>:
    4970:	cf 93       	push	r28
    4972:	df 93       	push	r29
    4974:	cd b7       	in	r28, 0x3d	; 61
    4976:	de b7       	in	r29, 0x3e	; 62
    4978:	25 97       	sbiw	r28, 0x05	; 5
    497a:	cd bf       	out	0x3d, r28	; 61
    497c:	de bf       	out	0x3e, r29	; 62
    497e:	8a 83       	std	Y+2, r24	; 0x02
    4980:	6b 83       	std	Y+3, r22	; 0x03
    4982:	7c 83       	std	Y+4, r23	; 0x04
    4984:	4d 83       	std	Y+5, r20	; 0x05
    4986:	8d 81       	ldd	r24, Y+5	; 0x05
    4988:	88 2f       	mov	r24, r24
    498a:	90 e0       	ldi	r25, 0x00	; 0
    498c:	81 38       	cpi	r24, 0x81	; 129
    498e:	91 05       	cpc	r25, r1
    4990:	11 f4       	brne	.+4      	; 0x4996 <udi_cdc_data_sent+0x26>
    4992:	19 82       	std	Y+1, r1	; 0x01
    4994:	02 c0       	rjmp	.+4      	; 0x499a <udi_cdc_data_sent+0x2a>
    4996:	19 82       	std	Y+1, r1	; 0x01
    4998:	00 00       	nop
    499a:	8a 81       	ldd	r24, Y+2	; 0x02
    499c:	88 23       	and	r24, r24
    499e:	61 f5       	brne	.+88     	; 0x49f8 <udi_cdc_data_sent+0x88>
    49a0:	89 81       	ldd	r24, Y+1	; 0x01
    49a2:	28 2f       	mov	r18, r24
    49a4:	30 e0       	ldi	r19, 0x00	; 0
    49a6:	89 81       	ldd	r24, Y+1	; 0x01
    49a8:	88 2f       	mov	r24, r24
    49aa:	90 e0       	ldi	r25, 0x00	; 0
    49ac:	84 54       	subi	r24, 0x44	; 68
    49ae:	98 4d       	sbci	r25, 0xD8	; 216
    49b0:	fc 01       	movw	r30, r24
    49b2:	90 81       	ld	r25, Z
    49b4:	81 e0       	ldi	r24, 0x01	; 1
    49b6:	99 23       	and	r25, r25
    49b8:	09 f0       	breq	.+2      	; 0x49bc <udi_cdc_data_sent+0x4c>
    49ba:	80 e0       	ldi	r24, 0x00	; 0
    49bc:	88 2f       	mov	r24, r24
    49be:	90 e0       	ldi	r25, 0x00	; 0
    49c0:	22 0f       	add	r18, r18
    49c2:	33 1f       	adc	r19, r19
    49c4:	82 0f       	add	r24, r18
    49c6:	93 1f       	adc	r25, r19
    49c8:	88 0f       	add	r24, r24
    49ca:	99 1f       	adc	r25, r25
    49cc:	88 54       	subi	r24, 0x48	; 72
    49ce:	98 4d       	sbci	r25, 0xD8	; 216
    49d0:	fc 01       	movw	r30, r24
    49d2:	10 82       	st	Z, r1
    49d4:	11 82       	std	Z+1, r1	; 0x01
    49d6:	89 81       	ldd	r24, Y+1	; 0x01
    49d8:	88 2f       	mov	r24, r24
    49da:	90 e0       	ldi	r25, 0x00	; 0
    49dc:	80 54       	subi	r24, 0x40	; 64
    49de:	98 4d       	sbci	r25, 0xD8	; 216
    49e0:	fc 01       	movw	r30, r24
    49e2:	10 82       	st	Z, r1
    49e4:	89 81       	ldd	r24, Y+1	; 0x01
    49e6:	88 2f       	mov	r24, r24
    49e8:	90 e0       	ldi	r25, 0x00	; 0
    49ea:	81 54       	subi	r24, 0x41	; 65
    49ec:	98 4d       	sbci	r25, 0xD8	; 216
    49ee:	fc 01       	movw	r30, r24
    49f0:	10 82       	st	Z, r1
    49f2:	89 81       	ldd	r24, Y+1	; 0x01
    49f4:	08 d0       	rcall	.+16     	; 0x4a06 <udi_cdc_tx_send>
    49f6:	01 c0       	rjmp	.+2      	; 0x49fa <udi_cdc_data_sent+0x8a>
    49f8:	00 00       	nop
    49fa:	25 96       	adiw	r28, 0x05	; 5
    49fc:	cd bf       	out	0x3d, r28	; 61
    49fe:	de bf       	out	0x3e, r29	; 62
    4a00:	df 91       	pop	r29
    4a02:	cf 91       	pop	r28
    4a04:	08 95       	ret

00004a06 <udi_cdc_tx_send>:
    4a06:	0f 93       	push	r16
    4a08:	1f 93       	push	r17
    4a0a:	cf 93       	push	r28
    4a0c:	df 93       	push	r29
    4a0e:	cd b7       	in	r28, 0x3d	; 61
    4a10:	de b7       	in	r29, 0x3e	; 62
    4a12:	25 97       	sbiw	r28, 0x05	; 5
    4a14:	cd bf       	out	0x3d, r28	; 61
    4a16:	de bf       	out	0x3e, r29	; 62
    4a18:	8d 83       	std	Y+5, r24	; 0x05
    4a1a:	1d 82       	std	Y+5, r1	; 0x05
    4a1c:	8d 81       	ldd	r24, Y+5	; 0x05
    4a1e:	88 2f       	mov	r24, r24
    4a20:	90 e0       	ldi	r25, 0x00	; 0
    4a22:	81 54       	subi	r24, 0x41	; 65
    4a24:	98 4d       	sbci	r25, 0xD8	; 216
    4a26:	fc 01       	movw	r30, r24
    4a28:	80 81       	ld	r24, Z
    4a2a:	88 23       	and	r24, r24
    4a2c:	09 f0       	breq	.+2      	; 0x4a30 <udi_cdc_tx_send+0x2a>
    4a2e:	1d c1       	rjmp	.+570    	; 0x4c6a <udi_cdc_tx_send+0x264>
    4a30:	0e 94 6e 30 	call	0x60dc	; 0x60dc <udd_is_high_speed>
    4a34:	88 23       	and	r24, r24
    4a36:	81 f0       	breq	.+32     	; 0x4a58 <udi_cdc_tx_send+0x52>
    4a38:	8d 81       	ldd	r24, Y+5	; 0x05
    4a3a:	88 2f       	mov	r24, r24
    4a3c:	90 e0       	ldi	r25, 0x00	; 0
    4a3e:	88 0f       	add	r24, r24
    4a40:	99 1f       	adc	r25, r25
    4a42:	83 54       	subi	r24, 0x43	; 67
    4a44:	98 4d       	sbci	r25, 0xD8	; 216
    4a46:	fc 01       	movw	r30, r24
    4a48:	00 81       	ld	r16, Z
    4a4a:	11 81       	ldd	r17, Z+1	; 0x01
    4a4c:	0e 94 9c 30 	call	0x6138	; 0x6138 <udd_get_micro_frame_number>
    4a50:	08 17       	cp	r16, r24
    4a52:	19 07       	cpc	r17, r25
    4a54:	89 f4       	brne	.+34     	; 0x4a78 <udi_cdc_tx_send+0x72>
    4a56:	0c c1       	rjmp	.+536    	; 0x4c70 <udi_cdc_tx_send+0x26a>
    4a58:	8d 81       	ldd	r24, Y+5	; 0x05
    4a5a:	88 2f       	mov	r24, r24
    4a5c:	90 e0       	ldi	r25, 0x00	; 0
    4a5e:	88 0f       	add	r24, r24
    4a60:	99 1f       	adc	r25, r25
    4a62:	83 54       	subi	r24, 0x43	; 67
    4a64:	98 4d       	sbci	r25, 0xD8	; 216
    4a66:	fc 01       	movw	r30, r24
    4a68:	00 81       	ld	r16, Z
    4a6a:	11 81       	ldd	r17, Z+1	; 0x01
    4a6c:	0e 94 91 30 	call	0x6122	; 0x6122 <udd_get_frame_number>
    4a70:	08 17       	cp	r16, r24
    4a72:	19 07       	cpc	r17, r25
    4a74:	09 f4       	brne	.+2      	; 0x4a78 <udi_cdc_tx_send+0x72>
    4a76:	fb c0       	rjmp	.+502    	; 0x4c6e <udi_cdc_tx_send+0x268>
    4a78:	ef db       	rcall	.-2082   	; 0x4258 <cpu_irq_save>
    4a7a:	8b 83       	std	Y+3, r24	; 0x03
    4a7c:	8d 81       	ldd	r24, Y+5	; 0x05
    4a7e:	88 2f       	mov	r24, r24
    4a80:	90 e0       	ldi	r25, 0x00	; 0
    4a82:	84 54       	subi	r24, 0x44	; 68
    4a84:	98 4d       	sbci	r25, 0xD8	; 216
    4a86:	fc 01       	movw	r30, r24
    4a88:	80 81       	ld	r24, Z
    4a8a:	89 83       	std	Y+1, r24	; 0x01
    4a8c:	8d 81       	ldd	r24, Y+5	; 0x05
    4a8e:	28 2f       	mov	r18, r24
    4a90:	30 e0       	ldi	r19, 0x00	; 0
    4a92:	89 81       	ldd	r24, Y+1	; 0x01
    4a94:	88 2f       	mov	r24, r24
    4a96:	90 e0       	ldi	r25, 0x00	; 0
    4a98:	22 0f       	add	r18, r18
    4a9a:	33 1f       	adc	r19, r19
    4a9c:	82 0f       	add	r24, r18
    4a9e:	93 1f       	adc	r25, r19
    4aa0:	88 0f       	add	r24, r24
    4aa2:	99 1f       	adc	r25, r25
    4aa4:	88 54       	subi	r24, 0x48	; 72
    4aa6:	98 4d       	sbci	r25, 0xD8	; 216
    4aa8:	fc 01       	movw	r30, r24
    4aaa:	80 81       	ld	r24, Z
    4aac:	91 81       	ldd	r25, Z+1	; 0x01
    4aae:	89 2b       	or	r24, r25
    4ab0:	29 f5       	brne	.+74     	; 0x4afc <udi_cdc_tx_send+0xf6>
    4ab2:	80 91 c2 27 	lds	r24, 0x27C2	; 0x8027c2 <sof_zlp_counter.5053>
    4ab6:	90 91 c3 27 	lds	r25, 0x27C3	; 0x8027c3 <sof_zlp_counter.5053+0x1>
    4aba:	01 96       	adiw	r24, 0x01	; 1
    4abc:	80 93 c2 27 	sts	0x27C2, r24	; 0x8027c2 <sof_zlp_counter.5053>
    4ac0:	90 93 c3 27 	sts	0x27C3, r25	; 0x8027c3 <sof_zlp_counter.5053+0x1>
    4ac4:	0e 94 6e 30 	call	0x60dc	; 0x60dc <udd_is_high_speed>
    4ac8:	98 2f       	mov	r25, r24
    4aca:	81 e0       	ldi	r24, 0x01	; 1
    4acc:	89 27       	eor	r24, r25
    4ace:	88 23       	and	r24, r24
    4ad0:	39 f0       	breq	.+14     	; 0x4ae0 <udi_cdc_tx_send+0xda>
    4ad2:	80 91 c2 27 	lds	r24, 0x27C2	; 0x8027c2 <sof_zlp_counter.5053>
    4ad6:	90 91 c3 27 	lds	r25, 0x27C3	; 0x8027c3 <sof_zlp_counter.5053+0x1>
    4ada:	84 36       	cpi	r24, 0x64	; 100
    4adc:	91 05       	cpc	r25, r1
    4ade:	58 f0       	brcs	.+22     	; 0x4af6 <udi_cdc_tx_send+0xf0>
    4ae0:	0e 94 6e 30 	call	0x60dc	; 0x60dc <udd_is_high_speed>
    4ae4:	88 23       	and	r24, r24
    4ae6:	51 f0       	breq	.+20     	; 0x4afc <udi_cdc_tx_send+0xf6>
    4ae8:	80 91 c2 27 	lds	r24, 0x27C2	; 0x8027c2 <sof_zlp_counter.5053>
    4aec:	90 91 c3 27 	lds	r25, 0x27C3	; 0x8027c3 <sof_zlp_counter.5053+0x1>
    4af0:	80 32       	cpi	r24, 0x20	; 32
    4af2:	93 40       	sbci	r25, 0x03	; 3
    4af4:	18 f4       	brcc	.+6      	; 0x4afc <udi_cdc_tx_send+0xf6>
    4af6:	8b 81       	ldd	r24, Y+3	; 0x03
    4af8:	bf db       	rcall	.-2178   	; 0x4278 <cpu_irq_restore>
    4afa:	ba c0       	rjmp	.+372    	; 0x4c70 <udi_cdc_tx_send+0x26a>
    4afc:	10 92 c2 27 	sts	0x27C2, r1	; 0x8027c2 <sof_zlp_counter.5053>
    4b00:	10 92 c3 27 	sts	0x27C3, r1	; 0x8027c3 <sof_zlp_counter.5053+0x1>
    4b04:	8d 81       	ldd	r24, Y+5	; 0x05
    4b06:	88 2f       	mov	r24, r24
    4b08:	90 e0       	ldi	r25, 0x00	; 0
    4b0a:	80 54       	subi	r24, 0x40	; 64
    4b0c:	98 4d       	sbci	r25, 0xD8	; 216
    4b0e:	fc 01       	movw	r30, r24
    4b10:	90 81       	ld	r25, Z
    4b12:	81 e0       	ldi	r24, 0x01	; 1
    4b14:	89 27       	eor	r24, r25
    4b16:	88 23       	and	r24, r24
    4b18:	69 f0       	breq	.+26     	; 0x4b34 <udi_cdc_tx_send+0x12e>
    4b1a:	8d 81       	ldd	r24, Y+5	; 0x05
    4b1c:	88 2f       	mov	r24, r24
    4b1e:	90 e0       	ldi	r25, 0x00	; 0
    4b20:	21 e0       	ldi	r18, 0x01	; 1
    4b22:	39 81       	ldd	r19, Y+1	; 0x01
    4b24:	33 23       	and	r19, r19
    4b26:	09 f0       	breq	.+2      	; 0x4b2a <udi_cdc_tx_send+0x124>
    4b28:	20 e0       	ldi	r18, 0x00	; 0
    4b2a:	84 54       	subi	r24, 0x44	; 68
    4b2c:	98 4d       	sbci	r25, 0xD8	; 216
    4b2e:	fc 01       	movw	r30, r24
    4b30:	20 83       	st	Z, r18
    4b32:	06 c0       	rjmp	.+12     	; 0x4b40 <udi_cdc_tx_send+0x13a>
    4b34:	81 e0       	ldi	r24, 0x01	; 1
    4b36:	99 81       	ldd	r25, Y+1	; 0x01
    4b38:	99 23       	and	r25, r25
    4b3a:	09 f0       	breq	.+2      	; 0x4b3e <udi_cdc_tx_send+0x138>
    4b3c:	80 e0       	ldi	r24, 0x00	; 0
    4b3e:	89 83       	std	Y+1, r24	; 0x01
    4b40:	8d 81       	ldd	r24, Y+5	; 0x05
    4b42:	88 2f       	mov	r24, r24
    4b44:	90 e0       	ldi	r25, 0x00	; 0
    4b46:	81 54       	subi	r24, 0x41	; 65
    4b48:	98 4d       	sbci	r25, 0xD8	; 216
    4b4a:	21 e0       	ldi	r18, 0x01	; 1
    4b4c:	fc 01       	movw	r30, r24
    4b4e:	20 83       	st	Z, r18
    4b50:	8b 81       	ldd	r24, Y+3	; 0x03
    4b52:	92 db       	rcall	.-2268   	; 0x4278 <cpu_irq_restore>
    4b54:	8d 81       	ldd	r24, Y+5	; 0x05
    4b56:	28 2f       	mov	r18, r24
    4b58:	30 e0       	ldi	r19, 0x00	; 0
    4b5a:	89 81       	ldd	r24, Y+1	; 0x01
    4b5c:	88 2f       	mov	r24, r24
    4b5e:	90 e0       	ldi	r25, 0x00	; 0
    4b60:	22 0f       	add	r18, r18
    4b62:	33 1f       	adc	r19, r19
    4b64:	82 0f       	add	r24, r18
    4b66:	93 1f       	adc	r25, r19
    4b68:	88 0f       	add	r24, r24
    4b6a:	99 1f       	adc	r25, r25
    4b6c:	88 54       	subi	r24, 0x48	; 72
    4b6e:	98 4d       	sbci	r25, 0xD8	; 216
    4b70:	fc 01       	movw	r30, r24
    4b72:	80 81       	ld	r24, Z
    4b74:	91 81       	ldd	r25, Z+1	; 0x01
    4b76:	21 e0       	ldi	r18, 0x01	; 1
    4b78:	80 34       	cpi	r24, 0x40	; 64
    4b7a:	91 40       	sbci	r25, 0x01	; 1
    4b7c:	09 f4       	brne	.+2      	; 0x4b80 <udi_cdc_tx_send+0x17a>
    4b7e:	20 e0       	ldi	r18, 0x00	; 0
    4b80:	2c 83       	std	Y+4, r18	; 0x04
    4b82:	8c 81       	ldd	r24, Y+4	; 0x04
    4b84:	88 23       	and	r24, r24
    4b86:	11 f1       	breq	.+68     	; 0x4bcc <udi_cdc_tx_send+0x1c6>
    4b88:	0e 94 6e 30 	call	0x60dc	; 0x60dc <udd_is_high_speed>
    4b8c:	88 23       	and	r24, r24
    4b8e:	79 f0       	breq	.+30     	; 0x4bae <udi_cdc_tx_send+0x1a8>
    4b90:	8d 81       	ldd	r24, Y+5	; 0x05
    4b92:	08 2f       	mov	r16, r24
    4b94:	10 e0       	ldi	r17, 0x00	; 0
    4b96:	0e 94 9c 30 	call	0x6138	; 0x6138 <udd_get_micro_frame_number>
    4b9a:	9c 01       	movw	r18, r24
    4b9c:	c8 01       	movw	r24, r16
    4b9e:	88 0f       	add	r24, r24
    4ba0:	99 1f       	adc	r25, r25
    4ba2:	83 54       	subi	r24, 0x43	; 67
    4ba4:	98 4d       	sbci	r25, 0xD8	; 216
    4ba6:	fc 01       	movw	r30, r24
    4ba8:	20 83       	st	Z, r18
    4baa:	31 83       	std	Z+1, r19	; 0x01
    4bac:	19 c0       	rjmp	.+50     	; 0x4be0 <udi_cdc_tx_send+0x1da>
    4bae:	8d 81       	ldd	r24, Y+5	; 0x05
    4bb0:	08 2f       	mov	r16, r24
    4bb2:	10 e0       	ldi	r17, 0x00	; 0
    4bb4:	0e 94 91 30 	call	0x6122	; 0x6122 <udd_get_frame_number>
    4bb8:	9c 01       	movw	r18, r24
    4bba:	c8 01       	movw	r24, r16
    4bbc:	88 0f       	add	r24, r24
    4bbe:	99 1f       	adc	r25, r25
    4bc0:	83 54       	subi	r24, 0x43	; 67
    4bc2:	98 4d       	sbci	r25, 0xD8	; 216
    4bc4:	fc 01       	movw	r30, r24
    4bc6:	20 83       	st	Z, r18
    4bc8:	31 83       	std	Z+1, r19	; 0x01
    4bca:	0a c0       	rjmp	.+20     	; 0x4be0 <udi_cdc_tx_send+0x1da>
    4bcc:	8d 81       	ldd	r24, Y+5	; 0x05
    4bce:	88 2f       	mov	r24, r24
    4bd0:	90 e0       	ldi	r25, 0x00	; 0
    4bd2:	88 0f       	add	r24, r24
    4bd4:	99 1f       	adc	r25, r25
    4bd6:	83 54       	subi	r24, 0x43	; 67
    4bd8:	98 4d       	sbci	r25, 0xD8	; 216
    4bda:	fc 01       	movw	r30, r24
    4bdc:	10 82       	st	Z, r1
    4bde:	11 82       	std	Z+1, r1	; 0x01
    4be0:	8d 81       	ldd	r24, Y+5	; 0x05
    4be2:	88 2f       	mov	r24, r24
    4be4:	90 e0       	ldi	r25, 0x00	; 0
    4be6:	89 2b       	or	r24, r25
    4be8:	19 f4       	brne	.+6      	; 0x4bf0 <udi_cdc_tx_send+0x1ea>
    4bea:	81 e8       	ldi	r24, 0x81	; 129
    4bec:	8a 83       	std	Y+2, r24	; 0x02
    4bee:	03 c0       	rjmp	.+6      	; 0x4bf6 <udi_cdc_tx_send+0x1f0>
    4bf0:	81 e8       	ldi	r24, 0x81	; 129
    4bf2:	8a 83       	std	Y+2, r24	; 0x02
    4bf4:	00 00       	nop
    4bf6:	8d 81       	ldd	r24, Y+5	; 0x05
    4bf8:	28 2f       	mov	r18, r24
    4bfa:	30 e0       	ldi	r19, 0x00	; 0
    4bfc:	89 81       	ldd	r24, Y+1	; 0x01
    4bfe:	88 2f       	mov	r24, r24
    4c00:	90 e0       	ldi	r25, 0x00	; 0
    4c02:	22 0f       	add	r18, r18
    4c04:	33 1f       	adc	r19, r19
    4c06:	82 0f       	add	r24, r18
    4c08:	93 1f       	adc	r25, r19
    4c0a:	88 0f       	add	r24, r24
    4c0c:	99 1f       	adc	r25, r25
    4c0e:	88 54       	subi	r24, 0x48	; 72
    4c10:	98 4d       	sbci	r25, 0xD8	; 216
    4c12:	fc 01       	movw	r30, r24
    4c14:	60 81       	ld	r22, Z
    4c16:	71 81       	ldd	r23, Z+1	; 0x01
    4c18:	8d 81       	ldd	r24, Y+5	; 0x05
    4c1a:	e8 2f       	mov	r30, r24
    4c1c:	f0 e0       	ldi	r31, 0x00	; 0
    4c1e:	89 81       	ldd	r24, Y+1	; 0x01
    4c20:	48 2f       	mov	r20, r24
    4c22:	50 e0       	ldi	r21, 0x00	; 0
    4c24:	80 e4       	ldi	r24, 0x40	; 64
    4c26:	91 e0       	ldi	r25, 0x01	; 1
    4c28:	48 9f       	mul	r20, r24
    4c2a:	90 01       	movw	r18, r0
    4c2c:	49 9f       	mul	r20, r25
    4c2e:	30 0d       	add	r19, r0
    4c30:	58 9f       	mul	r21, r24
    4c32:	30 0d       	add	r19, r0
    4c34:	11 24       	eor	r1, r1
    4c36:	cf 01       	movw	r24, r30
    4c38:	96 95       	lsr	r25
    4c3a:	98 2f       	mov	r25, r24
    4c3c:	88 27       	eor	r24, r24
    4c3e:	97 95       	ror	r25
    4c40:	87 95       	ror	r24
    4c42:	ac 01       	movw	r20, r24
    4c44:	44 0f       	add	r20, r20
    4c46:	55 1f       	adc	r21, r21
    4c48:	44 0f       	add	r20, r20
    4c4a:	55 1f       	adc	r21, r21
    4c4c:	84 0f       	add	r24, r20
    4c4e:	95 1f       	adc	r25, r21
    4c50:	82 0f       	add	r24, r18
    4c52:	93 1f       	adc	r25, r19
    4c54:	88 5c       	subi	r24, 0xC8	; 200
    4c56:	9a 4d       	sbci	r25, 0xDA	; 218
    4c58:	08 eb       	ldi	r16, 0xB8	; 184
    4c5a:	14 e2       	ldi	r17, 0x24	; 36
    4c5c:	9b 01       	movw	r18, r22
    4c5e:	ac 01       	movw	r20, r24
    4c60:	6c 81       	ldd	r22, Y+4	; 0x04
    4c62:	8a 81       	ldd	r24, Y+2	; 0x02
    4c64:	0e 94 a4 31 	call	0x6348	; 0x6348 <udd_ep_run>
    4c68:	03 c0       	rjmp	.+6      	; 0x4c70 <udi_cdc_tx_send+0x26a>
    4c6a:	00 00       	nop
    4c6c:	01 c0       	rjmp	.+2      	; 0x4c70 <udi_cdc_tx_send+0x26a>
    4c6e:	00 00       	nop
    4c70:	25 96       	adiw	r28, 0x05	; 5
    4c72:	cd bf       	out	0x3d, r28	; 61
    4c74:	de bf       	out	0x3e, r29	; 62
    4c76:	df 91       	pop	r29
    4c78:	cf 91       	pop	r28
    4c7a:	1f 91       	pop	r17
    4c7c:	0f 91       	pop	r16
    4c7e:	08 95       	ret

00004c80 <udi_cdc_multi_get_nb_received_data>:
    4c80:	cf 93       	push	r28
    4c82:	df 93       	push	r29
    4c84:	00 d0       	rcall	.+0      	; 0x4c86 <udi_cdc_multi_get_nb_received_data+0x6>
    4c86:	00 d0       	rcall	.+0      	; 0x4c88 <udi_cdc_multi_get_nb_received_data+0x8>
    4c88:	cd b7       	in	r28, 0x3d	; 61
    4c8a:	de b7       	in	r29, 0x3e	; 62
    4c8c:	8e 83       	std	Y+6, r24	; 0x06
    4c8e:	1e 82       	std	Y+6, r1	; 0x06
    4c90:	e3 da       	rcall	.-2618   	; 0x4258 <cpu_irq_save>
    4c92:	89 83       	std	Y+1, r24	; 0x01
    4c94:	8e 81       	ldd	r24, Y+6	; 0x06
    4c96:	88 2f       	mov	r24, r24
    4c98:	90 e0       	ldi	r25, 0x00	; 0
    4c9a:	88 0f       	add	r24, r24
    4c9c:	99 1f       	adc	r25, r25
    4c9e:	8b 5c       	subi	r24, 0xCB	; 203
    4ca0:	9a 4d       	sbci	r25, 0xDA	; 218
    4ca2:	fc 01       	movw	r30, r24
    4ca4:	80 81       	ld	r24, Z
    4ca6:	91 81       	ldd	r25, Z+1	; 0x01
    4ca8:	8a 83       	std	Y+2, r24	; 0x02
    4caa:	9b 83       	std	Y+3, r25	; 0x03
    4cac:	8e 81       	ldd	r24, Y+6	; 0x06
    4cae:	28 2f       	mov	r18, r24
    4cb0:	30 e0       	ldi	r19, 0x00	; 0
    4cb2:	8e 81       	ldd	r24, Y+6	; 0x06
    4cb4:	88 2f       	mov	r24, r24
    4cb6:	90 e0       	ldi	r25, 0x00	; 0
    4cb8:	8c 5c       	subi	r24, 0xCC	; 204
    4cba:	9a 4d       	sbci	r25, 0xDA	; 218
    4cbc:	fc 01       	movw	r30, r24
    4cbe:	80 81       	ld	r24, Z
    4cc0:	88 2f       	mov	r24, r24
    4cc2:	90 e0       	ldi	r25, 0x00	; 0
    4cc4:	22 0f       	add	r18, r18
    4cc6:	33 1f       	adc	r19, r19
    4cc8:	82 0f       	add	r24, r18
    4cca:	93 1f       	adc	r25, r19
    4ccc:	88 0f       	add	r24, r24
    4cce:	99 1f       	adc	r25, r25
    4cd0:	80 5d       	subi	r24, 0xD0	; 208
    4cd2:	9a 4d       	sbci	r25, 0xDA	; 218
    4cd4:	fc 01       	movw	r30, r24
    4cd6:	20 81       	ld	r18, Z
    4cd8:	31 81       	ldd	r19, Z+1	; 0x01
    4cda:	8a 81       	ldd	r24, Y+2	; 0x02
    4cdc:	9b 81       	ldd	r25, Y+3	; 0x03
    4cde:	a9 01       	movw	r20, r18
    4ce0:	48 1b       	sub	r20, r24
    4ce2:	59 0b       	sbc	r21, r25
    4ce4:	ca 01       	movw	r24, r20
    4ce6:	8c 83       	std	Y+4, r24	; 0x04
    4ce8:	9d 83       	std	Y+5, r25	; 0x05
    4cea:	89 81       	ldd	r24, Y+1	; 0x01
    4cec:	c5 da       	rcall	.-2678   	; 0x4278 <cpu_irq_restore>
    4cee:	8c 81       	ldd	r24, Y+4	; 0x04
    4cf0:	9d 81       	ldd	r25, Y+5	; 0x05
    4cf2:	26 96       	adiw	r28, 0x06	; 6
    4cf4:	cd bf       	out	0x3d, r28	; 61
    4cf6:	de bf       	out	0x3e, r29	; 62
    4cf8:	df 91       	pop	r29
    4cfa:	cf 91       	pop	r28
    4cfc:	08 95       	ret

00004cfe <udi_cdc_multi_is_rx_ready>:
    4cfe:	cf 93       	push	r28
    4d00:	df 93       	push	r29
    4d02:	1f 92       	push	r1
    4d04:	cd b7       	in	r28, 0x3d	; 61
    4d06:	de b7       	in	r29, 0x3e	; 62
    4d08:	89 83       	std	Y+1, r24	; 0x01
    4d0a:	89 81       	ldd	r24, Y+1	; 0x01
    4d0c:	b9 df       	rcall	.-142    	; 0x4c80 <udi_cdc_multi_get_nb_received_data>
    4d0e:	21 e0       	ldi	r18, 0x01	; 1
    4d10:	89 2b       	or	r24, r25
    4d12:	09 f4       	brne	.+2      	; 0x4d16 <udi_cdc_multi_is_rx_ready+0x18>
    4d14:	20 e0       	ldi	r18, 0x00	; 0
    4d16:	82 2f       	mov	r24, r18
    4d18:	0f 90       	pop	r0
    4d1a:	df 91       	pop	r29
    4d1c:	cf 91       	pop	r28
    4d1e:	08 95       	ret

00004d20 <udi_cdc_is_rx_ready>:
    4d20:	cf 93       	push	r28
    4d22:	df 93       	push	r29
    4d24:	cd b7       	in	r28, 0x3d	; 61
    4d26:	de b7       	in	r29, 0x3e	; 62
    4d28:	80 e0       	ldi	r24, 0x00	; 0
    4d2a:	e9 df       	rcall	.-46     	; 0x4cfe <udi_cdc_multi_is_rx_ready>
    4d2c:	df 91       	pop	r29
    4d2e:	cf 91       	pop	r28
    4d30:	08 95       	ret

00004d32 <udi_cdc_multi_getc>:
    4d32:	cf 93       	push	r28
    4d34:	df 93       	push	r29
    4d36:	cd b7       	in	r28, 0x3d	; 61
    4d38:	de b7       	in	r29, 0x3e	; 62
    4d3a:	28 97       	sbiw	r28, 0x08	; 8
    4d3c:	cd bf       	out	0x3d, r28	; 61
    4d3e:	de bf       	out	0x3e, r29	; 62
    4d40:	88 87       	std	Y+8, r24	; 0x08
    4d42:	19 82       	std	Y+1, r1	; 0x01
    4d44:	1a 82       	std	Y+2, r1	; 0x02
    4d46:	18 86       	std	Y+8, r1	; 0x08
    4d48:	88 85       	ldd	r24, Y+8	; 0x08
    4d4a:	28 2f       	mov	r18, r24
    4d4c:	30 e0       	ldi	r19, 0x00	; 0
    4d4e:	c9 01       	movw	r24, r18
    4d50:	88 0f       	add	r24, r24
    4d52:	99 1f       	adc	r25, r25
    4d54:	88 0f       	add	r24, r24
    4d56:	99 1f       	adc	r25, r25
    4d58:	88 0f       	add	r24, r24
    4d5a:	99 1f       	adc	r25, r25
    4d5c:	82 1b       	sub	r24, r18
    4d5e:	93 0b       	sbc	r25, r19
    4d60:	82 56       	subi	r24, 0x62	; 98
    4d62:	9d 4d       	sbci	r25, 0xDD	; 221
    4d64:	fc 01       	movw	r30, r24
    4d66:	90 81       	ld	r25, Z
    4d68:	81 e0       	ldi	r24, 0x01	; 1
    4d6a:	99 30       	cpi	r25, 0x09	; 9
    4d6c:	09 f0       	breq	.+2      	; 0x4d70 <udi_cdc_multi_getc+0x3e>
    4d6e:	80 e0       	ldi	r24, 0x00	; 0
    4d70:	8b 83       	std	Y+3, r24	; 0x03
    4d72:	72 da       	rcall	.-2844   	; 0x4258 <cpu_irq_save>
    4d74:	8c 83       	std	Y+4, r24	; 0x04
    4d76:	88 85       	ldd	r24, Y+8	; 0x08
    4d78:	88 2f       	mov	r24, r24
    4d7a:	90 e0       	ldi	r25, 0x00	; 0
    4d7c:	88 0f       	add	r24, r24
    4d7e:	99 1f       	adc	r25, r25
    4d80:	8b 5c       	subi	r24, 0xCB	; 203
    4d82:	9a 4d       	sbci	r25, 0xDA	; 218
    4d84:	fc 01       	movw	r30, r24
    4d86:	80 81       	ld	r24, Z
    4d88:	91 81       	ldd	r25, Z+1	; 0x01
    4d8a:	8d 83       	std	Y+5, r24	; 0x05
    4d8c:	9e 83       	std	Y+6, r25	; 0x06
    4d8e:	88 85       	ldd	r24, Y+8	; 0x08
    4d90:	88 2f       	mov	r24, r24
    4d92:	90 e0       	ldi	r25, 0x00	; 0
    4d94:	8c 5c       	subi	r24, 0xCC	; 204
    4d96:	9a 4d       	sbci	r25, 0xDA	; 218
    4d98:	fc 01       	movw	r30, r24
    4d9a:	80 81       	ld	r24, Z
    4d9c:	8f 83       	std	Y+7, r24	; 0x07
    4d9e:	8c 81       	ldd	r24, Y+4	; 0x04
    4da0:	6b da       	rcall	.-2858   	; 0x4278 <cpu_irq_restore>
    4da2:	00 00       	nop
    4da4:	88 85       	ldd	r24, Y+8	; 0x08
    4da6:	28 2f       	mov	r18, r24
    4da8:	30 e0       	ldi	r19, 0x00	; 0
    4daa:	8f 81       	ldd	r24, Y+7	; 0x07
    4dac:	88 2f       	mov	r24, r24
    4dae:	90 e0       	ldi	r25, 0x00	; 0
    4db0:	22 0f       	add	r18, r18
    4db2:	33 1f       	adc	r19, r19
    4db4:	82 0f       	add	r24, r18
    4db6:	93 1f       	adc	r25, r19
    4db8:	88 0f       	add	r24, r24
    4dba:	99 1f       	adc	r25, r25
    4dbc:	80 5d       	subi	r24, 0xD0	; 208
    4dbe:	9a 4d       	sbci	r25, 0xDA	; 218
    4dc0:	fc 01       	movw	r30, r24
    4dc2:	20 81       	ld	r18, Z
    4dc4:	31 81       	ldd	r19, Z+1	; 0x01
    4dc6:	8d 81       	ldd	r24, Y+5	; 0x05
    4dc8:	9e 81       	ldd	r25, Y+6	; 0x06
    4dca:	82 17       	cp	r24, r18
    4dcc:	93 07       	cpc	r25, r19
    4dce:	48 f0       	brcs	.+18     	; 0x4de2 <udi_cdc_multi_getc+0xb0>
    4dd0:	90 91 ae 22 	lds	r25, 0x22AE	; 0x8022ae <udi_cdc_data_running>
    4dd4:	81 e0       	ldi	r24, 0x01	; 1
    4dd6:	89 27       	eor	r24, r25
    4dd8:	88 23       	and	r24, r24
    4dda:	59 f2       	breq	.-106    	; 0x4d72 <udi_cdc_multi_getc+0x40>
    4ddc:	80 e0       	ldi	r24, 0x00	; 0
    4dde:	90 e0       	ldi	r25, 0x00	; 0
    4de0:	4b c0       	rjmp	.+150    	; 0x4e78 <udi_cdc_multi_getc+0x146>
    4de2:	88 85       	ldd	r24, Y+8	; 0x08
    4de4:	68 2f       	mov	r22, r24
    4de6:	70 e0       	ldi	r23, 0x00	; 0
    4de8:	8f 81       	ldd	r24, Y+7	; 0x07
    4dea:	48 2f       	mov	r20, r24
    4dec:	50 e0       	ldi	r21, 0x00	; 0
    4dee:	80 e4       	ldi	r24, 0x40	; 64
    4df0:	91 e0       	ldi	r25, 0x01	; 1
    4df2:	48 9f       	mul	r20, r24
    4df4:	90 01       	movw	r18, r0
    4df6:	49 9f       	mul	r20, r25
    4df8:	30 0d       	add	r19, r0
    4dfa:	58 9f       	mul	r21, r24
    4dfc:	30 0d       	add	r19, r0
    4dfe:	11 24       	eor	r1, r1
    4e00:	cb 01       	movw	r24, r22
    4e02:	96 95       	lsr	r25
    4e04:	98 2f       	mov	r25, r24
    4e06:	88 27       	eor	r24, r24
    4e08:	97 95       	ror	r25
    4e0a:	87 95       	ror	r24
    4e0c:	ac 01       	movw	r20, r24
    4e0e:	44 0f       	add	r20, r20
    4e10:	55 1f       	adc	r21, r21
    4e12:	44 0f       	add	r20, r20
    4e14:	55 1f       	adc	r21, r21
    4e16:	84 0f       	add	r24, r20
    4e18:	95 1f       	adc	r25, r21
    4e1a:	28 0f       	add	r18, r24
    4e1c:	39 1f       	adc	r19, r25
    4e1e:	8d 81       	ldd	r24, Y+5	; 0x05
    4e20:	9e 81       	ldd	r25, Y+6	; 0x06
    4e22:	82 0f       	add	r24, r18
    4e24:	93 1f       	adc	r25, r19
    4e26:	80 55       	subi	r24, 0x50	; 80
    4e28:	9d 4d       	sbci	r25, 0xDD	; 221
    4e2a:	fc 01       	movw	r30, r24
    4e2c:	80 81       	ld	r24, Z
    4e2e:	88 2f       	mov	r24, r24
    4e30:	90 e0       	ldi	r25, 0x00	; 0
    4e32:	29 81       	ldd	r18, Y+1	; 0x01
    4e34:	3a 81       	ldd	r19, Y+2	; 0x02
    4e36:	82 2b       	or	r24, r18
    4e38:	93 2b       	or	r25, r19
    4e3a:	89 83       	std	Y+1, r24	; 0x01
    4e3c:	9a 83       	std	Y+2, r25	; 0x02
    4e3e:	88 85       	ldd	r24, Y+8	; 0x08
    4e40:	88 2f       	mov	r24, r24
    4e42:	90 e0       	ldi	r25, 0x00	; 0
    4e44:	2d 81       	ldd	r18, Y+5	; 0x05
    4e46:	3e 81       	ldd	r19, Y+6	; 0x06
    4e48:	2f 5f       	subi	r18, 0xFF	; 255
    4e4a:	3f 4f       	sbci	r19, 0xFF	; 255
    4e4c:	88 0f       	add	r24, r24
    4e4e:	99 1f       	adc	r25, r25
    4e50:	8b 5c       	subi	r24, 0xCB	; 203
    4e52:	9a 4d       	sbci	r25, 0xDA	; 218
    4e54:	fc 01       	movw	r30, r24
    4e56:	20 83       	st	Z, r18
    4e58:	31 83       	std	Z+1, r19	; 0x01
    4e5a:	88 85       	ldd	r24, Y+8	; 0x08
    4e5c:	6e dc       	rcall	.-1828   	; 0x473a <udi_cdc_rx_start>
    4e5e:	8b 81       	ldd	r24, Y+3	; 0x03
    4e60:	88 23       	and	r24, r24
    4e62:	41 f0       	breq	.+16     	; 0x4e74 <udi_cdc_multi_getc+0x142>
    4e64:	1b 82       	std	Y+3, r1	; 0x03
    4e66:	89 81       	ldd	r24, Y+1	; 0x01
    4e68:	9a 81       	ldd	r25, Y+2	; 0x02
    4e6a:	98 2f       	mov	r25, r24
    4e6c:	88 27       	eor	r24, r24
    4e6e:	89 83       	std	Y+1, r24	; 0x01
    4e70:	9a 83       	std	Y+2, r25	; 0x02
    4e72:	7f cf       	rjmp	.-258    	; 0x4d72 <udi_cdc_multi_getc+0x40>
    4e74:	89 81       	ldd	r24, Y+1	; 0x01
    4e76:	9a 81       	ldd	r25, Y+2	; 0x02
    4e78:	28 96       	adiw	r28, 0x08	; 8
    4e7a:	cd bf       	out	0x3d, r28	; 61
    4e7c:	de bf       	out	0x3e, r29	; 62
    4e7e:	df 91       	pop	r29
    4e80:	cf 91       	pop	r28
    4e82:	08 95       	ret

00004e84 <udi_cdc_getc>:
    4e84:	cf 93       	push	r28
    4e86:	df 93       	push	r29
    4e88:	cd b7       	in	r28, 0x3d	; 61
    4e8a:	de b7       	in	r29, 0x3e	; 62
    4e8c:	80 e0       	ldi	r24, 0x00	; 0
    4e8e:	51 df       	rcall	.-350    	; 0x4d32 <udi_cdc_multi_getc>
    4e90:	df 91       	pop	r29
    4e92:	cf 91       	pop	r28
    4e94:	08 95       	ret

00004e96 <udi_cdc_multi_get_free_tx_buffer>:
    4e96:	cf 93       	push	r28
    4e98:	df 93       	push	r29
    4e9a:	cd b7       	in	r28, 0x3d	; 61
    4e9c:	de b7       	in	r29, 0x3e	; 62
    4e9e:	27 97       	sbiw	r28, 0x07	; 7
    4ea0:	cd bf       	out	0x3d, r28	; 61
    4ea2:	de bf       	out	0x3e, r29	; 62
    4ea4:	8f 83       	std	Y+7, r24	; 0x07
    4ea6:	1f 82       	std	Y+7, r1	; 0x07
    4ea8:	d7 d9       	rcall	.-3154   	; 0x4258 <cpu_irq_save>
    4eaa:	8d 83       	std	Y+5, r24	; 0x05
    4eac:	8f 81       	ldd	r24, Y+7	; 0x07
    4eae:	88 2f       	mov	r24, r24
    4eb0:	90 e0       	ldi	r25, 0x00	; 0
    4eb2:	84 54       	subi	r24, 0x44	; 68
    4eb4:	98 4d       	sbci	r25, 0xD8	; 216
    4eb6:	fc 01       	movw	r30, r24
    4eb8:	80 81       	ld	r24, Z
    4eba:	8e 83       	std	Y+6, r24	; 0x06
    4ebc:	8f 81       	ldd	r24, Y+7	; 0x07
    4ebe:	28 2f       	mov	r18, r24
    4ec0:	30 e0       	ldi	r19, 0x00	; 0
    4ec2:	8e 81       	ldd	r24, Y+6	; 0x06
    4ec4:	88 2f       	mov	r24, r24
    4ec6:	90 e0       	ldi	r25, 0x00	; 0
    4ec8:	22 0f       	add	r18, r18
    4eca:	33 1f       	adc	r19, r19
    4ecc:	82 0f       	add	r24, r18
    4ece:	93 1f       	adc	r25, r19
    4ed0:	88 0f       	add	r24, r24
    4ed2:	99 1f       	adc	r25, r25
    4ed4:	88 54       	subi	r24, 0x48	; 72
    4ed6:	98 4d       	sbci	r25, 0xD8	; 216
    4ed8:	fc 01       	movw	r30, r24
    4eda:	80 81       	ld	r24, Z
    4edc:	91 81       	ldd	r25, Z+1	; 0x01
    4ede:	89 83       	std	Y+1, r24	; 0x01
    4ee0:	9a 83       	std	Y+2, r25	; 0x02
    4ee2:	8f 81       	ldd	r24, Y+7	; 0x07
    4ee4:	28 2f       	mov	r18, r24
    4ee6:	30 e0       	ldi	r19, 0x00	; 0
    4ee8:	81 e0       	ldi	r24, 0x01	; 1
    4eea:	9e 81       	ldd	r25, Y+6	; 0x06
    4eec:	99 23       	and	r25, r25
    4eee:	09 f0       	breq	.+2      	; 0x4ef2 <udi_cdc_multi_get_free_tx_buffer+0x5c>
    4ef0:	80 e0       	ldi	r24, 0x00	; 0
    4ef2:	88 2f       	mov	r24, r24
    4ef4:	90 e0       	ldi	r25, 0x00	; 0
    4ef6:	22 0f       	add	r18, r18
    4ef8:	33 1f       	adc	r19, r19
    4efa:	82 0f       	add	r24, r18
    4efc:	93 1f       	adc	r25, r19
    4efe:	88 0f       	add	r24, r24
    4f00:	99 1f       	adc	r25, r25
    4f02:	88 54       	subi	r24, 0x48	; 72
    4f04:	98 4d       	sbci	r25, 0xD8	; 216
    4f06:	fc 01       	movw	r30, r24
    4f08:	80 81       	ld	r24, Z
    4f0a:	91 81       	ldd	r25, Z+1	; 0x01
    4f0c:	8b 83       	std	Y+3, r24	; 0x03
    4f0e:	9c 83       	std	Y+4, r25	; 0x04
    4f10:	89 81       	ldd	r24, Y+1	; 0x01
    4f12:	9a 81       	ldd	r25, Y+2	; 0x02
    4f14:	80 34       	cpi	r24, 0x40	; 64
    4f16:	91 40       	sbci	r25, 0x01	; 1
    4f18:	81 f5       	brne	.+96     	; 0x4f7a <udi_cdc_multi_get_free_tx_buffer+0xe4>
    4f1a:	8f 81       	ldd	r24, Y+7	; 0x07
    4f1c:	88 2f       	mov	r24, r24
    4f1e:	90 e0       	ldi	r25, 0x00	; 0
    4f20:	81 54       	subi	r24, 0x41	; 65
    4f22:	98 4d       	sbci	r25, 0xD8	; 216
    4f24:	fc 01       	movw	r30, r24
    4f26:	90 81       	ld	r25, Z
    4f28:	81 e0       	ldi	r24, 0x01	; 1
    4f2a:	89 27       	eor	r24, r25
    4f2c:	88 23       	and	r24, r24
    4f2e:	29 f1       	breq	.+74     	; 0x4f7a <udi_cdc_multi_get_free_tx_buffer+0xe4>
    4f30:	8f 81       	ldd	r24, Y+7	; 0x07
    4f32:	88 2f       	mov	r24, r24
    4f34:	90 e0       	ldi	r25, 0x00	; 0
    4f36:	80 54       	subi	r24, 0x40	; 64
    4f38:	98 4d       	sbci	r25, 0xD8	; 216
    4f3a:	fc 01       	movw	r30, r24
    4f3c:	90 81       	ld	r25, Z
    4f3e:	81 e0       	ldi	r24, 0x01	; 1
    4f40:	89 27       	eor	r24, r25
    4f42:	88 23       	and	r24, r24
    4f44:	d1 f0       	breq	.+52     	; 0x4f7a <udi_cdc_multi_get_free_tx_buffer+0xe4>
    4f46:	8f 81       	ldd	r24, Y+7	; 0x07
    4f48:	88 2f       	mov	r24, r24
    4f4a:	90 e0       	ldi	r25, 0x00	; 0
    4f4c:	80 54       	subi	r24, 0x40	; 64
    4f4e:	98 4d       	sbci	r25, 0xD8	; 216
    4f50:	21 e0       	ldi	r18, 0x01	; 1
    4f52:	fc 01       	movw	r30, r24
    4f54:	20 83       	st	Z, r18
    4f56:	8f 81       	ldd	r24, Y+7	; 0x07
    4f58:	88 2f       	mov	r24, r24
    4f5a:	90 e0       	ldi	r25, 0x00	; 0
    4f5c:	21 e0       	ldi	r18, 0x01	; 1
    4f5e:	3e 81       	ldd	r19, Y+6	; 0x06
    4f60:	33 23       	and	r19, r19
    4f62:	09 f0       	breq	.+2      	; 0x4f66 <udi_cdc_multi_get_free_tx_buffer+0xd0>
    4f64:	20 e0       	ldi	r18, 0x00	; 0
    4f66:	84 54       	subi	r24, 0x44	; 68
    4f68:	98 4d       	sbci	r25, 0xD8	; 216
    4f6a:	fc 01       	movw	r30, r24
    4f6c:	20 83       	st	Z, r18
    4f6e:	19 82       	std	Y+1, r1	; 0x01
    4f70:	1a 82       	std	Y+2, r1	; 0x02
    4f72:	80 e4       	ldi	r24, 0x40	; 64
    4f74:	91 e0       	ldi	r25, 0x01	; 1
    4f76:	8b 83       	std	Y+3, r24	; 0x03
    4f78:	9c 83       	std	Y+4, r25	; 0x04
    4f7a:	8d 81       	ldd	r24, Y+5	; 0x05
    4f7c:	7d d9       	rcall	.-3334   	; 0x4278 <cpu_irq_restore>
    4f7e:	89 81       	ldd	r24, Y+1	; 0x01
    4f80:	9a 81       	ldd	r25, Y+2	; 0x02
    4f82:	22 27       	eor	r18, r18
    4f84:	33 27       	eor	r19, r19
    4f86:	28 1b       	sub	r18, r24
    4f88:	39 0b       	sbc	r19, r25
    4f8a:	8b 81       	ldd	r24, Y+3	; 0x03
    4f8c:	9c 81       	ldd	r25, Y+4	; 0x04
    4f8e:	a9 01       	movw	r20, r18
    4f90:	48 1b       	sub	r20, r24
    4f92:	59 0b       	sbc	r21, r25
    4f94:	ca 01       	movw	r24, r20
    4f96:	80 58       	subi	r24, 0x80	; 128
    4f98:	9d 4f       	sbci	r25, 0xFD	; 253
    4f9a:	27 96       	adiw	r28, 0x07	; 7
    4f9c:	cd bf       	out	0x3d, r28	; 61
    4f9e:	de bf       	out	0x3e, r29	; 62
    4fa0:	df 91       	pop	r29
    4fa2:	cf 91       	pop	r28
    4fa4:	08 95       	ret

00004fa6 <udi_cdc_multi_is_tx_ready>:
    4fa6:	cf 93       	push	r28
    4fa8:	df 93       	push	r29
    4faa:	1f 92       	push	r1
    4fac:	cd b7       	in	r28, 0x3d	; 61
    4fae:	de b7       	in	r29, 0x3e	; 62
    4fb0:	89 83       	std	Y+1, r24	; 0x01
    4fb2:	89 81       	ldd	r24, Y+1	; 0x01
    4fb4:	70 df       	rcall	.-288    	; 0x4e96 <udi_cdc_multi_get_free_tx_buffer>
    4fb6:	21 e0       	ldi	r18, 0x01	; 1
    4fb8:	89 2b       	or	r24, r25
    4fba:	09 f4       	brne	.+2      	; 0x4fbe <udi_cdc_multi_is_tx_ready+0x18>
    4fbc:	20 e0       	ldi	r18, 0x00	; 0
    4fbe:	82 2f       	mov	r24, r18
    4fc0:	0f 90       	pop	r0
    4fc2:	df 91       	pop	r29
    4fc4:	cf 91       	pop	r28
    4fc6:	08 95       	ret

00004fc8 <udi_cdc_multi_putc>:
    4fc8:	cf 93       	push	r28
    4fca:	df 93       	push	r29
    4fcc:	cd b7       	in	r28, 0x3d	; 61
    4fce:	de b7       	in	r29, 0x3e	; 62
    4fd0:	28 97       	sbiw	r28, 0x08	; 8
    4fd2:	cd bf       	out	0x3d, r28	; 61
    4fd4:	de bf       	out	0x3e, r29	; 62
    4fd6:	8c 83       	std	Y+4, r24	; 0x04
    4fd8:	6d 83       	std	Y+5, r22	; 0x05
    4fda:	7e 83       	std	Y+6, r23	; 0x06
    4fdc:	1c 82       	std	Y+4, r1	; 0x04
    4fde:	8c 81       	ldd	r24, Y+4	; 0x04
    4fe0:	28 2f       	mov	r18, r24
    4fe2:	30 e0       	ldi	r19, 0x00	; 0
    4fe4:	c9 01       	movw	r24, r18
    4fe6:	88 0f       	add	r24, r24
    4fe8:	99 1f       	adc	r25, r25
    4fea:	88 0f       	add	r24, r24
    4fec:	99 1f       	adc	r25, r25
    4fee:	88 0f       	add	r24, r24
    4ff0:	99 1f       	adc	r25, r25
    4ff2:	82 1b       	sub	r24, r18
    4ff4:	93 0b       	sbc	r25, r19
    4ff6:	82 56       	subi	r24, 0x62	; 98
    4ff8:	9d 4d       	sbci	r25, 0xDD	; 221
    4ffa:	dc 01       	movw	r26, r24
    4ffc:	9c 91       	ld	r25, X
    4ffe:	81 e0       	ldi	r24, 0x01	; 1
    5000:	99 30       	cpi	r25, 0x09	; 9
    5002:	09 f0       	breq	.+2      	; 0x5006 <udi_cdc_multi_putc+0x3e>
    5004:	80 e0       	ldi	r24, 0x00	; 0
    5006:	89 83       	std	Y+1, r24	; 0x01
    5008:	8c 81       	ldd	r24, Y+4	; 0x04
    500a:	cd df       	rcall	.-102    	; 0x4fa6 <udi_cdc_multi_is_tx_ready>
    500c:	98 2f       	mov	r25, r24
    500e:	81 e0       	ldi	r24, 0x01	; 1
    5010:	89 27       	eor	r24, r25
    5012:	88 23       	and	r24, r24
    5014:	49 f0       	breq	.+18     	; 0x5028 <udi_cdc_multi_putc+0x60>
    5016:	90 91 ae 22 	lds	r25, 0x22AE	; 0x8022ae <udi_cdc_data_running>
    501a:	81 e0       	ldi	r24, 0x01	; 1
    501c:	89 27       	eor	r24, r25
    501e:	88 23       	and	r24, r24
    5020:	99 f3       	breq	.-26     	; 0x5008 <udi_cdc_multi_putc+0x40>
    5022:	80 e0       	ldi	r24, 0x00	; 0
    5024:	90 e0       	ldi	r25, 0x00	; 0
    5026:	62 c0       	rjmp	.+196    	; 0x50ec <udi_cdc_multi_putc+0x124>
    5028:	17 d9       	rcall	.-3538   	; 0x4258 <cpu_irq_save>
    502a:	8a 83       	std	Y+2, r24	; 0x02
    502c:	8c 81       	ldd	r24, Y+4	; 0x04
    502e:	88 2f       	mov	r24, r24
    5030:	90 e0       	ldi	r25, 0x00	; 0
    5032:	84 54       	subi	r24, 0x44	; 68
    5034:	98 4d       	sbci	r25, 0xD8	; 216
    5036:	fc 01       	movw	r30, r24
    5038:	80 81       	ld	r24, Z
    503a:	8b 83       	std	Y+3, r24	; 0x03
    503c:	8c 81       	ldd	r24, Y+4	; 0x04
    503e:	a8 2f       	mov	r26, r24
    5040:	b0 e0       	ldi	r27, 0x00	; 0
    5042:	8b 81       	ldd	r24, Y+3	; 0x03
    5044:	68 2f       	mov	r22, r24
    5046:	70 e0       	ldi	r23, 0x00	; 0
    5048:	8c 81       	ldd	r24, Y+4	; 0x04
    504a:	48 2f       	mov	r20, r24
    504c:	50 e0       	ldi	r21, 0x00	; 0
    504e:	8b 81       	ldd	r24, Y+3	; 0x03
    5050:	88 2f       	mov	r24, r24
    5052:	90 e0       	ldi	r25, 0x00	; 0
    5054:	9a 01       	movw	r18, r20
    5056:	22 0f       	add	r18, r18
    5058:	33 1f       	adc	r19, r19
    505a:	28 0f       	add	r18, r24
    505c:	39 1f       	adc	r19, r25
    505e:	22 0f       	add	r18, r18
    5060:	33 1f       	adc	r19, r19
    5062:	28 54       	subi	r18, 0x48	; 72
    5064:	38 4d       	sbci	r19, 0xD8	; 216
    5066:	f9 01       	movw	r30, r18
    5068:	20 81       	ld	r18, Z
    506a:	31 81       	ldd	r19, Z+1	; 0x01
    506c:	f9 01       	movw	r30, r18
    506e:	31 96       	adiw	r30, 0x01	; 1
    5070:	ef 83       	std	Y+7, r30	; 0x07
    5072:	f8 87       	std	Y+8, r31	; 0x08
    5074:	44 0f       	add	r20, r20
    5076:	55 1f       	adc	r21, r21
    5078:	84 0f       	add	r24, r20
    507a:	95 1f       	adc	r25, r21
    507c:	88 0f       	add	r24, r24
    507e:	99 1f       	adc	r25, r25
    5080:	88 54       	subi	r24, 0x48	; 72
    5082:	98 4d       	sbci	r25, 0xD8	; 216
    5084:	4f 81       	ldd	r20, Y+7	; 0x07
    5086:	58 85       	ldd	r21, Y+8	; 0x08
    5088:	fc 01       	movw	r30, r24
    508a:	40 83       	st	Z, r20
    508c:	51 83       	std	Z+1, r21	; 0x01
    508e:	ed 81       	ldd	r30, Y+5	; 0x05
    5090:	80 e4       	ldi	r24, 0x40	; 64
    5092:	91 e0       	ldi	r25, 0x01	; 1
    5094:	68 9f       	mul	r22, r24
    5096:	a0 01       	movw	r20, r0
    5098:	69 9f       	mul	r22, r25
    509a:	50 0d       	add	r21, r0
    509c:	78 9f       	mul	r23, r24
    509e:	50 0d       	add	r21, r0
    50a0:	11 24       	eor	r1, r1
    50a2:	cd 01       	movw	r24, r26
    50a4:	96 95       	lsr	r25
    50a6:	98 2f       	mov	r25, r24
    50a8:	88 27       	eor	r24, r24
    50aa:	97 95       	ror	r25
    50ac:	87 95       	ror	r24
    50ae:	bc 01       	movw	r22, r24
    50b0:	66 0f       	add	r22, r22
    50b2:	77 1f       	adc	r23, r23
    50b4:	66 0f       	add	r22, r22
    50b6:	77 1f       	adc	r23, r23
    50b8:	86 0f       	add	r24, r22
    50ba:	97 1f       	adc	r25, r23
    50bc:	84 0f       	add	r24, r20
    50be:	95 1f       	adc	r25, r21
    50c0:	82 0f       	add	r24, r18
    50c2:	93 1f       	adc	r25, r19
    50c4:	88 5c       	subi	r24, 0xC8	; 200
    50c6:	9a 4d       	sbci	r25, 0xDA	; 218
    50c8:	dc 01       	movw	r26, r24
    50ca:	ec 93       	st	X, r30
    50cc:	8a 81       	ldd	r24, Y+2	; 0x02
    50ce:	d4 d8       	rcall	.-3672   	; 0x4278 <cpu_irq_restore>
    50d0:	89 81       	ldd	r24, Y+1	; 0x01
    50d2:	88 23       	and	r24, r24
    50d4:	49 f0       	breq	.+18     	; 0x50e8 <udi_cdc_multi_putc+0x120>
    50d6:	19 82       	std	Y+1, r1	; 0x01
    50d8:	8d 81       	ldd	r24, Y+5	; 0x05
    50da:	9e 81       	ldd	r25, Y+6	; 0x06
    50dc:	89 2f       	mov	r24, r25
    50de:	99 0f       	add	r25, r25
    50e0:	99 0b       	sbc	r25, r25
    50e2:	8d 83       	std	Y+5, r24	; 0x05
    50e4:	9e 83       	std	Y+6, r25	; 0x06
    50e6:	90 cf       	rjmp	.-224    	; 0x5008 <udi_cdc_multi_putc+0x40>
    50e8:	81 e0       	ldi	r24, 0x01	; 1
    50ea:	90 e0       	ldi	r25, 0x00	; 0
    50ec:	28 96       	adiw	r28, 0x08	; 8
    50ee:	cd bf       	out	0x3d, r28	; 61
    50f0:	de bf       	out	0x3e, r29	; 62
    50f2:	df 91       	pop	r29
    50f4:	cf 91       	pop	r28
    50f6:	08 95       	ret

000050f8 <udi_cdc_putc>:
    50f8:	cf 93       	push	r28
    50fa:	df 93       	push	r29
    50fc:	1f 92       	push	r1
    50fe:	1f 92       	push	r1
    5100:	cd b7       	in	r28, 0x3d	; 61
    5102:	de b7       	in	r29, 0x3e	; 62
    5104:	89 83       	std	Y+1, r24	; 0x01
    5106:	9a 83       	std	Y+2, r25	; 0x02
    5108:	89 81       	ldd	r24, Y+1	; 0x01
    510a:	9a 81       	ldd	r25, Y+2	; 0x02
    510c:	bc 01       	movw	r22, r24
    510e:	80 e0       	ldi	r24, 0x00	; 0
    5110:	5b df       	rcall	.-330    	; 0x4fc8 <udi_cdc_multi_putc>
    5112:	0f 90       	pop	r0
    5114:	0f 90       	pop	r0
    5116:	df 91       	pop	r29
    5118:	cf 91       	pop	r28
    511a:	08 95       	ret

0000511c <udc_get_eof_conf>:
    511c:	cf 93       	push	r28
    511e:	df 93       	push	r29
    5120:	cd b7       	in	r28, 0x3d	; 61
    5122:	de b7       	in	r29, 0x3e	; 62
    5124:	80 91 c7 27 	lds	r24, 0x27C7	; 0x8027c7 <udc_ptr_conf>
    5128:	90 91 c8 27 	lds	r25, 0x27C8	; 0x8027c8 <udc_ptr_conf+0x1>
    512c:	fc 01       	movw	r30, r24
    512e:	20 81       	ld	r18, Z
    5130:	31 81       	ldd	r19, Z+1	; 0x01
    5132:	80 91 c7 27 	lds	r24, 0x27C7	; 0x8027c7 <udc_ptr_conf>
    5136:	90 91 c8 27 	lds	r25, 0x27C8	; 0x8027c8 <udc_ptr_conf+0x1>
    513a:	fc 01       	movw	r30, r24
    513c:	80 81       	ld	r24, Z
    513e:	91 81       	ldd	r25, Z+1	; 0x01
    5140:	fc 01       	movw	r30, r24
    5142:	82 81       	ldd	r24, Z+2	; 0x02
    5144:	93 81       	ldd	r25, Z+3	; 0x03
    5146:	82 0f       	add	r24, r18
    5148:	93 1f       	adc	r25, r19
    514a:	df 91       	pop	r29
    514c:	cf 91       	pop	r28
    514e:	08 95       	ret

00005150 <udc_next_desc_in_iface>:
    5150:	cf 93       	push	r28
    5152:	df 93       	push	r29
    5154:	cd b7       	in	r28, 0x3d	; 61
    5156:	de b7       	in	r29, 0x3e	; 62
    5158:	25 97       	sbiw	r28, 0x05	; 5
    515a:	cd bf       	out	0x3d, r28	; 61
    515c:	de bf       	out	0x3e, r29	; 62
    515e:	8b 83       	std	Y+3, r24	; 0x03
    5160:	9c 83       	std	Y+4, r25	; 0x04
    5162:	6d 83       	std	Y+5, r22	; 0x05
    5164:	db df       	rcall	.-74     	; 0x511c <udc_get_eof_conf>
    5166:	89 83       	std	Y+1, r24	; 0x01
    5168:	9a 83       	std	Y+2, r25	; 0x02
    516a:	8b 81       	ldd	r24, Y+3	; 0x03
    516c:	9c 81       	ldd	r25, Y+4	; 0x04
    516e:	fc 01       	movw	r30, r24
    5170:	80 81       	ld	r24, Z
    5172:	88 2f       	mov	r24, r24
    5174:	90 e0       	ldi	r25, 0x00	; 0
    5176:	2b 81       	ldd	r18, Y+3	; 0x03
    5178:	3c 81       	ldd	r19, Y+4	; 0x04
    517a:	82 0f       	add	r24, r18
    517c:	93 1f       	adc	r25, r19
    517e:	8b 83       	std	Y+3, r24	; 0x03
    5180:	9c 83       	std	Y+4, r25	; 0x04
    5182:	1c c0       	rjmp	.+56     	; 0x51bc <udc_next_desc_in_iface+0x6c>
    5184:	8b 81       	ldd	r24, Y+3	; 0x03
    5186:	9c 81       	ldd	r25, Y+4	; 0x04
    5188:	fc 01       	movw	r30, r24
    518a:	81 81       	ldd	r24, Z+1	; 0x01
    518c:	84 30       	cpi	r24, 0x04	; 4
    518e:	f1 f0       	breq	.+60     	; 0x51cc <udc_next_desc_in_iface+0x7c>
    5190:	8b 81       	ldd	r24, Y+3	; 0x03
    5192:	9c 81       	ldd	r25, Y+4	; 0x04
    5194:	fc 01       	movw	r30, r24
    5196:	91 81       	ldd	r25, Z+1	; 0x01
    5198:	8d 81       	ldd	r24, Y+5	; 0x05
    519a:	98 17       	cp	r25, r24
    519c:	19 f4       	brne	.+6      	; 0x51a4 <udc_next_desc_in_iface+0x54>
    519e:	8b 81       	ldd	r24, Y+3	; 0x03
    51a0:	9c 81       	ldd	r25, Y+4	; 0x04
    51a2:	17 c0       	rjmp	.+46     	; 0x51d2 <udc_next_desc_in_iface+0x82>
    51a4:	8b 81       	ldd	r24, Y+3	; 0x03
    51a6:	9c 81       	ldd	r25, Y+4	; 0x04
    51a8:	fc 01       	movw	r30, r24
    51aa:	80 81       	ld	r24, Z
    51ac:	88 2f       	mov	r24, r24
    51ae:	90 e0       	ldi	r25, 0x00	; 0
    51b0:	2b 81       	ldd	r18, Y+3	; 0x03
    51b2:	3c 81       	ldd	r19, Y+4	; 0x04
    51b4:	82 0f       	add	r24, r18
    51b6:	93 1f       	adc	r25, r19
    51b8:	8b 83       	std	Y+3, r24	; 0x03
    51ba:	9c 83       	std	Y+4, r25	; 0x04
    51bc:	29 81       	ldd	r18, Y+1	; 0x01
    51be:	3a 81       	ldd	r19, Y+2	; 0x02
    51c0:	8b 81       	ldd	r24, Y+3	; 0x03
    51c2:	9c 81       	ldd	r25, Y+4	; 0x04
    51c4:	82 17       	cp	r24, r18
    51c6:	93 07       	cpc	r25, r19
    51c8:	e8 f2       	brcs	.-70     	; 0x5184 <udc_next_desc_in_iface+0x34>
    51ca:	01 c0       	rjmp	.+2      	; 0x51ce <udc_next_desc_in_iface+0x7e>
    51cc:	00 00       	nop
    51ce:	80 e0       	ldi	r24, 0x00	; 0
    51d0:	90 e0       	ldi	r25, 0x00	; 0
    51d2:	25 96       	adiw	r28, 0x05	; 5
    51d4:	cd bf       	out	0x3d, r28	; 61
    51d6:	de bf       	out	0x3e, r29	; 62
    51d8:	df 91       	pop	r29
    51da:	cf 91       	pop	r28
    51dc:	08 95       	ret

000051de <udc_update_iface_desc>:
    51de:	cf 93       	push	r28
    51e0:	df 93       	push	r29
    51e2:	00 d0       	rcall	.+0      	; 0x51e4 <udc_update_iface_desc+0x6>
    51e4:	1f 92       	push	r1
    51e6:	cd b7       	in	r28, 0x3d	; 61
    51e8:	de b7       	in	r29, 0x3e	; 62
    51ea:	8b 83       	std	Y+3, r24	; 0x03
    51ec:	6c 83       	std	Y+4, r22	; 0x04
    51ee:	80 91 c6 27 	lds	r24, 0x27C6	; 0x8027c6 <udc_num_configuration>
    51f2:	88 23       	and	r24, r24
    51f4:	11 f4       	brne	.+4      	; 0x51fa <udc_update_iface_desc+0x1c>
    51f6:	80 e0       	ldi	r24, 0x00	; 0
    51f8:	55 c0       	rjmp	.+170    	; 0x52a4 <udc_update_iface_desc+0xc6>
    51fa:	80 91 c7 27 	lds	r24, 0x27C7	; 0x8027c7 <udc_ptr_conf>
    51fe:	90 91 c8 27 	lds	r25, 0x27C8	; 0x8027c8 <udc_ptr_conf+0x1>
    5202:	fc 01       	movw	r30, r24
    5204:	80 81       	ld	r24, Z
    5206:	91 81       	ldd	r25, Z+1	; 0x01
    5208:	fc 01       	movw	r30, r24
    520a:	94 81       	ldd	r25, Z+4	; 0x04
    520c:	8b 81       	ldd	r24, Y+3	; 0x03
    520e:	89 17       	cp	r24, r25
    5210:	10 f0       	brcs	.+4      	; 0x5216 <udc_update_iface_desc+0x38>
    5212:	80 e0       	ldi	r24, 0x00	; 0
    5214:	47 c0       	rjmp	.+142    	; 0x52a4 <udc_update_iface_desc+0xc6>
    5216:	80 91 c7 27 	lds	r24, 0x27C7	; 0x8027c7 <udc_ptr_conf>
    521a:	90 91 c8 27 	lds	r25, 0x27C8	; 0x8027c8 <udc_ptr_conf+0x1>
    521e:	fc 01       	movw	r30, r24
    5220:	80 81       	ld	r24, Z
    5222:	91 81       	ldd	r25, Z+1	; 0x01
    5224:	80 93 c9 27 	sts	0x27C9, r24	; 0x8027c9 <udc_ptr_iface>
    5228:	90 93 ca 27 	sts	0x27CA, r25	; 0x8027ca <udc_ptr_iface+0x1>
    522c:	77 df       	rcall	.-274    	; 0x511c <udc_get_eof_conf>
    522e:	89 83       	std	Y+1, r24	; 0x01
    5230:	9a 83       	std	Y+2, r25	; 0x02
    5232:	2e c0       	rjmp	.+92     	; 0x5290 <udc_update_iface_desc+0xb2>
    5234:	80 91 c9 27 	lds	r24, 0x27C9	; 0x8027c9 <udc_ptr_iface>
    5238:	90 91 ca 27 	lds	r25, 0x27CA	; 0x8027ca <udc_ptr_iface+0x1>
    523c:	fc 01       	movw	r30, r24
    523e:	81 81       	ldd	r24, Z+1	; 0x01
    5240:	84 30       	cpi	r24, 0x04	; 4
    5242:	a1 f4       	brne	.+40     	; 0x526c <udc_update_iface_desc+0x8e>
    5244:	80 91 c9 27 	lds	r24, 0x27C9	; 0x8027c9 <udc_ptr_iface>
    5248:	90 91 ca 27 	lds	r25, 0x27CA	; 0x8027ca <udc_ptr_iface+0x1>
    524c:	fc 01       	movw	r30, r24
    524e:	92 81       	ldd	r25, Z+2	; 0x02
    5250:	8b 81       	ldd	r24, Y+3	; 0x03
    5252:	98 17       	cp	r25, r24
    5254:	59 f4       	brne	.+22     	; 0x526c <udc_update_iface_desc+0x8e>
    5256:	80 91 c9 27 	lds	r24, 0x27C9	; 0x8027c9 <udc_ptr_iface>
    525a:	90 91 ca 27 	lds	r25, 0x27CA	; 0x8027ca <udc_ptr_iface+0x1>
    525e:	fc 01       	movw	r30, r24
    5260:	93 81       	ldd	r25, Z+3	; 0x03
    5262:	8c 81       	ldd	r24, Y+4	; 0x04
    5264:	98 17       	cp	r25, r24
    5266:	11 f4       	brne	.+4      	; 0x526c <udc_update_iface_desc+0x8e>
    5268:	81 e0       	ldi	r24, 0x01	; 1
    526a:	1c c0       	rjmp	.+56     	; 0x52a4 <udc_update_iface_desc+0xc6>
    526c:	20 91 c9 27 	lds	r18, 0x27C9	; 0x8027c9 <udc_ptr_iface>
    5270:	30 91 ca 27 	lds	r19, 0x27CA	; 0x8027ca <udc_ptr_iface+0x1>
    5274:	80 91 c9 27 	lds	r24, 0x27C9	; 0x8027c9 <udc_ptr_iface>
    5278:	90 91 ca 27 	lds	r25, 0x27CA	; 0x8027ca <udc_ptr_iface+0x1>
    527c:	fc 01       	movw	r30, r24
    527e:	80 81       	ld	r24, Z
    5280:	88 2f       	mov	r24, r24
    5282:	90 e0       	ldi	r25, 0x00	; 0
    5284:	82 0f       	add	r24, r18
    5286:	93 1f       	adc	r25, r19
    5288:	80 93 c9 27 	sts	0x27C9, r24	; 0x8027c9 <udc_ptr_iface>
    528c:	90 93 ca 27 	sts	0x27CA, r25	; 0x8027ca <udc_ptr_iface+0x1>
    5290:	80 91 c9 27 	lds	r24, 0x27C9	; 0x8027c9 <udc_ptr_iface>
    5294:	90 91 ca 27 	lds	r25, 0x27CA	; 0x8027ca <udc_ptr_iface+0x1>
    5298:	29 81       	ldd	r18, Y+1	; 0x01
    529a:	3a 81       	ldd	r19, Y+2	; 0x02
    529c:	82 17       	cp	r24, r18
    529e:	93 07       	cpc	r25, r19
    52a0:	48 f2       	brcs	.-110    	; 0x5234 <udc_update_iface_desc+0x56>
    52a2:	80 e0       	ldi	r24, 0x00	; 0
    52a4:	24 96       	adiw	r28, 0x04	; 4
    52a6:	cd bf       	out	0x3d, r28	; 61
    52a8:	de bf       	out	0x3e, r29	; 62
    52aa:	df 91       	pop	r29
    52ac:	cf 91       	pop	r28
    52ae:	08 95       	ret

000052b0 <udc_iface_disable>:
    52b0:	cf 93       	push	r28
    52b2:	df 93       	push	r29
    52b4:	cd b7       	in	r28, 0x3d	; 61
    52b6:	de b7       	in	r29, 0x3e	; 62
    52b8:	25 97       	sbiw	r28, 0x05	; 5
    52ba:	cd bf       	out	0x3d, r28	; 61
    52bc:	de bf       	out	0x3e, r29	; 62
    52be:	8d 83       	std	Y+5, r24	; 0x05
    52c0:	60 e0       	ldi	r22, 0x00	; 0
    52c2:	8d 81       	ldd	r24, Y+5	; 0x05
    52c4:	8c df       	rcall	.-232    	; 0x51de <udc_update_iface_desc>
    52c6:	98 2f       	mov	r25, r24
    52c8:	81 e0       	ldi	r24, 0x01	; 1
    52ca:	89 27       	eor	r24, r25
    52cc:	88 23       	and	r24, r24
    52ce:	11 f0       	breq	.+4      	; 0x52d4 <udc_iface_disable+0x24>
    52d0:	80 e0       	ldi	r24, 0x00	; 0
    52d2:	43 c0       	rjmp	.+134    	; 0x535a <udc_iface_disable+0xaa>
    52d4:	80 91 c7 27 	lds	r24, 0x27C7	; 0x8027c7 <udc_ptr_conf>
    52d8:	90 91 c8 27 	lds	r25, 0x27C8	; 0x8027c8 <udc_ptr_conf+0x1>
    52dc:	fc 01       	movw	r30, r24
    52de:	22 81       	ldd	r18, Z+2	; 0x02
    52e0:	33 81       	ldd	r19, Z+3	; 0x03
    52e2:	8d 81       	ldd	r24, Y+5	; 0x05
    52e4:	88 2f       	mov	r24, r24
    52e6:	90 e0       	ldi	r25, 0x00	; 0
    52e8:	88 0f       	add	r24, r24
    52ea:	99 1f       	adc	r25, r25
    52ec:	82 0f       	add	r24, r18
    52ee:	93 1f       	adc	r25, r19
    52f0:	fc 01       	movw	r30, r24
    52f2:	80 81       	ld	r24, Z
    52f4:	91 81       	ldd	r25, Z+1	; 0x01
    52f6:	8b 83       	std	Y+3, r24	; 0x03
    52f8:	9c 83       	std	Y+4, r25	; 0x04
    52fa:	8b 81       	ldd	r24, Y+3	; 0x03
    52fc:	9c 81       	ldd	r25, Y+4	; 0x04
    52fe:	fc 01       	movw	r30, r24
    5300:	86 81       	ldd	r24, Z+6	; 0x06
    5302:	97 81       	ldd	r25, Z+7	; 0x07
    5304:	fc 01       	movw	r30, r24
    5306:	19 95       	eicall
    5308:	68 2f       	mov	r22, r24
    530a:	8d 81       	ldd	r24, Y+5	; 0x05
    530c:	68 df       	rcall	.-304    	; 0x51de <udc_update_iface_desc>
    530e:	98 2f       	mov	r25, r24
    5310:	81 e0       	ldi	r24, 0x01	; 1
    5312:	89 27       	eor	r24, r25
    5314:	88 23       	and	r24, r24
    5316:	11 f0       	breq	.+4      	; 0x531c <udc_iface_disable+0x6c>
    5318:	80 e0       	ldi	r24, 0x00	; 0
    531a:	1f c0       	rjmp	.+62     	; 0x535a <udc_iface_disable+0xaa>
    531c:	80 91 c9 27 	lds	r24, 0x27C9	; 0x8027c9 <udc_ptr_iface>
    5320:	90 91 ca 27 	lds	r25, 0x27CA	; 0x8027ca <udc_ptr_iface+0x1>
    5324:	89 83       	std	Y+1, r24	; 0x01
    5326:	9a 83       	std	Y+2, r25	; 0x02
    5328:	89 81       	ldd	r24, Y+1	; 0x01
    532a:	9a 81       	ldd	r25, Y+2	; 0x02
    532c:	65 e0       	ldi	r22, 0x05	; 5
    532e:	10 df       	rcall	.-480    	; 0x5150 <udc_next_desc_in_iface>
    5330:	89 83       	std	Y+1, r24	; 0x01
    5332:	9a 83       	std	Y+2, r25	; 0x02
    5334:	89 81       	ldd	r24, Y+1	; 0x01
    5336:	9a 81       	ldd	r25, Y+2	; 0x02
    5338:	89 2b       	or	r24, r25
    533a:	31 f0       	breq	.+12     	; 0x5348 <udc_iface_disable+0x98>
    533c:	89 81       	ldd	r24, Y+1	; 0x01
    533e:	9a 81       	ldd	r25, Y+2	; 0x02
    5340:	fc 01       	movw	r30, r24
    5342:	82 81       	ldd	r24, Z+2	; 0x02
    5344:	67 d7       	rcall	.+3790   	; 0x6214 <udd_ep_free>
    5346:	f0 cf       	rjmp	.-32     	; 0x5328 <udc_iface_disable+0x78>
    5348:	00 00       	nop
    534a:	8b 81       	ldd	r24, Y+3	; 0x03
    534c:	9c 81       	ldd	r25, Y+4	; 0x04
    534e:	fc 01       	movw	r30, r24
    5350:	82 81       	ldd	r24, Z+2	; 0x02
    5352:	93 81       	ldd	r25, Z+3	; 0x03
    5354:	fc 01       	movw	r30, r24
    5356:	19 95       	eicall
    5358:	81 e0       	ldi	r24, 0x01	; 1
    535a:	25 96       	adiw	r28, 0x05	; 5
    535c:	cd bf       	out	0x3d, r28	; 61
    535e:	de bf       	out	0x3e, r29	; 62
    5360:	df 91       	pop	r29
    5362:	cf 91       	pop	r28
    5364:	08 95       	ret

00005366 <udc_iface_enable>:
    5366:	cf 93       	push	r28
    5368:	df 93       	push	r29
    536a:	00 d0       	rcall	.+0      	; 0x536c <udc_iface_enable+0x6>
    536c:	1f 92       	push	r1
    536e:	cd b7       	in	r28, 0x3d	; 61
    5370:	de b7       	in	r29, 0x3e	; 62
    5372:	8b 83       	std	Y+3, r24	; 0x03
    5374:	6c 83       	std	Y+4, r22	; 0x04
    5376:	6c 81       	ldd	r22, Y+4	; 0x04
    5378:	8b 81       	ldd	r24, Y+3	; 0x03
    537a:	31 df       	rcall	.-414    	; 0x51de <udc_update_iface_desc>
    537c:	98 2f       	mov	r25, r24
    537e:	81 e0       	ldi	r24, 0x01	; 1
    5380:	89 27       	eor	r24, r25
    5382:	88 23       	and	r24, r24
    5384:	11 f0       	breq	.+4      	; 0x538a <udc_iface_enable+0x24>
    5386:	80 e0       	ldi	r24, 0x00	; 0
    5388:	3d c0       	rjmp	.+122    	; 0x5404 <udc_iface_enable+0x9e>
    538a:	80 91 c9 27 	lds	r24, 0x27C9	; 0x8027c9 <udc_ptr_iface>
    538e:	90 91 ca 27 	lds	r25, 0x27CA	; 0x8027ca <udc_ptr_iface+0x1>
    5392:	89 83       	std	Y+1, r24	; 0x01
    5394:	9a 83       	std	Y+2, r25	; 0x02
    5396:	89 81       	ldd	r24, Y+1	; 0x01
    5398:	9a 81       	ldd	r25, Y+2	; 0x02
    539a:	65 e0       	ldi	r22, 0x05	; 5
    539c:	d9 de       	rcall	.-590    	; 0x5150 <udc_next_desc_in_iface>
    539e:	89 83       	std	Y+1, r24	; 0x01
    53a0:	9a 83       	std	Y+2, r25	; 0x02
    53a2:	89 81       	ldd	r24, Y+1	; 0x01
    53a4:	9a 81       	ldd	r25, Y+2	; 0x02
    53a6:	89 2b       	or	r24, r25
    53a8:	b1 f0       	breq	.+44     	; 0x53d6 <udc_iface_enable+0x70>
    53aa:	89 81       	ldd	r24, Y+1	; 0x01
    53ac:	9a 81       	ldd	r25, Y+2	; 0x02
    53ae:	fc 01       	movw	r30, r24
    53b0:	24 81       	ldd	r18, Z+4	; 0x04
    53b2:	35 81       	ldd	r19, Z+5	; 0x05
    53b4:	89 81       	ldd	r24, Y+1	; 0x01
    53b6:	9a 81       	ldd	r25, Y+2	; 0x02
    53b8:	fc 01       	movw	r30, r24
    53ba:	63 81       	ldd	r22, Z+3	; 0x03
    53bc:	89 81       	ldd	r24, Y+1	; 0x01
    53be:	9a 81       	ldd	r25, Y+2	; 0x02
    53c0:	fc 01       	movw	r30, r24
    53c2:	82 81       	ldd	r24, Z+2	; 0x02
    53c4:	a9 01       	movw	r20, r18
    53c6:	de d6       	rcall	.+3516   	; 0x6184 <udd_ep_alloc>
    53c8:	98 2f       	mov	r25, r24
    53ca:	81 e0       	ldi	r24, 0x01	; 1
    53cc:	89 27       	eor	r24, r25
    53ce:	88 23       	and	r24, r24
    53d0:	11 f3       	breq	.-60     	; 0x5396 <udc_iface_enable+0x30>
    53d2:	80 e0       	ldi	r24, 0x00	; 0
    53d4:	17 c0       	rjmp	.+46     	; 0x5404 <udc_iface_enable+0x9e>
    53d6:	00 00       	nop
    53d8:	80 91 c7 27 	lds	r24, 0x27C7	; 0x8027c7 <udc_ptr_conf>
    53dc:	90 91 c8 27 	lds	r25, 0x27C8	; 0x8027c8 <udc_ptr_conf+0x1>
    53e0:	fc 01       	movw	r30, r24
    53e2:	22 81       	ldd	r18, Z+2	; 0x02
    53e4:	33 81       	ldd	r19, Z+3	; 0x03
    53e6:	8b 81       	ldd	r24, Y+3	; 0x03
    53e8:	88 2f       	mov	r24, r24
    53ea:	90 e0       	ldi	r25, 0x00	; 0
    53ec:	88 0f       	add	r24, r24
    53ee:	99 1f       	adc	r25, r25
    53f0:	82 0f       	add	r24, r18
    53f2:	93 1f       	adc	r25, r19
    53f4:	fc 01       	movw	r30, r24
    53f6:	80 81       	ld	r24, Z
    53f8:	91 81       	ldd	r25, Z+1	; 0x01
    53fa:	fc 01       	movw	r30, r24
    53fc:	80 81       	ld	r24, Z
    53fe:	91 81       	ldd	r25, Z+1	; 0x01
    5400:	fc 01       	movw	r30, r24
    5402:	19 95       	eicall
    5404:	24 96       	adiw	r28, 0x04	; 4
    5406:	cd bf       	out	0x3d, r28	; 61
    5408:	de bf       	out	0x3e, r29	; 62
    540a:	df 91       	pop	r29
    540c:	cf 91       	pop	r28
    540e:	08 95       	ret

00005410 <udc_start>:
    5410:	cf 93       	push	r28
    5412:	df 93       	push	r29
    5414:	cd b7       	in	r28, 0x3d	; 61
    5416:	de b7       	in	r29, 0x3e	; 62
    5418:	86 d5       	rcall	.+2828   	; 0x5f26 <udd_enable>
    541a:	00 00       	nop
    541c:	df 91       	pop	r29
    541e:	cf 91       	pop	r28
    5420:	08 95       	ret

00005422 <udc_reset>:
    5422:	cf 93       	push	r28
    5424:	df 93       	push	r29
    5426:	1f 92       	push	r1
    5428:	cd b7       	in	r28, 0x3d	; 61
    542a:	de b7       	in	r29, 0x3e	; 62
    542c:	80 91 c6 27 	lds	r24, 0x27C6	; 0x8027c6 <udc_num_configuration>
    5430:	88 23       	and	r24, r24
    5432:	99 f0       	breq	.+38     	; 0x545a <udc_reset+0x38>
    5434:	19 82       	std	Y+1, r1	; 0x01
    5436:	05 c0       	rjmp	.+10     	; 0x5442 <udc_reset+0x20>
    5438:	89 81       	ldd	r24, Y+1	; 0x01
    543a:	3a df       	rcall	.-396    	; 0x52b0 <udc_iface_disable>
    543c:	89 81       	ldd	r24, Y+1	; 0x01
    543e:	8f 5f       	subi	r24, 0xFF	; 255
    5440:	89 83       	std	Y+1, r24	; 0x01
    5442:	80 91 c7 27 	lds	r24, 0x27C7	; 0x8027c7 <udc_ptr_conf>
    5446:	90 91 c8 27 	lds	r25, 0x27C8	; 0x8027c8 <udc_ptr_conf+0x1>
    544a:	fc 01       	movw	r30, r24
    544c:	80 81       	ld	r24, Z
    544e:	91 81       	ldd	r25, Z+1	; 0x01
    5450:	fc 01       	movw	r30, r24
    5452:	94 81       	ldd	r25, Z+4	; 0x04
    5454:	89 81       	ldd	r24, Y+1	; 0x01
    5456:	89 17       	cp	r24, r25
    5458:	78 f3       	brcs	.-34     	; 0x5438 <udc_reset+0x16>
    545a:	10 92 c6 27 	sts	0x27C6, r1	; 0x8027c6 <udc_num_configuration>
    545e:	81 e0       	ldi	r24, 0x01	; 1
    5460:	90 e0       	ldi	r25, 0x00	; 0
    5462:	80 93 c4 27 	sts	0x27C4, r24	; 0x8027c4 <udc_device_status>
    5466:	90 93 c5 27 	sts	0x27C5, r25	; 0x8027c5 <udc_device_status+0x1>
    546a:	00 00       	nop
    546c:	0f 90       	pop	r0
    546e:	df 91       	pop	r29
    5470:	cf 91       	pop	r28
    5472:	08 95       	ret

00005474 <udc_sof_notify>:
    5474:	cf 93       	push	r28
    5476:	df 93       	push	r29
    5478:	1f 92       	push	r1
    547a:	cd b7       	in	r28, 0x3d	; 61
    547c:	de b7       	in	r29, 0x3e	; 62
    547e:	80 91 c6 27 	lds	r24, 0x27C6	; 0x8027c6 <udc_num_configuration>
    5482:	88 23       	and	r24, r24
    5484:	e9 f1       	breq	.+122    	; 0x5500 <udc_sof_notify+0x8c>
    5486:	19 82       	std	Y+1, r1	; 0x01
    5488:	2f c0       	rjmp	.+94     	; 0x54e8 <udc_sof_notify+0x74>
    548a:	80 91 c7 27 	lds	r24, 0x27C7	; 0x8027c7 <udc_ptr_conf>
    548e:	90 91 c8 27 	lds	r25, 0x27C8	; 0x8027c8 <udc_ptr_conf+0x1>
    5492:	fc 01       	movw	r30, r24
    5494:	22 81       	ldd	r18, Z+2	; 0x02
    5496:	33 81       	ldd	r19, Z+3	; 0x03
    5498:	89 81       	ldd	r24, Y+1	; 0x01
    549a:	88 2f       	mov	r24, r24
    549c:	90 e0       	ldi	r25, 0x00	; 0
    549e:	88 0f       	add	r24, r24
    54a0:	99 1f       	adc	r25, r25
    54a2:	82 0f       	add	r24, r18
    54a4:	93 1f       	adc	r25, r19
    54a6:	fc 01       	movw	r30, r24
    54a8:	80 81       	ld	r24, Z
    54aa:	91 81       	ldd	r25, Z+1	; 0x01
    54ac:	fc 01       	movw	r30, r24
    54ae:	80 85       	ldd	r24, Z+8	; 0x08
    54b0:	91 85       	ldd	r25, Z+9	; 0x09
    54b2:	89 2b       	or	r24, r25
    54b4:	b1 f0       	breq	.+44     	; 0x54e2 <udc_sof_notify+0x6e>
    54b6:	80 91 c7 27 	lds	r24, 0x27C7	; 0x8027c7 <udc_ptr_conf>
    54ba:	90 91 c8 27 	lds	r25, 0x27C8	; 0x8027c8 <udc_ptr_conf+0x1>
    54be:	fc 01       	movw	r30, r24
    54c0:	22 81       	ldd	r18, Z+2	; 0x02
    54c2:	33 81       	ldd	r19, Z+3	; 0x03
    54c4:	89 81       	ldd	r24, Y+1	; 0x01
    54c6:	88 2f       	mov	r24, r24
    54c8:	90 e0       	ldi	r25, 0x00	; 0
    54ca:	88 0f       	add	r24, r24
    54cc:	99 1f       	adc	r25, r25
    54ce:	82 0f       	add	r24, r18
    54d0:	93 1f       	adc	r25, r19
    54d2:	fc 01       	movw	r30, r24
    54d4:	80 81       	ld	r24, Z
    54d6:	91 81       	ldd	r25, Z+1	; 0x01
    54d8:	fc 01       	movw	r30, r24
    54da:	80 85       	ldd	r24, Z+8	; 0x08
    54dc:	91 85       	ldd	r25, Z+9	; 0x09
    54de:	fc 01       	movw	r30, r24
    54e0:	19 95       	eicall
    54e2:	89 81       	ldd	r24, Y+1	; 0x01
    54e4:	8f 5f       	subi	r24, 0xFF	; 255
    54e6:	89 83       	std	Y+1, r24	; 0x01
    54e8:	80 91 c7 27 	lds	r24, 0x27C7	; 0x8027c7 <udc_ptr_conf>
    54ec:	90 91 c8 27 	lds	r25, 0x27C8	; 0x8027c8 <udc_ptr_conf+0x1>
    54f0:	fc 01       	movw	r30, r24
    54f2:	80 81       	ld	r24, Z
    54f4:	91 81       	ldd	r25, Z+1	; 0x01
    54f6:	fc 01       	movw	r30, r24
    54f8:	94 81       	ldd	r25, Z+4	; 0x04
    54fa:	89 81       	ldd	r24, Y+1	; 0x01
    54fc:	89 17       	cp	r24, r25
    54fe:	28 f2       	brcs	.-118    	; 0x548a <udc_sof_notify+0x16>
    5500:	00 00       	nop
    5502:	0f 90       	pop	r0
    5504:	df 91       	pop	r29
    5506:	cf 91       	pop	r28
    5508:	08 95       	ret

0000550a <udc_req_std_dev_get_status>:
    550a:	cf 93       	push	r28
    550c:	df 93       	push	r29
    550e:	cd b7       	in	r28, 0x3d	; 61
    5510:	de b7       	in	r29, 0x3e	; 62
    5512:	80 91 58 29 	lds	r24, 0x2958	; 0x802958 <udd_g_ctrlreq+0x6>
    5516:	90 91 59 29 	lds	r25, 0x2959	; 0x802959 <udd_g_ctrlreq+0x7>
    551a:	02 97       	sbiw	r24, 0x02	; 2
    551c:	11 f0       	breq	.+4      	; 0x5522 <udc_req_std_dev_get_status+0x18>
    551e:	80 e0       	ldi	r24, 0x00	; 0
    5520:	06 c0       	rjmp	.+12     	; 0x552e <udc_req_std_dev_get_status+0x24>
    5522:	62 e0       	ldi	r22, 0x02	; 2
    5524:	70 e0       	ldi	r23, 0x00	; 0
    5526:	84 ec       	ldi	r24, 0xC4	; 196
    5528:	97 e2       	ldi	r25, 0x27	; 39
    552a:	0f d6       	rcall	.+3102   	; 0x614a <udd_set_setup_payload>
    552c:	81 e0       	ldi	r24, 0x01	; 1
    552e:	df 91       	pop	r29
    5530:	cf 91       	pop	r28
    5532:	08 95       	ret

00005534 <udc_req_std_ep_get_status>:
    5534:	cf 93       	push	r28
    5536:	df 93       	push	r29
    5538:	cd b7       	in	r28, 0x3d	; 61
    553a:	de b7       	in	r29, 0x3e	; 62
    553c:	80 91 58 29 	lds	r24, 0x2958	; 0x802958 <udd_g_ctrlreq+0x6>
    5540:	90 91 59 29 	lds	r25, 0x2959	; 0x802959 <udd_g_ctrlreq+0x7>
    5544:	02 97       	sbiw	r24, 0x02	; 2
    5546:	11 f0       	breq	.+4      	; 0x554c <udc_req_std_ep_get_status+0x18>
    5548:	80 e0       	ldi	r24, 0x00	; 0
    554a:	11 c0       	rjmp	.+34     	; 0x556e <udc_req_std_ep_get_status+0x3a>
    554c:	80 91 56 29 	lds	r24, 0x2956	; 0x802956 <udd_g_ctrlreq+0x4>
    5550:	90 91 57 29 	lds	r25, 0x2957	; 0x802957 <udd_g_ctrlreq+0x5>
    5554:	76 d6       	rcall	.+3308   	; 0x6242 <udd_ep_is_halted>
    5556:	88 2f       	mov	r24, r24
    5558:	90 e0       	ldi	r25, 0x00	; 0
    555a:	80 93 cb 27 	sts	0x27CB, r24	; 0x8027cb <udc_ep_status.4750>
    555e:	90 93 cc 27 	sts	0x27CC, r25	; 0x8027cc <udc_ep_status.4750+0x1>
    5562:	62 e0       	ldi	r22, 0x02	; 2
    5564:	70 e0       	ldi	r23, 0x00	; 0
    5566:	8b ec       	ldi	r24, 0xCB	; 203
    5568:	97 e2       	ldi	r25, 0x27	; 39
    556a:	ef d5       	rcall	.+3038   	; 0x614a <udd_set_setup_payload>
    556c:	81 e0       	ldi	r24, 0x01	; 1
    556e:	df 91       	pop	r29
    5570:	cf 91       	pop	r28
    5572:	08 95       	ret

00005574 <udc_req_std_dev_clear_feature>:
    5574:	cf 93       	push	r28
    5576:	df 93       	push	r29
    5578:	cd b7       	in	r28, 0x3d	; 61
    557a:	de b7       	in	r29, 0x3e	; 62
    557c:	80 91 58 29 	lds	r24, 0x2958	; 0x802958 <udd_g_ctrlreq+0x6>
    5580:	90 91 59 29 	lds	r25, 0x2959	; 0x802959 <udd_g_ctrlreq+0x7>
    5584:	89 2b       	or	r24, r25
    5586:	11 f0       	breq	.+4      	; 0x558c <udc_req_std_dev_clear_feature+0x18>
    5588:	80 e0       	ldi	r24, 0x00	; 0
    558a:	12 c0       	rjmp	.+36     	; 0x55b0 <udc_req_std_dev_clear_feature+0x3c>
    558c:	80 91 54 29 	lds	r24, 0x2954	; 0x802954 <udd_g_ctrlreq+0x2>
    5590:	90 91 55 29 	lds	r25, 0x2955	; 0x802955 <udd_g_ctrlreq+0x3>
    5594:	01 97       	sbiw	r24, 0x01	; 1
    5596:	59 f4       	brne	.+22     	; 0x55ae <udc_req_std_dev_clear_feature+0x3a>
    5598:	80 91 c4 27 	lds	r24, 0x27C4	; 0x8027c4 <udc_device_status>
    559c:	90 91 c5 27 	lds	r25, 0x27C5	; 0x8027c5 <udc_device_status+0x1>
    55a0:	8d 7f       	andi	r24, 0xFD	; 253
    55a2:	80 93 c4 27 	sts	0x27C4, r24	; 0x8027c4 <udc_device_status>
    55a6:	90 93 c5 27 	sts	0x27C5, r25	; 0x8027c5 <udc_device_status+0x1>
    55aa:	81 e0       	ldi	r24, 0x01	; 1
    55ac:	01 c0       	rjmp	.+2      	; 0x55b0 <udc_req_std_dev_clear_feature+0x3c>
    55ae:	80 e0       	ldi	r24, 0x00	; 0
    55b0:	df 91       	pop	r29
    55b2:	cf 91       	pop	r28
    55b4:	08 95       	ret

000055b6 <udc_req_std_ep_clear_feature>:
    55b6:	cf 93       	push	r28
    55b8:	df 93       	push	r29
    55ba:	cd b7       	in	r28, 0x3d	; 61
    55bc:	de b7       	in	r29, 0x3e	; 62
    55be:	80 91 58 29 	lds	r24, 0x2958	; 0x802958 <udd_g_ctrlreq+0x6>
    55c2:	90 91 59 29 	lds	r25, 0x2959	; 0x802959 <udd_g_ctrlreq+0x7>
    55c6:	89 2b       	or	r24, r25
    55c8:	11 f0       	breq	.+4      	; 0x55ce <udc_req_std_ep_clear_feature+0x18>
    55ca:	80 e0       	ldi	r24, 0x00	; 0
    55cc:	0d c0       	rjmp	.+26     	; 0x55e8 <udc_req_std_ep_clear_feature+0x32>
    55ce:	80 91 54 29 	lds	r24, 0x2954	; 0x802954 <udd_g_ctrlreq+0x2>
    55d2:	90 91 55 29 	lds	r25, 0x2955	; 0x802955 <udd_g_ctrlreq+0x3>
    55d6:	89 2b       	or	r24, r25
    55d8:	31 f4       	brne	.+12     	; 0x55e6 <udc_req_std_ep_clear_feature+0x30>
    55da:	80 91 56 29 	lds	r24, 0x2956	; 0x802956 <udd_g_ctrlreq+0x4>
    55de:	90 91 57 29 	lds	r25, 0x2957	; 0x802957 <udd_g_ctrlreq+0x5>
    55e2:	70 d6       	rcall	.+3296   	; 0x62c4 <udd_ep_clear_halt>
    55e4:	01 c0       	rjmp	.+2      	; 0x55e8 <udc_req_std_ep_clear_feature+0x32>
    55e6:	80 e0       	ldi	r24, 0x00	; 0
    55e8:	df 91       	pop	r29
    55ea:	cf 91       	pop	r28
    55ec:	08 95       	ret

000055ee <udc_req_std_dev_set_feature>:
    55ee:	cf 93       	push	r28
    55f0:	df 93       	push	r29
    55f2:	cd b7       	in	r28, 0x3d	; 61
    55f4:	de b7       	in	r29, 0x3e	; 62
    55f6:	80 91 58 29 	lds	r24, 0x2958	; 0x802958 <udd_g_ctrlreq+0x6>
    55fa:	90 91 59 29 	lds	r25, 0x2959	; 0x802959 <udd_g_ctrlreq+0x7>
    55fe:	89 2b       	or	r24, r25
    5600:	11 f0       	breq	.+4      	; 0x5606 <udc_req_std_dev_set_feature+0x18>
    5602:	80 e0       	ldi	r24, 0x00	; 0
    5604:	0a c0       	rjmp	.+20     	; 0x561a <udc_req_std_dev_set_feature+0x2c>
    5606:	80 91 54 29 	lds	r24, 0x2954	; 0x802954 <udd_g_ctrlreq+0x2>
    560a:	90 91 55 29 	lds	r25, 0x2955	; 0x802955 <udd_g_ctrlreq+0x3>
    560e:	01 97       	sbiw	r24, 0x01	; 1
    5610:	19 f0       	breq	.+6      	; 0x5618 <udc_req_std_dev_set_feature+0x2a>
    5612:	00 00       	nop
    5614:	80 e0       	ldi	r24, 0x00	; 0
    5616:	01 c0       	rjmp	.+2      	; 0x561a <udc_req_std_dev_set_feature+0x2c>
    5618:	80 e0       	ldi	r24, 0x00	; 0
    561a:	df 91       	pop	r29
    561c:	cf 91       	pop	r28
    561e:	08 95       	ret

00005620 <udc_req_std_ep_set_feature>:
    5620:	cf 93       	push	r28
    5622:	df 93       	push	r29
    5624:	cd b7       	in	r28, 0x3d	; 61
    5626:	de b7       	in	r29, 0x3e	; 62
    5628:	80 91 58 29 	lds	r24, 0x2958	; 0x802958 <udd_g_ctrlreq+0x6>
    562c:	90 91 59 29 	lds	r25, 0x2959	; 0x802959 <udd_g_ctrlreq+0x7>
    5630:	89 2b       	or	r24, r25
    5632:	11 f0       	breq	.+4      	; 0x5638 <udc_req_std_ep_set_feature+0x18>
    5634:	80 e0       	ldi	r24, 0x00	; 0
    5636:	12 c0       	rjmp	.+36     	; 0x565c <udc_req_std_ep_set_feature+0x3c>
    5638:	80 91 54 29 	lds	r24, 0x2954	; 0x802954 <udd_g_ctrlreq+0x2>
    563c:	90 91 55 29 	lds	r25, 0x2955	; 0x802955 <udd_g_ctrlreq+0x3>
    5640:	89 2b       	or	r24, r25
    5642:	59 f4       	brne	.+22     	; 0x565a <udc_req_std_ep_set_feature+0x3a>
    5644:	80 91 56 29 	lds	r24, 0x2956	; 0x802956 <udd_g_ctrlreq+0x4>
    5648:	90 91 57 29 	lds	r25, 0x2957	; 0x802957 <udd_g_ctrlreq+0x5>
    564c:	45 d7       	rcall	.+3722   	; 0x64d8 <udd_ep_abort>
    564e:	80 91 56 29 	lds	r24, 0x2956	; 0x802956 <udd_g_ctrlreq+0x4>
    5652:	90 91 57 29 	lds	r25, 0x2957	; 0x802957 <udd_g_ctrlreq+0x5>
    5656:	12 d6       	rcall	.+3108   	; 0x627c <udd_ep_set_halt>
    5658:	01 c0       	rjmp	.+2      	; 0x565c <udc_req_std_ep_set_feature+0x3c>
    565a:	80 e0       	ldi	r24, 0x00	; 0
    565c:	df 91       	pop	r29
    565e:	cf 91       	pop	r28
    5660:	08 95       	ret

00005662 <udc_valid_address>:
    5662:	cf 93       	push	r28
    5664:	df 93       	push	r29
    5666:	cd b7       	in	r28, 0x3d	; 61
    5668:	de b7       	in	r29, 0x3e	; 62
    566a:	80 91 54 29 	lds	r24, 0x2954	; 0x802954 <udd_g_ctrlreq+0x2>
    566e:	90 91 55 29 	lds	r25, 0x2955	; 0x802955 <udd_g_ctrlreq+0x3>
    5672:	8f 77       	andi	r24, 0x7F	; 127
    5674:	3b d5       	rcall	.+2678   	; 0x60ec <udd_set_address>
    5676:	00 00       	nop
    5678:	df 91       	pop	r29
    567a:	cf 91       	pop	r28
    567c:	08 95       	ret

0000567e <udc_req_std_dev_set_address>:
    567e:	cf 93       	push	r28
    5680:	df 93       	push	r29
    5682:	cd b7       	in	r28, 0x3d	; 61
    5684:	de b7       	in	r29, 0x3e	; 62
    5686:	80 91 58 29 	lds	r24, 0x2958	; 0x802958 <udd_g_ctrlreq+0x6>
    568a:	90 91 59 29 	lds	r25, 0x2959	; 0x802959 <udd_g_ctrlreq+0x7>
    568e:	89 2b       	or	r24, r25
    5690:	11 f0       	breq	.+4      	; 0x5696 <udc_req_std_dev_set_address+0x18>
    5692:	80 e0       	ldi	r24, 0x00	; 0
    5694:	07 c0       	rjmp	.+14     	; 0x56a4 <udc_req_std_dev_set_address+0x26>
    5696:	81 e3       	ldi	r24, 0x31	; 49
    5698:	9b e2       	ldi	r25, 0x2B	; 43
    569a:	80 93 5e 29 	sts	0x295E, r24	; 0x80295e <udd_g_ctrlreq+0xc>
    569e:	90 93 5f 29 	sts	0x295F, r25	; 0x80295f <udd_g_ctrlreq+0xd>
    56a2:	81 e0       	ldi	r24, 0x01	; 1
    56a4:	df 91       	pop	r29
    56a6:	cf 91       	pop	r28
    56a8:	08 95       	ret

000056aa <udc_req_std_dev_get_str_desc>:
    56aa:	cf 93       	push	r28
    56ac:	df 93       	push	r29
    56ae:	00 d0       	rcall	.+0      	; 0x56b0 <udc_req_std_dev_get_str_desc+0x6>
    56b0:	1f 92       	push	r1
    56b2:	cd b7       	in	r28, 0x3d	; 61
    56b4:	de b7       	in	r29, 0x3e	; 62
    56b6:	1c 82       	std	Y+4, r1	; 0x04
    56b8:	80 91 54 29 	lds	r24, 0x2954	; 0x802954 <udd_g_ctrlreq+0x2>
    56bc:	90 91 55 29 	lds	r25, 0x2955	; 0x802955 <udd_g_ctrlreq+0x3>
    56c0:	99 27       	eor	r25, r25
    56c2:	81 30       	cpi	r24, 0x01	; 1
    56c4:	91 05       	cpc	r25, r1
    56c6:	61 f0       	breq	.+24     	; 0x56e0 <udc_req_std_dev_get_str_desc+0x36>
    56c8:	81 30       	cpi	r24, 0x01	; 1
    56ca:	91 05       	cpc	r25, r1
    56cc:	18 f0       	brcs	.+6      	; 0x56d4 <udc_req_std_dev_get_str_desc+0x2a>
    56ce:	02 97       	sbiw	r24, 0x02	; 2
    56d0:	71 f0       	breq	.+28     	; 0x56ee <udc_req_std_dev_get_str_desc+0x44>
    56d2:	14 c0       	rjmp	.+40     	; 0x56fc <udc_req_std_dev_get_str_desc+0x52>
    56d4:	64 e0       	ldi	r22, 0x04	; 4
    56d6:	70 e0       	ldi	r23, 0x00	; 0
    56d8:	8a e8       	ldi	r24, 0x8A	; 138
    56da:	90 e2       	ldi	r25, 0x20	; 32
    56dc:	36 d5       	rcall	.+2668   	; 0x614a <udd_set_setup_payload>
    56de:	10 c0       	rjmp	.+32     	; 0x5700 <udc_req_std_dev_get_str_desc+0x56>
    56e0:	87 e0       	ldi	r24, 0x07	; 7
    56e2:	8c 83       	std	Y+4, r24	; 0x04
    56e4:	8e e8       	ldi	r24, 0x8E	; 142
    56e6:	90 e2       	ldi	r25, 0x20	; 32
    56e8:	8a 83       	std	Y+2, r24	; 0x02
    56ea:	9b 83       	std	Y+3, r25	; 0x03
    56ec:	09 c0       	rjmp	.+18     	; 0x5700 <udc_req_std_dev_get_str_desc+0x56>
    56ee:	8d e1       	ldi	r24, 0x1D	; 29
    56f0:	8c 83       	std	Y+4, r24	; 0x04
    56f2:	86 e9       	ldi	r24, 0x96	; 150
    56f4:	90 e2       	ldi	r25, 0x20	; 32
    56f6:	8a 83       	std	Y+2, r24	; 0x02
    56f8:	9b 83       	std	Y+3, r25	; 0x03
    56fa:	02 c0       	rjmp	.+4      	; 0x5700 <udc_req_std_dev_get_str_desc+0x56>
    56fc:	80 e0       	ldi	r24, 0x00	; 0
    56fe:	32 c0       	rjmp	.+100    	; 0x5764 <udc_req_std_dev_get_str_desc+0xba>
    5700:	8c 81       	ldd	r24, Y+4	; 0x04
    5702:	88 23       	and	r24, r24
    5704:	71 f1       	breq	.+92     	; 0x5762 <udc_req_std_dev_get_str_desc+0xb8>
    5706:	19 82       	std	Y+1, r1	; 0x01
    5708:	19 c0       	rjmp	.+50     	; 0x573c <udc_req_std_dev_get_str_desc+0x92>
    570a:	89 81       	ldd	r24, Y+1	; 0x01
    570c:	88 2f       	mov	r24, r24
    570e:	90 e0       	ldi	r25, 0x00	; 0
    5710:	29 81       	ldd	r18, Y+1	; 0x01
    5712:	22 2f       	mov	r18, r18
    5714:	30 e0       	ldi	r19, 0x00	; 0
    5716:	4a 81       	ldd	r20, Y+2	; 0x02
    5718:	5b 81       	ldd	r21, Y+3	; 0x03
    571a:	24 0f       	add	r18, r20
    571c:	35 1f       	adc	r19, r21
    571e:	f9 01       	movw	r30, r18
    5720:	20 81       	ld	r18, Z
    5722:	22 2f       	mov	r18, r18
    5724:	30 e0       	ldi	r19, 0x00	; 0
    5726:	01 96       	adiw	r24, 0x01	; 1
    5728:	88 0f       	add	r24, r24
    572a:	99 1f       	adc	r25, r25
    572c:	8c 54       	subi	r24, 0x4C	; 76
    572e:	9f 4d       	sbci	r25, 0xDF	; 223
    5730:	fc 01       	movw	r30, r24
    5732:	20 83       	st	Z, r18
    5734:	31 83       	std	Z+1, r19	; 0x01
    5736:	89 81       	ldd	r24, Y+1	; 0x01
    5738:	8f 5f       	subi	r24, 0xFF	; 255
    573a:	89 83       	std	Y+1, r24	; 0x01
    573c:	99 81       	ldd	r25, Y+1	; 0x01
    573e:	8c 81       	ldd	r24, Y+4	; 0x04
    5740:	98 17       	cp	r25, r24
    5742:	18 f3       	brcs	.-58     	; 0x570a <udc_req_std_dev_get_str_desc+0x60>
    5744:	8c 81       	ldd	r24, Y+4	; 0x04
    5746:	88 2f       	mov	r24, r24
    5748:	90 e0       	ldi	r25, 0x00	; 0
    574a:	01 96       	adiw	r24, 0x01	; 1
    574c:	88 0f       	add	r24, r24
    574e:	80 93 b4 20 	sts	0x20B4, r24	; 0x8020b4 <udc_string_desc>
    5752:	80 91 b4 20 	lds	r24, 0x20B4	; 0x8020b4 <udc_string_desc>
    5756:	88 2f       	mov	r24, r24
    5758:	90 e0       	ldi	r25, 0x00	; 0
    575a:	bc 01       	movw	r22, r24
    575c:	84 eb       	ldi	r24, 0xB4	; 180
    575e:	90 e2       	ldi	r25, 0x20	; 32
    5760:	f4 d4       	rcall	.+2536   	; 0x614a <udd_set_setup_payload>
    5762:	81 e0       	ldi	r24, 0x01	; 1
    5764:	24 96       	adiw	r28, 0x04	; 4
    5766:	cd bf       	out	0x3d, r28	; 61
    5768:	de bf       	out	0x3e, r29	; 62
    576a:	df 91       	pop	r29
    576c:	cf 91       	pop	r28
    576e:	08 95       	ret

00005770 <udc_req_std_dev_get_descriptor>:
    5770:	cf 93       	push	r28
    5772:	df 93       	push	r29
    5774:	1f 92       	push	r1
    5776:	cd b7       	in	r28, 0x3d	; 61
    5778:	de b7       	in	r29, 0x3e	; 62
    577a:	80 91 54 29 	lds	r24, 0x2954	; 0x802954 <udd_g_ctrlreq+0x2>
    577e:	90 91 55 29 	lds	r25, 0x2955	; 0x802955 <udd_g_ctrlreq+0x3>
    5782:	89 83       	std	Y+1, r24	; 0x01
    5784:	80 91 54 29 	lds	r24, 0x2954	; 0x802954 <udd_g_ctrlreq+0x2>
    5788:	90 91 55 29 	lds	r25, 0x2955	; 0x802955 <udd_g_ctrlreq+0x3>
    578c:	89 2f       	mov	r24, r25
    578e:	99 27       	eor	r25, r25
    5790:	82 30       	cpi	r24, 0x02	; 2
    5792:	91 05       	cpc	r25, r1
    5794:	b1 f0       	breq	.+44     	; 0x57c2 <udc_req_std_dev_get_descriptor+0x52>
    5796:	83 30       	cpi	r24, 0x03	; 3
    5798:	91 05       	cpc	r25, r1
    579a:	09 f4       	brne	.+2      	; 0x579e <udc_req_std_dev_get_descriptor+0x2e>
    579c:	4a c0       	rjmp	.+148    	; 0x5832 <udc_req_std_dev_get_descriptor+0xc2>
    579e:	01 97       	sbiw	r24, 0x01	; 1
    57a0:	09 f0       	breq	.+2      	; 0x57a4 <udc_req_std_dev_get_descriptor+0x34>
    57a2:	4f c0       	rjmp	.+158    	; 0x5842 <udc_req_std_dev_get_descriptor+0xd2>
    57a4:	80 91 86 20 	lds	r24, 0x2086	; 0x802086 <udc_config>
    57a8:	90 91 87 20 	lds	r25, 0x2087	; 0x802087 <udc_config+0x1>
    57ac:	fc 01       	movw	r30, r24
    57ae:	80 81       	ld	r24, Z
    57b0:	28 2f       	mov	r18, r24
    57b2:	30 e0       	ldi	r19, 0x00	; 0
    57b4:	80 91 86 20 	lds	r24, 0x2086	; 0x802086 <udc_config>
    57b8:	90 91 87 20 	lds	r25, 0x2087	; 0x802087 <udc_config+0x1>
    57bc:	b9 01       	movw	r22, r18
    57be:	c5 d4       	rcall	.+2442   	; 0x614a <udd_set_setup_payload>
    57c0:	43 c0       	rjmp	.+134    	; 0x5848 <udc_req_std_dev_get_descriptor+0xd8>
    57c2:	80 91 86 20 	lds	r24, 0x2086	; 0x802086 <udc_config>
    57c6:	90 91 87 20 	lds	r25, 0x2087	; 0x802087 <udc_config+0x1>
    57ca:	fc 01       	movw	r30, r24
    57cc:	91 89       	ldd	r25, Z+17	; 0x11
    57ce:	89 81       	ldd	r24, Y+1	; 0x01
    57d0:	89 17       	cp	r24, r25
    57d2:	10 f0       	brcs	.+4      	; 0x57d8 <udc_req_std_dev_get_descriptor+0x68>
    57d4:	80 e0       	ldi	r24, 0x00	; 0
    57d6:	4c c0       	rjmp	.+152    	; 0x5870 <udc_req_std_dev_get_descriptor+0x100>
    57d8:	20 91 88 20 	lds	r18, 0x2088	; 0x802088 <udc_config+0x2>
    57dc:	30 91 89 20 	lds	r19, 0x2089	; 0x802089 <udc_config+0x3>
    57e0:	89 81       	ldd	r24, Y+1	; 0x01
    57e2:	88 2f       	mov	r24, r24
    57e4:	90 e0       	ldi	r25, 0x00	; 0
    57e6:	88 0f       	add	r24, r24
    57e8:	99 1f       	adc	r25, r25
    57ea:	88 0f       	add	r24, r24
    57ec:	99 1f       	adc	r25, r25
    57ee:	82 0f       	add	r24, r18
    57f0:	93 1f       	adc	r25, r19
    57f2:	fc 01       	movw	r30, r24
    57f4:	80 81       	ld	r24, Z
    57f6:	91 81       	ldd	r25, Z+1	; 0x01
    57f8:	fc 01       	movw	r30, r24
    57fa:	42 81       	ldd	r20, Z+2	; 0x02
    57fc:	53 81       	ldd	r21, Z+3	; 0x03
    57fe:	20 91 88 20 	lds	r18, 0x2088	; 0x802088 <udc_config+0x2>
    5802:	30 91 89 20 	lds	r19, 0x2089	; 0x802089 <udc_config+0x3>
    5806:	89 81       	ldd	r24, Y+1	; 0x01
    5808:	88 2f       	mov	r24, r24
    580a:	90 e0       	ldi	r25, 0x00	; 0
    580c:	88 0f       	add	r24, r24
    580e:	99 1f       	adc	r25, r25
    5810:	88 0f       	add	r24, r24
    5812:	99 1f       	adc	r25, r25
    5814:	82 0f       	add	r24, r18
    5816:	93 1f       	adc	r25, r19
    5818:	fc 01       	movw	r30, r24
    581a:	80 81       	ld	r24, Z
    581c:	91 81       	ldd	r25, Z+1	; 0x01
    581e:	ba 01       	movw	r22, r20
    5820:	94 d4       	rcall	.+2344   	; 0x614a <udd_set_setup_payload>
    5822:	80 91 5a 29 	lds	r24, 0x295A	; 0x80295a <udd_g_ctrlreq+0x8>
    5826:	90 91 5b 29 	lds	r25, 0x295B	; 0x80295b <udd_g_ctrlreq+0x9>
    582a:	22 e0       	ldi	r18, 0x02	; 2
    582c:	fc 01       	movw	r30, r24
    582e:	21 83       	std	Z+1, r18	; 0x01
    5830:	0b c0       	rjmp	.+22     	; 0x5848 <udc_req_std_dev_get_descriptor+0xd8>
    5832:	3b df       	rcall	.-394    	; 0x56aa <udc_req_std_dev_get_str_desc>
    5834:	98 2f       	mov	r25, r24
    5836:	81 e0       	ldi	r24, 0x01	; 1
    5838:	89 27       	eor	r24, r25
    583a:	88 23       	and	r24, r24
    583c:	21 f0       	breq	.+8      	; 0x5846 <udc_req_std_dev_get_descriptor+0xd6>
    583e:	80 e0       	ldi	r24, 0x00	; 0
    5840:	17 c0       	rjmp	.+46     	; 0x5870 <udc_req_std_dev_get_descriptor+0x100>
    5842:	80 e0       	ldi	r24, 0x00	; 0
    5844:	15 c0       	rjmp	.+42     	; 0x5870 <udc_req_std_dev_get_descriptor+0x100>
    5846:	00 00       	nop
    5848:	20 91 58 29 	lds	r18, 0x2958	; 0x802958 <udd_g_ctrlreq+0x6>
    584c:	30 91 59 29 	lds	r19, 0x2959	; 0x802959 <udd_g_ctrlreq+0x7>
    5850:	80 91 5c 29 	lds	r24, 0x295C	; 0x80295c <udd_g_ctrlreq+0xa>
    5854:	90 91 5d 29 	lds	r25, 0x295D	; 0x80295d <udd_g_ctrlreq+0xb>
    5858:	28 17       	cp	r18, r24
    585a:	39 07       	cpc	r19, r25
    585c:	40 f4       	brcc	.+16     	; 0x586e <udc_req_std_dev_get_descriptor+0xfe>
    585e:	80 91 58 29 	lds	r24, 0x2958	; 0x802958 <udd_g_ctrlreq+0x6>
    5862:	90 91 59 29 	lds	r25, 0x2959	; 0x802959 <udd_g_ctrlreq+0x7>
    5866:	80 93 5c 29 	sts	0x295C, r24	; 0x80295c <udd_g_ctrlreq+0xa>
    586a:	90 93 5d 29 	sts	0x295D, r25	; 0x80295d <udd_g_ctrlreq+0xb>
    586e:	81 e0       	ldi	r24, 0x01	; 1
    5870:	0f 90       	pop	r0
    5872:	df 91       	pop	r29
    5874:	cf 91       	pop	r28
    5876:	08 95       	ret

00005878 <udc_req_std_dev_get_configuration>:
    5878:	cf 93       	push	r28
    587a:	df 93       	push	r29
    587c:	cd b7       	in	r28, 0x3d	; 61
    587e:	de b7       	in	r29, 0x3e	; 62
    5880:	80 91 58 29 	lds	r24, 0x2958	; 0x802958 <udd_g_ctrlreq+0x6>
    5884:	90 91 59 29 	lds	r25, 0x2959	; 0x802959 <udd_g_ctrlreq+0x7>
    5888:	01 97       	sbiw	r24, 0x01	; 1
    588a:	11 f0       	breq	.+4      	; 0x5890 <udc_req_std_dev_get_configuration+0x18>
    588c:	80 e0       	ldi	r24, 0x00	; 0
    588e:	06 c0       	rjmp	.+12     	; 0x589c <udc_req_std_dev_get_configuration+0x24>
    5890:	61 e0       	ldi	r22, 0x01	; 1
    5892:	70 e0       	ldi	r23, 0x00	; 0
    5894:	86 ec       	ldi	r24, 0xC6	; 198
    5896:	97 e2       	ldi	r25, 0x27	; 39
    5898:	58 d4       	rcall	.+2224   	; 0x614a <udd_set_setup_payload>
    589a:	81 e0       	ldi	r24, 0x01	; 1
    589c:	df 91       	pop	r29
    589e:	cf 91       	pop	r28
    58a0:	08 95       	ret

000058a2 <udc_req_std_dev_set_configuration>:
    58a2:	cf 93       	push	r28
    58a4:	df 93       	push	r29
    58a6:	1f 92       	push	r1
    58a8:	cd b7       	in	r28, 0x3d	; 61
    58aa:	de b7       	in	r29, 0x3e	; 62
    58ac:	80 91 58 29 	lds	r24, 0x2958	; 0x802958 <udd_g_ctrlreq+0x6>
    58b0:	90 91 59 29 	lds	r25, 0x2959	; 0x802959 <udd_g_ctrlreq+0x7>
    58b4:	89 2b       	or	r24, r25
    58b6:	11 f0       	breq	.+4      	; 0x58bc <udc_req_std_dev_set_configuration+0x1a>
    58b8:	80 e0       	ldi	r24, 0x00	; 0
    58ba:	55 c0       	rjmp	.+170    	; 0x5966 <udc_req_std_dev_set_configuration+0xc4>
    58bc:	27 d4       	rcall	.+2126   	; 0x610c <udd_getaddress>
    58be:	88 23       	and	r24, r24
    58c0:	11 f4       	brne	.+4      	; 0x58c6 <udc_req_std_dev_set_configuration+0x24>
    58c2:	80 e0       	ldi	r24, 0x00	; 0
    58c4:	50 c0       	rjmp	.+160    	; 0x5966 <udc_req_std_dev_set_configuration+0xc4>
    58c6:	80 91 54 29 	lds	r24, 0x2954	; 0x802954 <udd_g_ctrlreq+0x2>
    58ca:	90 91 55 29 	lds	r25, 0x2955	; 0x802955 <udd_g_ctrlreq+0x3>
    58ce:	9c 01       	movw	r18, r24
    58d0:	33 27       	eor	r19, r19
    58d2:	80 91 86 20 	lds	r24, 0x2086	; 0x802086 <udc_config>
    58d6:	90 91 87 20 	lds	r25, 0x2087	; 0x802087 <udc_config+0x1>
    58da:	fc 01       	movw	r30, r24
    58dc:	81 89       	ldd	r24, Z+17	; 0x11
    58de:	88 2f       	mov	r24, r24
    58e0:	90 e0       	ldi	r25, 0x00	; 0
    58e2:	82 17       	cp	r24, r18
    58e4:	93 07       	cpc	r25, r19
    58e6:	10 f4       	brcc	.+4      	; 0x58ec <udc_req_std_dev_set_configuration+0x4a>
    58e8:	80 e0       	ldi	r24, 0x00	; 0
    58ea:	3d c0       	rjmp	.+122    	; 0x5966 <udc_req_std_dev_set_configuration+0xc4>
    58ec:	9a dd       	rcall	.-1228   	; 0x5422 <udc_reset>
    58ee:	80 91 54 29 	lds	r24, 0x2954	; 0x802954 <udd_g_ctrlreq+0x2>
    58f2:	90 91 55 29 	lds	r25, 0x2955	; 0x802955 <udd_g_ctrlreq+0x3>
    58f6:	80 93 c6 27 	sts	0x27C6, r24	; 0x8027c6 <udc_num_configuration>
    58fa:	80 91 c6 27 	lds	r24, 0x27C6	; 0x8027c6 <udc_num_configuration>
    58fe:	88 23       	and	r24, r24
    5900:	11 f4       	brne	.+4      	; 0x5906 <udc_req_std_dev_set_configuration+0x64>
    5902:	81 e0       	ldi	r24, 0x01	; 1
    5904:	30 c0       	rjmp	.+96     	; 0x5966 <udc_req_std_dev_set_configuration+0xc4>
    5906:	20 91 88 20 	lds	r18, 0x2088	; 0x802088 <udc_config+0x2>
    590a:	30 91 89 20 	lds	r19, 0x2089	; 0x802089 <udc_config+0x3>
    590e:	80 91 c6 27 	lds	r24, 0x27C6	; 0x8027c6 <udc_num_configuration>
    5912:	88 2f       	mov	r24, r24
    5914:	90 e0       	ldi	r25, 0x00	; 0
    5916:	81 50       	subi	r24, 0x01	; 1
    5918:	90 4c       	sbci	r25, 0xC0	; 192
    591a:	88 0f       	add	r24, r24
    591c:	99 1f       	adc	r25, r25
    591e:	88 0f       	add	r24, r24
    5920:	99 1f       	adc	r25, r25
    5922:	82 0f       	add	r24, r18
    5924:	93 1f       	adc	r25, r19
    5926:	80 93 c7 27 	sts	0x27C7, r24	; 0x8027c7 <udc_ptr_conf>
    592a:	90 93 c8 27 	sts	0x27C8, r25	; 0x8027c8 <udc_ptr_conf+0x1>
    592e:	19 82       	std	Y+1, r1	; 0x01
    5930:	0d c0       	rjmp	.+26     	; 0x594c <udc_req_std_dev_set_configuration+0xaa>
    5932:	60 e0       	ldi	r22, 0x00	; 0
    5934:	89 81       	ldd	r24, Y+1	; 0x01
    5936:	17 dd       	rcall	.-1490   	; 0x5366 <udc_iface_enable>
    5938:	98 2f       	mov	r25, r24
    593a:	81 e0       	ldi	r24, 0x01	; 1
    593c:	89 27       	eor	r24, r25
    593e:	88 23       	and	r24, r24
    5940:	11 f0       	breq	.+4      	; 0x5946 <udc_req_std_dev_set_configuration+0xa4>
    5942:	80 e0       	ldi	r24, 0x00	; 0
    5944:	10 c0       	rjmp	.+32     	; 0x5966 <udc_req_std_dev_set_configuration+0xc4>
    5946:	89 81       	ldd	r24, Y+1	; 0x01
    5948:	8f 5f       	subi	r24, 0xFF	; 255
    594a:	89 83       	std	Y+1, r24	; 0x01
    594c:	80 91 c7 27 	lds	r24, 0x27C7	; 0x8027c7 <udc_ptr_conf>
    5950:	90 91 c8 27 	lds	r25, 0x27C8	; 0x8027c8 <udc_ptr_conf+0x1>
    5954:	fc 01       	movw	r30, r24
    5956:	80 81       	ld	r24, Z
    5958:	91 81       	ldd	r25, Z+1	; 0x01
    595a:	fc 01       	movw	r30, r24
    595c:	94 81       	ldd	r25, Z+4	; 0x04
    595e:	89 81       	ldd	r24, Y+1	; 0x01
    5960:	89 17       	cp	r24, r25
    5962:	38 f3       	brcs	.-50     	; 0x5932 <udc_req_std_dev_set_configuration+0x90>
    5964:	81 e0       	ldi	r24, 0x01	; 1
    5966:	0f 90       	pop	r0
    5968:	df 91       	pop	r29
    596a:	cf 91       	pop	r28
    596c:	08 95       	ret

0000596e <udc_req_std_iface_get_setting>:
    596e:	cf 93       	push	r28
    5970:	df 93       	push	r29
    5972:	00 d0       	rcall	.+0      	; 0x5974 <udc_req_std_iface_get_setting+0x6>
    5974:	cd b7       	in	r28, 0x3d	; 61
    5976:	de b7       	in	r29, 0x3e	; 62
    5978:	80 91 58 29 	lds	r24, 0x2958	; 0x802958 <udd_g_ctrlreq+0x6>
    597c:	90 91 59 29 	lds	r25, 0x2959	; 0x802959 <udd_g_ctrlreq+0x7>
    5980:	01 97       	sbiw	r24, 0x01	; 1
    5982:	11 f0       	breq	.+4      	; 0x5988 <udc_req_std_iface_get_setting+0x1a>
    5984:	80 e0       	ldi	r24, 0x00	; 0
    5986:	45 c0       	rjmp	.+138    	; 0x5a12 <udc_req_std_iface_get_setting+0xa4>
    5988:	80 91 c6 27 	lds	r24, 0x27C6	; 0x8027c6 <udc_num_configuration>
    598c:	88 23       	and	r24, r24
    598e:	11 f4       	brne	.+4      	; 0x5994 <udc_req_std_iface_get_setting+0x26>
    5990:	80 e0       	ldi	r24, 0x00	; 0
    5992:	3f c0       	rjmp	.+126    	; 0x5a12 <udc_req_std_iface_get_setting+0xa4>
    5994:	80 91 56 29 	lds	r24, 0x2956	; 0x802956 <udd_g_ctrlreq+0x4>
    5998:	90 91 57 29 	lds	r25, 0x2957	; 0x802957 <udd_g_ctrlreq+0x5>
    599c:	89 83       	std	Y+1, r24	; 0x01
    599e:	80 91 c7 27 	lds	r24, 0x27C7	; 0x8027c7 <udc_ptr_conf>
    59a2:	90 91 c8 27 	lds	r25, 0x27C8	; 0x8027c8 <udc_ptr_conf+0x1>
    59a6:	fc 01       	movw	r30, r24
    59a8:	80 81       	ld	r24, Z
    59aa:	91 81       	ldd	r25, Z+1	; 0x01
    59ac:	fc 01       	movw	r30, r24
    59ae:	94 81       	ldd	r25, Z+4	; 0x04
    59b0:	89 81       	ldd	r24, Y+1	; 0x01
    59b2:	89 17       	cp	r24, r25
    59b4:	10 f0       	brcs	.+4      	; 0x59ba <udc_req_std_iface_get_setting+0x4c>
    59b6:	80 e0       	ldi	r24, 0x00	; 0
    59b8:	2c c0       	rjmp	.+88     	; 0x5a12 <udc_req_std_iface_get_setting+0xa4>
    59ba:	60 e0       	ldi	r22, 0x00	; 0
    59bc:	89 81       	ldd	r24, Y+1	; 0x01
    59be:	0f dc       	rcall	.-2018   	; 0x51de <udc_update_iface_desc>
    59c0:	98 2f       	mov	r25, r24
    59c2:	81 e0       	ldi	r24, 0x01	; 1
    59c4:	89 27       	eor	r24, r25
    59c6:	88 23       	and	r24, r24
    59c8:	11 f0       	breq	.+4      	; 0x59ce <udc_req_std_iface_get_setting+0x60>
    59ca:	80 e0       	ldi	r24, 0x00	; 0
    59cc:	22 c0       	rjmp	.+68     	; 0x5a12 <udc_req_std_iface_get_setting+0xa4>
    59ce:	80 91 c7 27 	lds	r24, 0x27C7	; 0x8027c7 <udc_ptr_conf>
    59d2:	90 91 c8 27 	lds	r25, 0x27C8	; 0x8027c8 <udc_ptr_conf+0x1>
    59d6:	fc 01       	movw	r30, r24
    59d8:	22 81       	ldd	r18, Z+2	; 0x02
    59da:	33 81       	ldd	r19, Z+3	; 0x03
    59dc:	89 81       	ldd	r24, Y+1	; 0x01
    59de:	88 2f       	mov	r24, r24
    59e0:	90 e0       	ldi	r25, 0x00	; 0
    59e2:	88 0f       	add	r24, r24
    59e4:	99 1f       	adc	r25, r25
    59e6:	82 0f       	add	r24, r18
    59e8:	93 1f       	adc	r25, r19
    59ea:	fc 01       	movw	r30, r24
    59ec:	80 81       	ld	r24, Z
    59ee:	91 81       	ldd	r25, Z+1	; 0x01
    59f0:	8a 83       	std	Y+2, r24	; 0x02
    59f2:	9b 83       	std	Y+3, r25	; 0x03
    59f4:	8a 81       	ldd	r24, Y+2	; 0x02
    59f6:	9b 81       	ldd	r25, Y+3	; 0x03
    59f8:	fc 01       	movw	r30, r24
    59fa:	86 81       	ldd	r24, Z+6	; 0x06
    59fc:	97 81       	ldd	r25, Z+7	; 0x07
    59fe:	fc 01       	movw	r30, r24
    5a00:	19 95       	eicall
    5a02:	80 93 cd 27 	sts	0x27CD, r24	; 0x8027cd <udc_iface_setting.4808>
    5a06:	61 e0       	ldi	r22, 0x01	; 1
    5a08:	70 e0       	ldi	r23, 0x00	; 0
    5a0a:	8d ec       	ldi	r24, 0xCD	; 205
    5a0c:	97 e2       	ldi	r25, 0x27	; 39
    5a0e:	9d d3       	rcall	.+1850   	; 0x614a <udd_set_setup_payload>
    5a10:	81 e0       	ldi	r24, 0x01	; 1
    5a12:	23 96       	adiw	r28, 0x03	; 3
    5a14:	cd bf       	out	0x3d, r28	; 61
    5a16:	de bf       	out	0x3e, r29	; 62
    5a18:	df 91       	pop	r29
    5a1a:	cf 91       	pop	r28
    5a1c:	08 95       	ret

00005a1e <udc_req_std_iface_set_setting>:
    5a1e:	cf 93       	push	r28
    5a20:	df 93       	push	r29
    5a22:	1f 92       	push	r1
    5a24:	1f 92       	push	r1
    5a26:	cd b7       	in	r28, 0x3d	; 61
    5a28:	de b7       	in	r29, 0x3e	; 62
    5a2a:	80 91 58 29 	lds	r24, 0x2958	; 0x802958 <udd_g_ctrlreq+0x6>
    5a2e:	90 91 59 29 	lds	r25, 0x2959	; 0x802959 <udd_g_ctrlreq+0x7>
    5a32:	89 2b       	or	r24, r25
    5a34:	11 f0       	breq	.+4      	; 0x5a3a <udc_req_std_iface_set_setting+0x1c>
    5a36:	80 e0       	ldi	r24, 0x00	; 0
    5a38:	1c c0       	rjmp	.+56     	; 0x5a72 <udc_req_std_iface_set_setting+0x54>
    5a3a:	80 91 c6 27 	lds	r24, 0x27C6	; 0x8027c6 <udc_num_configuration>
    5a3e:	88 23       	and	r24, r24
    5a40:	11 f4       	brne	.+4      	; 0x5a46 <udc_req_std_iface_set_setting+0x28>
    5a42:	80 e0       	ldi	r24, 0x00	; 0
    5a44:	16 c0       	rjmp	.+44     	; 0x5a72 <udc_req_std_iface_set_setting+0x54>
    5a46:	80 91 56 29 	lds	r24, 0x2956	; 0x802956 <udd_g_ctrlreq+0x4>
    5a4a:	90 91 57 29 	lds	r25, 0x2957	; 0x802957 <udd_g_ctrlreq+0x5>
    5a4e:	89 83       	std	Y+1, r24	; 0x01
    5a50:	80 91 54 29 	lds	r24, 0x2954	; 0x802954 <udd_g_ctrlreq+0x2>
    5a54:	90 91 55 29 	lds	r25, 0x2955	; 0x802955 <udd_g_ctrlreq+0x3>
    5a58:	8a 83       	std	Y+2, r24	; 0x02
    5a5a:	89 81       	ldd	r24, Y+1	; 0x01
    5a5c:	29 dc       	rcall	.-1966   	; 0x52b0 <udc_iface_disable>
    5a5e:	98 2f       	mov	r25, r24
    5a60:	81 e0       	ldi	r24, 0x01	; 1
    5a62:	89 27       	eor	r24, r25
    5a64:	88 23       	and	r24, r24
    5a66:	11 f0       	breq	.+4      	; 0x5a6c <udc_req_std_iface_set_setting+0x4e>
    5a68:	80 e0       	ldi	r24, 0x00	; 0
    5a6a:	03 c0       	rjmp	.+6      	; 0x5a72 <udc_req_std_iface_set_setting+0x54>
    5a6c:	6a 81       	ldd	r22, Y+2	; 0x02
    5a6e:	89 81       	ldd	r24, Y+1	; 0x01
    5a70:	7a dc       	rcall	.-1804   	; 0x5366 <udc_iface_enable>
    5a72:	0f 90       	pop	r0
    5a74:	0f 90       	pop	r0
    5a76:	df 91       	pop	r29
    5a78:	cf 91       	pop	r28
    5a7a:	08 95       	ret

00005a7c <udc_reqstd>:
    5a7c:	cf 93       	push	r28
    5a7e:	df 93       	push	r29
    5a80:	cd b7       	in	r28, 0x3d	; 61
    5a82:	de b7       	in	r29, 0x3e	; 62
    5a84:	80 91 52 29 	lds	r24, 0x2952	; 0x802952 <udd_g_ctrlreq>
    5a88:	88 23       	and	r24, r24
    5a8a:	0c f0       	brlt	.+2      	; 0x5a8e <udc_reqstd+0x12>
    5a8c:	46 c0       	rjmp	.+140    	; 0x5b1a <udc_reqstd+0x9e>
    5a8e:	80 91 58 29 	lds	r24, 0x2958	; 0x802958 <udd_g_ctrlreq+0x6>
    5a92:	90 91 59 29 	lds	r25, 0x2959	; 0x802959 <udd_g_ctrlreq+0x7>
    5a96:	89 2b       	or	r24, r25
    5a98:	11 f4       	brne	.+4      	; 0x5a9e <udc_reqstd+0x22>
    5a9a:	80 e0       	ldi	r24, 0x00	; 0
    5a9c:	8d c0       	rjmp	.+282    	; 0x5bb8 <udc_reqstd+0x13c>
    5a9e:	80 91 52 29 	lds	r24, 0x2952	; 0x802952 <udd_g_ctrlreq>
    5aa2:	88 2f       	mov	r24, r24
    5aa4:	90 e0       	ldi	r25, 0x00	; 0
    5aa6:	8f 71       	andi	r24, 0x1F	; 31
    5aa8:	99 27       	eor	r25, r25
    5aaa:	89 2b       	or	r24, r25
    5aac:	99 f4       	brne	.+38     	; 0x5ad4 <udc_reqstd+0x58>
    5aae:	80 91 53 29 	lds	r24, 0x2953	; 0x802953 <udd_g_ctrlreq+0x1>
    5ab2:	88 2f       	mov	r24, r24
    5ab4:	90 e0       	ldi	r25, 0x00	; 0
    5ab6:	86 30       	cpi	r24, 0x06	; 6
    5ab8:	91 05       	cpc	r25, r1
    5aba:	41 f0       	breq	.+16     	; 0x5acc <udc_reqstd+0x50>
    5abc:	88 30       	cpi	r24, 0x08	; 8
    5abe:	91 05       	cpc	r25, r1
    5ac0:	39 f0       	breq	.+14     	; 0x5ad0 <udc_reqstd+0x54>
    5ac2:	89 2b       	or	r24, r25
    5ac4:	09 f0       	breq	.+2      	; 0x5ac8 <udc_reqstd+0x4c>
    5ac6:	06 c0       	rjmp	.+12     	; 0x5ad4 <udc_reqstd+0x58>
    5ac8:	20 dd       	rcall	.-1472   	; 0x550a <udc_req_std_dev_get_status>
    5aca:	76 c0       	rjmp	.+236    	; 0x5bb8 <udc_reqstd+0x13c>
    5acc:	51 de       	rcall	.-862    	; 0x5770 <udc_req_std_dev_get_descriptor>
    5ace:	74 c0       	rjmp	.+232    	; 0x5bb8 <udc_reqstd+0x13c>
    5ad0:	d3 de       	rcall	.-602    	; 0x5878 <udc_req_std_dev_get_configuration>
    5ad2:	72 c0       	rjmp	.+228    	; 0x5bb8 <udc_reqstd+0x13c>
    5ad4:	80 91 52 29 	lds	r24, 0x2952	; 0x802952 <udd_g_ctrlreq>
    5ad8:	88 2f       	mov	r24, r24
    5ada:	90 e0       	ldi	r25, 0x00	; 0
    5adc:	8f 71       	andi	r24, 0x1F	; 31
    5ade:	99 27       	eor	r25, r25
    5ae0:	01 97       	sbiw	r24, 0x01	; 1
    5ae2:	49 f4       	brne	.+18     	; 0x5af6 <udc_reqstd+0x7a>
    5ae4:	80 91 53 29 	lds	r24, 0x2953	; 0x802953 <udd_g_ctrlreq+0x1>
    5ae8:	88 2f       	mov	r24, r24
    5aea:	90 e0       	ldi	r25, 0x00	; 0
    5aec:	0a 97       	sbiw	r24, 0x0a	; 10
    5aee:	09 f0       	breq	.+2      	; 0x5af2 <udc_reqstd+0x76>
    5af0:	02 c0       	rjmp	.+4      	; 0x5af6 <udc_reqstd+0x7a>
    5af2:	3d df       	rcall	.-390    	; 0x596e <udc_req_std_iface_get_setting>
    5af4:	61 c0       	rjmp	.+194    	; 0x5bb8 <udc_reqstd+0x13c>
    5af6:	80 91 52 29 	lds	r24, 0x2952	; 0x802952 <udd_g_ctrlreq>
    5afa:	88 2f       	mov	r24, r24
    5afc:	90 e0       	ldi	r25, 0x00	; 0
    5afe:	8f 71       	andi	r24, 0x1F	; 31
    5b00:	99 27       	eor	r25, r25
    5b02:	02 97       	sbiw	r24, 0x02	; 2
    5b04:	09 f0       	breq	.+2      	; 0x5b08 <udc_reqstd+0x8c>
    5b06:	57 c0       	rjmp	.+174    	; 0x5bb6 <udc_reqstd+0x13a>
    5b08:	80 91 53 29 	lds	r24, 0x2953	; 0x802953 <udd_g_ctrlreq+0x1>
    5b0c:	88 2f       	mov	r24, r24
    5b0e:	90 e0       	ldi	r25, 0x00	; 0
    5b10:	89 2b       	or	r24, r25
    5b12:	09 f0       	breq	.+2      	; 0x5b16 <udc_reqstd+0x9a>
    5b14:	50 c0       	rjmp	.+160    	; 0x5bb6 <udc_reqstd+0x13a>
    5b16:	0e dd       	rcall	.-1508   	; 0x5534 <udc_req_std_ep_get_status>
    5b18:	4f c0       	rjmp	.+158    	; 0x5bb8 <udc_reqstd+0x13c>
    5b1a:	80 91 52 29 	lds	r24, 0x2952	; 0x802952 <udd_g_ctrlreq>
    5b1e:	88 2f       	mov	r24, r24
    5b20:	90 e0       	ldi	r25, 0x00	; 0
    5b22:	8f 71       	andi	r24, 0x1F	; 31
    5b24:	99 27       	eor	r25, r25
    5b26:	89 2b       	or	r24, r25
    5b28:	f9 f4       	brne	.+62     	; 0x5b68 <udc_reqstd+0xec>
    5b2a:	80 91 53 29 	lds	r24, 0x2953	; 0x802953 <udd_g_ctrlreq+0x1>
    5b2e:	88 2f       	mov	r24, r24
    5b30:	90 e0       	ldi	r25, 0x00	; 0
    5b32:	85 30       	cpi	r24, 0x05	; 5
    5b34:	91 05       	cpc	r25, r1
    5b36:	79 f0       	breq	.+30     	; 0x5b56 <udc_reqstd+0xda>
    5b38:	86 30       	cpi	r24, 0x06	; 6
    5b3a:	91 05       	cpc	r25, r1
    5b3c:	34 f4       	brge	.+12     	; 0x5b4a <udc_reqstd+0xce>
    5b3e:	81 30       	cpi	r24, 0x01	; 1
    5b40:	91 05       	cpc	r25, r1
    5b42:	59 f0       	breq	.+22     	; 0x5b5a <udc_reqstd+0xde>
    5b44:	03 97       	sbiw	r24, 0x03	; 3
    5b46:	59 f0       	breq	.+22     	; 0x5b5e <udc_reqstd+0xe2>
    5b48:	0f c0       	rjmp	.+30     	; 0x5b68 <udc_reqstd+0xec>
    5b4a:	87 30       	cpi	r24, 0x07	; 7
    5b4c:	91 05       	cpc	r25, r1
    5b4e:	59 f0       	breq	.+22     	; 0x5b66 <udc_reqstd+0xea>
    5b50:	09 97       	sbiw	r24, 0x09	; 9
    5b52:	39 f0       	breq	.+14     	; 0x5b62 <udc_reqstd+0xe6>
    5b54:	09 c0       	rjmp	.+18     	; 0x5b68 <udc_reqstd+0xec>
    5b56:	93 dd       	rcall	.-1242   	; 0x567e <udc_req_std_dev_set_address>
    5b58:	2f c0       	rjmp	.+94     	; 0x5bb8 <udc_reqstd+0x13c>
    5b5a:	0c dd       	rcall	.-1512   	; 0x5574 <udc_req_std_dev_clear_feature>
    5b5c:	2d c0       	rjmp	.+90     	; 0x5bb8 <udc_reqstd+0x13c>
    5b5e:	47 dd       	rcall	.-1394   	; 0x55ee <udc_req_std_dev_set_feature>
    5b60:	2b c0       	rjmp	.+86     	; 0x5bb8 <udc_reqstd+0x13c>
    5b62:	9f de       	rcall	.-706    	; 0x58a2 <udc_req_std_dev_set_configuration>
    5b64:	29 c0       	rjmp	.+82     	; 0x5bb8 <udc_reqstd+0x13c>
    5b66:	00 00       	nop
    5b68:	80 91 52 29 	lds	r24, 0x2952	; 0x802952 <udd_g_ctrlreq>
    5b6c:	88 2f       	mov	r24, r24
    5b6e:	90 e0       	ldi	r25, 0x00	; 0
    5b70:	8f 71       	andi	r24, 0x1F	; 31
    5b72:	99 27       	eor	r25, r25
    5b74:	01 97       	sbiw	r24, 0x01	; 1
    5b76:	49 f4       	brne	.+18     	; 0x5b8a <udc_reqstd+0x10e>
    5b78:	80 91 53 29 	lds	r24, 0x2953	; 0x802953 <udd_g_ctrlreq+0x1>
    5b7c:	88 2f       	mov	r24, r24
    5b7e:	90 e0       	ldi	r25, 0x00	; 0
    5b80:	0b 97       	sbiw	r24, 0x0b	; 11
    5b82:	09 f0       	breq	.+2      	; 0x5b86 <udc_reqstd+0x10a>
    5b84:	02 c0       	rjmp	.+4      	; 0x5b8a <udc_reqstd+0x10e>
    5b86:	4b df       	rcall	.-362    	; 0x5a1e <udc_req_std_iface_set_setting>
    5b88:	17 c0       	rjmp	.+46     	; 0x5bb8 <udc_reqstd+0x13c>
    5b8a:	80 91 52 29 	lds	r24, 0x2952	; 0x802952 <udd_g_ctrlreq>
    5b8e:	88 2f       	mov	r24, r24
    5b90:	90 e0       	ldi	r25, 0x00	; 0
    5b92:	8f 71       	andi	r24, 0x1F	; 31
    5b94:	99 27       	eor	r25, r25
    5b96:	02 97       	sbiw	r24, 0x02	; 2
    5b98:	71 f4       	brne	.+28     	; 0x5bb6 <udc_reqstd+0x13a>
    5b9a:	80 91 53 29 	lds	r24, 0x2953	; 0x802953 <udd_g_ctrlreq+0x1>
    5b9e:	88 2f       	mov	r24, r24
    5ba0:	90 e0       	ldi	r25, 0x00	; 0
    5ba2:	81 30       	cpi	r24, 0x01	; 1
    5ba4:	91 05       	cpc	r25, r1
    5ba6:	19 f0       	breq	.+6      	; 0x5bae <udc_reqstd+0x132>
    5ba8:	03 97       	sbiw	r24, 0x03	; 3
    5baa:	19 f0       	breq	.+6      	; 0x5bb2 <udc_reqstd+0x136>
    5bac:	04 c0       	rjmp	.+8      	; 0x5bb6 <udc_reqstd+0x13a>
    5bae:	03 dd       	rcall	.-1530   	; 0x55b6 <udc_req_std_ep_clear_feature>
    5bb0:	03 c0       	rjmp	.+6      	; 0x5bb8 <udc_reqstd+0x13c>
    5bb2:	36 dd       	rcall	.-1428   	; 0x5620 <udc_req_std_ep_set_feature>
    5bb4:	01 c0       	rjmp	.+2      	; 0x5bb8 <udc_reqstd+0x13c>
    5bb6:	80 e0       	ldi	r24, 0x00	; 0
    5bb8:	df 91       	pop	r29
    5bba:	cf 91       	pop	r28
    5bbc:	08 95       	ret

00005bbe <udc_req_iface>:
    5bbe:	cf 93       	push	r28
    5bc0:	df 93       	push	r29
    5bc2:	00 d0       	rcall	.+0      	; 0x5bc4 <udc_req_iface+0x6>
    5bc4:	cd b7       	in	r28, 0x3d	; 61
    5bc6:	de b7       	in	r29, 0x3e	; 62
    5bc8:	80 91 c6 27 	lds	r24, 0x27C6	; 0x8027c6 <udc_num_configuration>
    5bcc:	88 23       	and	r24, r24
    5bce:	11 f4       	brne	.+4      	; 0x5bd4 <udc_req_iface+0x16>
    5bd0:	80 e0       	ldi	r24, 0x00	; 0
    5bd2:	48 c0       	rjmp	.+144    	; 0x5c64 <udc_req_iface+0xa6>
    5bd4:	80 91 56 29 	lds	r24, 0x2956	; 0x802956 <udd_g_ctrlreq+0x4>
    5bd8:	90 91 57 29 	lds	r25, 0x2957	; 0x802957 <udd_g_ctrlreq+0x5>
    5bdc:	89 83       	std	Y+1, r24	; 0x01
    5bde:	80 91 c7 27 	lds	r24, 0x27C7	; 0x8027c7 <udc_ptr_conf>
    5be2:	90 91 c8 27 	lds	r25, 0x27C8	; 0x8027c8 <udc_ptr_conf+0x1>
    5be6:	fc 01       	movw	r30, r24
    5be8:	80 81       	ld	r24, Z
    5bea:	91 81       	ldd	r25, Z+1	; 0x01
    5bec:	fc 01       	movw	r30, r24
    5bee:	94 81       	ldd	r25, Z+4	; 0x04
    5bf0:	89 81       	ldd	r24, Y+1	; 0x01
    5bf2:	89 17       	cp	r24, r25
    5bf4:	10 f0       	brcs	.+4      	; 0x5bfa <udc_req_iface+0x3c>
    5bf6:	80 e0       	ldi	r24, 0x00	; 0
    5bf8:	35 c0       	rjmp	.+106    	; 0x5c64 <udc_req_iface+0xa6>
    5bfa:	60 e0       	ldi	r22, 0x00	; 0
    5bfc:	89 81       	ldd	r24, Y+1	; 0x01
    5bfe:	ef da       	rcall	.-2594   	; 0x51de <udc_update_iface_desc>
    5c00:	98 2f       	mov	r25, r24
    5c02:	81 e0       	ldi	r24, 0x01	; 1
    5c04:	89 27       	eor	r24, r25
    5c06:	88 23       	and	r24, r24
    5c08:	11 f0       	breq	.+4      	; 0x5c0e <udc_req_iface+0x50>
    5c0a:	80 e0       	ldi	r24, 0x00	; 0
    5c0c:	2b c0       	rjmp	.+86     	; 0x5c64 <udc_req_iface+0xa6>
    5c0e:	80 91 c7 27 	lds	r24, 0x27C7	; 0x8027c7 <udc_ptr_conf>
    5c12:	90 91 c8 27 	lds	r25, 0x27C8	; 0x8027c8 <udc_ptr_conf+0x1>
    5c16:	fc 01       	movw	r30, r24
    5c18:	22 81       	ldd	r18, Z+2	; 0x02
    5c1a:	33 81       	ldd	r19, Z+3	; 0x03
    5c1c:	89 81       	ldd	r24, Y+1	; 0x01
    5c1e:	88 2f       	mov	r24, r24
    5c20:	90 e0       	ldi	r25, 0x00	; 0
    5c22:	88 0f       	add	r24, r24
    5c24:	99 1f       	adc	r25, r25
    5c26:	82 0f       	add	r24, r18
    5c28:	93 1f       	adc	r25, r19
    5c2a:	fc 01       	movw	r30, r24
    5c2c:	80 81       	ld	r24, Z
    5c2e:	91 81       	ldd	r25, Z+1	; 0x01
    5c30:	8a 83       	std	Y+2, r24	; 0x02
    5c32:	9b 83       	std	Y+3, r25	; 0x03
    5c34:	8a 81       	ldd	r24, Y+2	; 0x02
    5c36:	9b 81       	ldd	r25, Y+3	; 0x03
    5c38:	fc 01       	movw	r30, r24
    5c3a:	86 81       	ldd	r24, Z+6	; 0x06
    5c3c:	97 81       	ldd	r25, Z+7	; 0x07
    5c3e:	fc 01       	movw	r30, r24
    5c40:	19 95       	eicall
    5c42:	68 2f       	mov	r22, r24
    5c44:	89 81       	ldd	r24, Y+1	; 0x01
    5c46:	cb da       	rcall	.-2666   	; 0x51de <udc_update_iface_desc>
    5c48:	98 2f       	mov	r25, r24
    5c4a:	81 e0       	ldi	r24, 0x01	; 1
    5c4c:	89 27       	eor	r24, r25
    5c4e:	88 23       	and	r24, r24
    5c50:	11 f0       	breq	.+4      	; 0x5c56 <udc_req_iface+0x98>
    5c52:	80 e0       	ldi	r24, 0x00	; 0
    5c54:	07 c0       	rjmp	.+14     	; 0x5c64 <udc_req_iface+0xa6>
    5c56:	8a 81       	ldd	r24, Y+2	; 0x02
    5c58:	9b 81       	ldd	r25, Y+3	; 0x03
    5c5a:	fc 01       	movw	r30, r24
    5c5c:	84 81       	ldd	r24, Z+4	; 0x04
    5c5e:	95 81       	ldd	r25, Z+5	; 0x05
    5c60:	fc 01       	movw	r30, r24
    5c62:	19 95       	eicall
    5c64:	23 96       	adiw	r28, 0x03	; 3
    5c66:	cd bf       	out	0x3d, r28	; 61
    5c68:	de bf       	out	0x3e, r29	; 62
    5c6a:	df 91       	pop	r29
    5c6c:	cf 91       	pop	r28
    5c6e:	08 95       	ret

00005c70 <udc_req_ep>:
    5c70:	cf 93       	push	r28
    5c72:	df 93       	push	r29
    5c74:	00 d0       	rcall	.+0      	; 0x5c76 <udc_req_ep+0x6>
    5c76:	cd b7       	in	r28, 0x3d	; 61
    5c78:	de b7       	in	r29, 0x3e	; 62
    5c7a:	80 91 c6 27 	lds	r24, 0x27C6	; 0x8027c6 <udc_num_configuration>
    5c7e:	88 23       	and	r24, r24
    5c80:	11 f4       	brne	.+4      	; 0x5c86 <udc_req_ep+0x16>
    5c82:	80 e0       	ldi	r24, 0x00	; 0
    5c84:	46 c0       	rjmp	.+140    	; 0x5d12 <udc_req_ep+0xa2>
    5c86:	80 91 56 29 	lds	r24, 0x2956	; 0x802956 <udd_g_ctrlreq+0x4>
    5c8a:	90 91 57 29 	lds	r25, 0x2957	; 0x802957 <udd_g_ctrlreq+0x5>
    5c8e:	89 83       	std	Y+1, r24	; 0x01
    5c90:	19 82       	std	Y+1, r1	; 0x01
    5c92:	32 c0       	rjmp	.+100    	; 0x5cf8 <udc_req_ep+0x88>
    5c94:	80 91 c7 27 	lds	r24, 0x27C7	; 0x8027c7 <udc_ptr_conf>
    5c98:	90 91 c8 27 	lds	r25, 0x27C8	; 0x8027c8 <udc_ptr_conf+0x1>
    5c9c:	fc 01       	movw	r30, r24
    5c9e:	22 81       	ldd	r18, Z+2	; 0x02
    5ca0:	33 81       	ldd	r19, Z+3	; 0x03
    5ca2:	89 81       	ldd	r24, Y+1	; 0x01
    5ca4:	88 2f       	mov	r24, r24
    5ca6:	90 e0       	ldi	r25, 0x00	; 0
    5ca8:	88 0f       	add	r24, r24
    5caa:	99 1f       	adc	r25, r25
    5cac:	82 0f       	add	r24, r18
    5cae:	93 1f       	adc	r25, r19
    5cb0:	fc 01       	movw	r30, r24
    5cb2:	80 81       	ld	r24, Z
    5cb4:	91 81       	ldd	r25, Z+1	; 0x01
    5cb6:	8a 83       	std	Y+2, r24	; 0x02
    5cb8:	9b 83       	std	Y+3, r25	; 0x03
    5cba:	8a 81       	ldd	r24, Y+2	; 0x02
    5cbc:	9b 81       	ldd	r25, Y+3	; 0x03
    5cbe:	fc 01       	movw	r30, r24
    5cc0:	86 81       	ldd	r24, Z+6	; 0x06
    5cc2:	97 81       	ldd	r25, Z+7	; 0x07
    5cc4:	fc 01       	movw	r30, r24
    5cc6:	19 95       	eicall
    5cc8:	68 2f       	mov	r22, r24
    5cca:	89 81       	ldd	r24, Y+1	; 0x01
    5ccc:	88 da       	rcall	.-2800   	; 0x51de <udc_update_iface_desc>
    5cce:	98 2f       	mov	r25, r24
    5cd0:	81 e0       	ldi	r24, 0x01	; 1
    5cd2:	89 27       	eor	r24, r25
    5cd4:	88 23       	and	r24, r24
    5cd6:	11 f0       	breq	.+4      	; 0x5cdc <udc_req_ep+0x6c>
    5cd8:	80 e0       	ldi	r24, 0x00	; 0
    5cda:	1b c0       	rjmp	.+54     	; 0x5d12 <udc_req_ep+0xa2>
    5cdc:	8a 81       	ldd	r24, Y+2	; 0x02
    5cde:	9b 81       	ldd	r25, Y+3	; 0x03
    5ce0:	fc 01       	movw	r30, r24
    5ce2:	84 81       	ldd	r24, Z+4	; 0x04
    5ce4:	95 81       	ldd	r25, Z+5	; 0x05
    5ce6:	fc 01       	movw	r30, r24
    5ce8:	19 95       	eicall
    5cea:	88 23       	and	r24, r24
    5cec:	11 f0       	breq	.+4      	; 0x5cf2 <udc_req_ep+0x82>
    5cee:	81 e0       	ldi	r24, 0x01	; 1
    5cf0:	10 c0       	rjmp	.+32     	; 0x5d12 <udc_req_ep+0xa2>
    5cf2:	89 81       	ldd	r24, Y+1	; 0x01
    5cf4:	8f 5f       	subi	r24, 0xFF	; 255
    5cf6:	89 83       	std	Y+1, r24	; 0x01
    5cf8:	80 91 c7 27 	lds	r24, 0x27C7	; 0x8027c7 <udc_ptr_conf>
    5cfc:	90 91 c8 27 	lds	r25, 0x27C8	; 0x8027c8 <udc_ptr_conf+0x1>
    5d00:	fc 01       	movw	r30, r24
    5d02:	80 81       	ld	r24, Z
    5d04:	91 81       	ldd	r25, Z+1	; 0x01
    5d06:	fc 01       	movw	r30, r24
    5d08:	94 81       	ldd	r25, Z+4	; 0x04
    5d0a:	89 81       	ldd	r24, Y+1	; 0x01
    5d0c:	89 17       	cp	r24, r25
    5d0e:	10 f2       	brcs	.-124    	; 0x5c94 <udc_req_ep+0x24>
    5d10:	80 e0       	ldi	r24, 0x00	; 0
    5d12:	23 96       	adiw	r28, 0x03	; 3
    5d14:	cd bf       	out	0x3d, r28	; 61
    5d16:	de bf       	out	0x3e, r29	; 62
    5d18:	df 91       	pop	r29
    5d1a:	cf 91       	pop	r28
    5d1c:	08 95       	ret

00005d1e <udc_process_setup>:
    5d1e:	cf 93       	push	r28
    5d20:	df 93       	push	r29
    5d22:	cd b7       	in	r28, 0x3d	; 61
    5d24:	de b7       	in	r29, 0x3e	; 62
    5d26:	10 92 5c 29 	sts	0x295C, r1	; 0x80295c <udd_g_ctrlreq+0xa>
    5d2a:	10 92 5d 29 	sts	0x295D, r1	; 0x80295d <udd_g_ctrlreq+0xb>
    5d2e:	10 92 5e 29 	sts	0x295E, r1	; 0x80295e <udd_g_ctrlreq+0xc>
    5d32:	10 92 5f 29 	sts	0x295F, r1	; 0x80295f <udd_g_ctrlreq+0xd>
    5d36:	10 92 60 29 	sts	0x2960, r1	; 0x802960 <udd_g_ctrlreq+0xe>
    5d3a:	10 92 61 29 	sts	0x2961, r1	; 0x802961 <udd_g_ctrlreq+0xf>
    5d3e:	80 91 52 29 	lds	r24, 0x2952	; 0x802952 <udd_g_ctrlreq>
    5d42:	88 23       	and	r24, r24
    5d44:	44 f4       	brge	.+16     	; 0x5d56 <udc_process_setup+0x38>
    5d46:	80 91 58 29 	lds	r24, 0x2958	; 0x802958 <udd_g_ctrlreq+0x6>
    5d4a:	90 91 59 29 	lds	r25, 0x2959	; 0x802959 <udd_g_ctrlreq+0x7>
    5d4e:	89 2b       	or	r24, r25
    5d50:	11 f4       	brne	.+4      	; 0x5d56 <udc_process_setup+0x38>
    5d52:	80 e0       	ldi	r24, 0x00	; 0
    5d54:	28 c0       	rjmp	.+80     	; 0x5da6 <udc_process_setup+0x88>
    5d56:	80 91 52 29 	lds	r24, 0x2952	; 0x802952 <udd_g_ctrlreq>
    5d5a:	88 2f       	mov	r24, r24
    5d5c:	90 e0       	ldi	r25, 0x00	; 0
    5d5e:	80 76       	andi	r24, 0x60	; 96
    5d60:	99 27       	eor	r25, r25
    5d62:	89 2b       	or	r24, r25
    5d64:	29 f4       	brne	.+10     	; 0x5d70 <udc_process_setup+0x52>
    5d66:	8a de       	rcall	.-748    	; 0x5a7c <udc_reqstd>
    5d68:	88 23       	and	r24, r24
    5d6a:	11 f0       	breq	.+4      	; 0x5d70 <udc_process_setup+0x52>
    5d6c:	81 e0       	ldi	r24, 0x01	; 1
    5d6e:	1b c0       	rjmp	.+54     	; 0x5da6 <udc_process_setup+0x88>
    5d70:	80 91 52 29 	lds	r24, 0x2952	; 0x802952 <udd_g_ctrlreq>
    5d74:	88 2f       	mov	r24, r24
    5d76:	90 e0       	ldi	r25, 0x00	; 0
    5d78:	8f 71       	andi	r24, 0x1F	; 31
    5d7a:	99 27       	eor	r25, r25
    5d7c:	01 97       	sbiw	r24, 0x01	; 1
    5d7e:	29 f4       	brne	.+10     	; 0x5d8a <udc_process_setup+0x6c>
    5d80:	1e df       	rcall	.-452    	; 0x5bbe <udc_req_iface>
    5d82:	88 23       	and	r24, r24
    5d84:	11 f0       	breq	.+4      	; 0x5d8a <udc_process_setup+0x6c>
    5d86:	81 e0       	ldi	r24, 0x01	; 1
    5d88:	0e c0       	rjmp	.+28     	; 0x5da6 <udc_process_setup+0x88>
    5d8a:	80 91 52 29 	lds	r24, 0x2952	; 0x802952 <udd_g_ctrlreq>
    5d8e:	88 2f       	mov	r24, r24
    5d90:	90 e0       	ldi	r25, 0x00	; 0
    5d92:	8f 71       	andi	r24, 0x1F	; 31
    5d94:	99 27       	eor	r25, r25
    5d96:	02 97       	sbiw	r24, 0x02	; 2
    5d98:	29 f4       	brne	.+10     	; 0x5da4 <udc_process_setup+0x86>
    5d9a:	6a df       	rcall	.-300    	; 0x5c70 <udc_req_ep>
    5d9c:	88 23       	and	r24, r24
    5d9e:	11 f0       	breq	.+4      	; 0x5da4 <udc_process_setup+0x86>
    5da0:	81 e0       	ldi	r24, 0x01	; 1
    5da2:	01 c0       	rjmp	.+2      	; 0x5da6 <udc_process_setup+0x88>
    5da4:	80 e0       	ldi	r24, 0x00	; 0
    5da6:	df 91       	pop	r29
    5da8:	cf 91       	pop	r28
    5daa:	08 95       	ret

00005dac <cpu_irq_save>:
    5dac:	cf 93       	push	r28
    5dae:	df 93       	push	r29
    5db0:	1f 92       	push	r1
    5db2:	cd b7       	in	r28, 0x3d	; 61
    5db4:	de b7       	in	r29, 0x3e	; 62
    5db6:	8f e3       	ldi	r24, 0x3F	; 63
    5db8:	90 e0       	ldi	r25, 0x00	; 0
    5dba:	fc 01       	movw	r30, r24
    5dbc:	80 81       	ld	r24, Z
    5dbe:	89 83       	std	Y+1, r24	; 0x01
    5dc0:	f8 94       	cli
    5dc2:	89 81       	ldd	r24, Y+1	; 0x01
    5dc4:	0f 90       	pop	r0
    5dc6:	df 91       	pop	r29
    5dc8:	cf 91       	pop	r28
    5dca:	08 95       	ret

00005dcc <cpu_irq_restore>:
    5dcc:	cf 93       	push	r28
    5dce:	df 93       	push	r29
    5dd0:	1f 92       	push	r1
    5dd2:	cd b7       	in	r28, 0x3d	; 61
    5dd4:	de b7       	in	r29, 0x3e	; 62
    5dd6:	89 83       	std	Y+1, r24	; 0x01
    5dd8:	8f e3       	ldi	r24, 0x3F	; 63
    5dda:	90 e0       	ldi	r25, 0x00	; 0
    5ddc:	29 81       	ldd	r18, Y+1	; 0x01
    5dde:	fc 01       	movw	r30, r24
    5de0:	20 83       	st	Z, r18
    5de2:	00 00       	nop
    5de4:	0f 90       	pop	r0
    5de6:	df 91       	pop	r29
    5de8:	cf 91       	pop	r28
    5dea:	08 95       	ret

00005dec <nvm_read_production_signature_row>:
    5dec:	cf 93       	push	r28
    5dee:	df 93       	push	r29
    5df0:	1f 92       	push	r1
    5df2:	cd b7       	in	r28, 0x3d	; 61
    5df4:	de b7       	in	r29, 0x3e	; 62
    5df6:	89 83       	std	Y+1, r24	; 0x01
    5df8:	89 81       	ldd	r24, Y+1	; 0x01
    5dfa:	88 2f       	mov	r24, r24
    5dfc:	90 e0       	ldi	r25, 0x00	; 0
    5dfe:	bc 01       	movw	r22, r24
    5e00:	82 e0       	ldi	r24, 0x02	; 2
    5e02:	0e 94 c5 20 	call	0x418a	; 0x418a <nvm_read_byte>
    5e06:	0f 90       	pop	r0
    5e08:	df 91       	pop	r29
    5e0a:	cf 91       	pop	r28
    5e0c:	08 95       	ret

00005e0e <usb_pad_init>:
    5e0e:	cf 93       	push	r28
    5e10:	df 93       	push	r29
    5e12:	1f 92       	push	r1
    5e14:	cd b7       	in	r28, 0x3d	; 61
    5e16:	de b7       	in	r29, 0x3e	; 62
    5e18:	8a e1       	ldi	r24, 0x1A	; 26
    5e1a:	e8 df       	rcall	.-48     	; 0x5dec <nvm_read_production_signature_row>
    5e1c:	89 83       	std	Y+1, r24	; 0x01
    5e1e:	89 81       	ldd	r24, Y+1	; 0x01
    5e20:	8f 3f       	cpi	r24, 0xFF	; 255
    5e22:	31 f0       	breq	.+12     	; 0x5e30 <usb_pad_init+0x22>
    5e24:	8a ef       	ldi	r24, 0xFA	; 250
    5e26:	94 e0       	ldi	r25, 0x04	; 4
    5e28:	29 81       	ldd	r18, Y+1	; 0x01
    5e2a:	fc 01       	movw	r30, r24
    5e2c:	20 83       	st	Z, r18
    5e2e:	05 c0       	rjmp	.+10     	; 0x5e3a <usb_pad_init+0x2c>
    5e30:	8a ef       	ldi	r24, 0xFA	; 250
    5e32:	94 e0       	ldi	r25, 0x04	; 4
    5e34:	2f e1       	ldi	r18, 0x1F	; 31
    5e36:	fc 01       	movw	r30, r24
    5e38:	20 83       	st	Z, r18
    5e3a:	8b e1       	ldi	r24, 0x1B	; 27
    5e3c:	d7 df       	rcall	.-82     	; 0x5dec <nvm_read_production_signature_row>
    5e3e:	89 83       	std	Y+1, r24	; 0x01
    5e40:	89 81       	ldd	r24, Y+1	; 0x01
    5e42:	8f 3f       	cpi	r24, 0xFF	; 255
    5e44:	31 f0       	breq	.+12     	; 0x5e52 <usb_pad_init+0x44>
    5e46:	8b ef       	ldi	r24, 0xFB	; 251
    5e48:	94 e0       	ldi	r25, 0x04	; 4
    5e4a:	29 81       	ldd	r18, Y+1	; 0x01
    5e4c:	fc 01       	movw	r30, r24
    5e4e:	20 83       	st	Z, r18
    5e50:	05 c0       	rjmp	.+10     	; 0x5e5c <usb_pad_init+0x4e>
    5e52:	8b ef       	ldi	r24, 0xFB	; 251
    5e54:	94 e0       	ldi	r25, 0x04	; 4
    5e56:	2f e1       	ldi	r18, 0x1F	; 31
    5e58:	fc 01       	movw	r30, r24
    5e5a:	20 83       	st	Z, r18
    5e5c:	00 00       	nop
    5e5e:	0f 90       	pop	r0
    5e60:	df 91       	pop	r29
    5e62:	cf 91       	pop	r28
    5e64:	08 95       	ret

00005e66 <sleepmgr_lock_mode>:
    5e66:	cf 93       	push	r28
    5e68:	df 93       	push	r29
    5e6a:	1f 92       	push	r1
    5e6c:	1f 92       	push	r1
    5e6e:	cd b7       	in	r28, 0x3d	; 61
    5e70:	de b7       	in	r29, 0x3e	; 62
    5e72:	8a 83       	std	Y+2, r24	; 0x02
    5e74:	9b df       	rcall	.-202    	; 0x5dac <cpu_irq_save>
    5e76:	89 83       	std	Y+1, r24	; 0x01
    5e78:	8a 81       	ldd	r24, Y+2	; 0x02
    5e7a:	88 2f       	mov	r24, r24
    5e7c:	90 e0       	ldi	r25, 0x00	; 0
    5e7e:	9c 01       	movw	r18, r24
    5e80:	24 5b       	subi	r18, 0xB4	; 180
    5e82:	36 4d       	sbci	r19, 0xD6	; 214
    5e84:	f9 01       	movw	r30, r18
    5e86:	20 81       	ld	r18, Z
    5e88:	2f 5f       	subi	r18, 0xFF	; 255
    5e8a:	84 5b       	subi	r24, 0xB4	; 180
    5e8c:	96 4d       	sbci	r25, 0xD6	; 214
    5e8e:	fc 01       	movw	r30, r24
    5e90:	20 83       	st	Z, r18
    5e92:	89 81       	ldd	r24, Y+1	; 0x01
    5e94:	9b df       	rcall	.-202    	; 0x5dcc <cpu_irq_restore>
    5e96:	00 00       	nop
    5e98:	0f 90       	pop	r0
    5e9a:	0f 90       	pop	r0
    5e9c:	df 91       	pop	r29
    5e9e:	cf 91       	pop	r28
    5ea0:	08 95       	ret

00005ea2 <sleepmgr_unlock_mode>:
    5ea2:	cf 93       	push	r28
    5ea4:	df 93       	push	r29
    5ea6:	1f 92       	push	r1
    5ea8:	1f 92       	push	r1
    5eaa:	cd b7       	in	r28, 0x3d	; 61
    5eac:	de b7       	in	r29, 0x3e	; 62
    5eae:	8a 83       	std	Y+2, r24	; 0x02
    5eb0:	7d df       	rcall	.-262    	; 0x5dac <cpu_irq_save>
    5eb2:	89 83       	std	Y+1, r24	; 0x01
    5eb4:	8a 81       	ldd	r24, Y+2	; 0x02
    5eb6:	88 2f       	mov	r24, r24
    5eb8:	90 e0       	ldi	r25, 0x00	; 0
    5eba:	9c 01       	movw	r18, r24
    5ebc:	24 5b       	subi	r18, 0xB4	; 180
    5ebe:	36 4d       	sbci	r19, 0xD6	; 214
    5ec0:	f9 01       	movw	r30, r18
    5ec2:	20 81       	ld	r18, Z
    5ec4:	21 50       	subi	r18, 0x01	; 1
    5ec6:	84 5b       	subi	r24, 0xB4	; 180
    5ec8:	96 4d       	sbci	r25, 0xD6	; 214
    5eca:	fc 01       	movw	r30, r24
    5ecc:	20 83       	st	Z, r18
    5ece:	89 81       	ldd	r24, Y+1	; 0x01
    5ed0:	7d df       	rcall	.-262    	; 0x5dcc <cpu_irq_restore>
    5ed2:	00 00       	nop
    5ed4:	0f 90       	pop	r0
    5ed6:	0f 90       	pop	r0
    5ed8:	df 91       	pop	r29
    5eda:	cf 91       	pop	r28
    5edc:	08 95       	ret

00005ede <udd_sleep_mode>:
    5ede:	cf 93       	push	r28
    5ee0:	df 93       	push	r29
    5ee2:	1f 92       	push	r1
    5ee4:	cd b7       	in	r28, 0x3d	; 61
    5ee6:	de b7       	in	r29, 0x3e	; 62
    5ee8:	89 83       	std	Y+1, r24	; 0x01
    5eea:	99 81       	ldd	r25, Y+1	; 0x01
    5eec:	81 e0       	ldi	r24, 0x01	; 1
    5eee:	89 27       	eor	r24, r25
    5ef0:	88 23       	and	r24, r24
    5ef2:	31 f0       	breq	.+12     	; 0x5f00 <udd_sleep_mode+0x22>
    5ef4:	80 91 ce 27 	lds	r24, 0x27CE	; 0x8027ce <udd_b_idle>
    5ef8:	88 23       	and	r24, r24
    5efa:	11 f0       	breq	.+4      	; 0x5f00 <udd_sleep_mode+0x22>
    5efc:	81 e0       	ldi	r24, 0x01	; 1
    5efe:	d1 df       	rcall	.-94     	; 0x5ea2 <sleepmgr_unlock_mode>
    5f00:	89 81       	ldd	r24, Y+1	; 0x01
    5f02:	88 23       	and	r24, r24
    5f04:	41 f0       	breq	.+16     	; 0x5f16 <udd_sleep_mode+0x38>
    5f06:	90 91 ce 27 	lds	r25, 0x27CE	; 0x8027ce <udd_b_idle>
    5f0a:	81 e0       	ldi	r24, 0x01	; 1
    5f0c:	89 27       	eor	r24, r25
    5f0e:	88 23       	and	r24, r24
    5f10:	11 f0       	breq	.+4      	; 0x5f16 <udd_sleep_mode+0x38>
    5f12:	81 e0       	ldi	r24, 0x01	; 1
    5f14:	a8 df       	rcall	.-176    	; 0x5e66 <sleepmgr_lock_mode>
    5f16:	89 81       	ldd	r24, Y+1	; 0x01
    5f18:	80 93 ce 27 	sts	0x27CE, r24	; 0x8027ce <udd_b_idle>
    5f1c:	00 00       	nop
    5f1e:	0f 90       	pop	r0
    5f20:	df 91       	pop	r29
    5f22:	cf 91       	pop	r28
    5f24:	08 95       	ret

00005f26 <udd_enable>:
    5f26:	cf 93       	push	r28
    5f28:	df 93       	push	r29
    5f2a:	1f 92       	push	r1
    5f2c:	1f 92       	push	r1
    5f2e:	cd b7       	in	r28, 0x3d	; 61
    5f30:	de b7       	in	r29, 0x3e	; 62
    5f32:	80 e6       	ldi	r24, 0x60	; 96
    5f34:	90 e0       	ldi	r25, 0x00	; 0
    5f36:	fc 01       	movw	r30, r24
    5f38:	10 82       	st	Z, r1
    5f3a:	80 e3       	ldi	r24, 0x30	; 48
    5f3c:	0e 94 93 20 	call	0x4126	; 0x4126 <sysclk_enable_usb>
    5f40:	80 ec       	ldi	r24, 0xC0	; 192
    5f42:	94 e0       	ldi	r25, 0x04	; 4
    5f44:	20 ec       	ldi	r18, 0xC0	; 192
    5f46:	34 e0       	ldi	r19, 0x04	; 4
    5f48:	f9 01       	movw	r30, r18
    5f4a:	20 81       	ld	r18, Z
    5f4c:	20 64       	ori	r18, 0x40	; 64
    5f4e:	fc 01       	movw	r30, r24
    5f50:	20 83       	st	Z, r18
    5f52:	80 e6       	ldi	r24, 0x60	; 96
    5f54:	90 e0       	ldi	r25, 0x00	; 0
    5f56:	21 e0       	ldi	r18, 0x01	; 1
    5f58:	fc 01       	movw	r30, r24
    5f5a:	20 83       	st	Z, r18
    5f5c:	27 df       	rcall	.-434    	; 0x5dac <cpu_irq_save>
    5f5e:	8a 83       	std	Y+2, r24	; 0x02
    5f60:	19 82       	std	Y+1, r1	; 0x01
    5f62:	10 c0       	rjmp	.+32     	; 0x5f84 <udd_enable+0x5e>
    5f64:	89 81       	ldd	r24, Y+1	; 0x01
    5f66:	88 2f       	mov	r24, r24
    5f68:	90 e0       	ldi	r25, 0x00	; 0
    5f6a:	88 0f       	add	r24, r24
    5f6c:	99 1f       	adc	r25, r25
    5f6e:	88 0f       	add	r24, r24
    5f70:	99 1f       	adc	r25, r25
    5f72:	88 0f       	add	r24, r24
    5f74:	99 1f       	adc	r25, r25
    5f76:	83 52       	subi	r24, 0x23	; 35
    5f78:	98 4d       	sbci	r25, 0xD8	; 216
    5f7a:	fc 01       	movw	r30, r24
    5f7c:	10 82       	st	Z, r1
    5f7e:	89 81       	ldd	r24, Y+1	; 0x01
    5f80:	8f 5f       	subi	r24, 0xFF	; 255
    5f82:	89 83       	std	Y+1, r24	; 0x01
    5f84:	89 81       	ldd	r24, Y+1	; 0x01
    5f86:	86 30       	cpi	r24, 0x06	; 6
    5f88:	68 f3       	brcs	.-38     	; 0x5f64 <udd_enable+0x3e>
    5f8a:	19 82       	std	Y+1, r1	; 0x01
    5f8c:	16 c0       	rjmp	.+44     	; 0x5fba <udd_enable+0x94>
    5f8e:	89 81       	ldd	r24, Y+1	; 0x01
    5f90:	28 2f       	mov	r18, r24
    5f92:	30 e0       	ldi	r19, 0x00	; 0
    5f94:	c9 01       	movw	r24, r18
    5f96:	88 0f       	add	r24, r24
    5f98:	99 1f       	adc	r25, r25
    5f9a:	88 0f       	add	r24, r24
    5f9c:	99 1f       	adc	r25, r25
    5f9e:	88 0f       	add	r24, r24
    5fa0:	99 1f       	adc	r25, r25
    5fa2:	82 0f       	add	r24, r18
    5fa4:	93 1f       	adc	r25, r19
    5fa6:	8b 5a       	subi	r24, 0xAB	; 171
    5fa8:	97 4d       	sbci	r25, 0xD7	; 215
    5faa:	fc 01       	movw	r30, r24
    5fac:	20 81       	ld	r18, Z
    5fae:	2e 7f       	andi	r18, 0xFE	; 254
    5fb0:	fc 01       	movw	r30, r24
    5fb2:	20 83       	st	Z, r18
    5fb4:	89 81       	ldd	r24, Y+1	; 0x01
    5fb6:	8f 5f       	subi	r24, 0xFF	; 255
    5fb8:	89 83       	std	Y+1, r24	; 0x01
    5fba:	89 81       	ldd	r24, Y+1	; 0x01
    5fbc:	84 30       	cpi	r24, 0x04	; 4
    5fbe:	38 f3       	brcs	.-50     	; 0x5f8e <udd_enable+0x68>
    5fc0:	26 df       	rcall	.-436    	; 0x5e0e <usb_pad_init>
    5fc2:	80 ec       	ldi	r24, 0xC0	; 192
    5fc4:	94 e0       	ldi	r25, 0x04	; 4
    5fc6:	20 ec       	ldi	r18, 0xC0	; 192
    5fc8:	34 e0       	ldi	r19, 0x04	; 4
    5fca:	f9 01       	movw	r30, r18
    5fcc:	20 81       	ld	r18, Z
    5fce:	22 60       	ori	r18, 0x02	; 2
    5fd0:	fc 01       	movw	r30, r24
    5fd2:	20 83       	st	Z, r18
    5fd4:	80 ec       	ldi	r24, 0xC0	; 192
    5fd6:	94 e0       	ldi	r25, 0x04	; 4
    5fd8:	20 ec       	ldi	r18, 0xC0	; 192
    5fda:	34 e0       	ldi	r19, 0x04	; 4
    5fdc:	f9 01       	movw	r30, r18
    5fde:	20 81       	ld	r18, Z
    5fe0:	20 68       	ori	r18, 0x80	; 128
    5fe2:	fc 01       	movw	r30, r24
    5fe4:	20 83       	st	Z, r18
    5fe6:	80 ec       	ldi	r24, 0xC0	; 192
    5fe8:	94 e0       	ldi	r25, 0x04	; 4
    5fea:	20 ec       	ldi	r18, 0xC0	; 192
    5fec:	34 e0       	ldi	r19, 0x04	; 4
    5fee:	f9 01       	movw	r30, r18
    5ff0:	20 81       	ld	r18, Z
    5ff2:	20 61       	ori	r18, 0x10	; 16
    5ff4:	fc 01       	movw	r30, r24
    5ff6:	20 83       	st	Z, r18
    5ff8:	80 ec       	ldi	r24, 0xC0	; 192
    5ffa:	94 e0       	ldi	r25, 0x04	; 4
    5ffc:	2c ed       	ldi	r18, 0xDC	; 220
    5ffe:	37 e2       	ldi	r19, 0x27	; 39
    6000:	fc 01       	movw	r30, r24
    6002:	26 83       	std	Z+6, r18	; 0x06
    6004:	37 83       	std	Z+7, r19	; 0x07
    6006:	80 ec       	ldi	r24, 0xC0	; 192
    6008:	94 e0       	ldi	r25, 0x04	; 4
    600a:	20 ec       	ldi	r18, 0xC0	; 192
    600c:	34 e0       	ldi	r19, 0x04	; 4
    600e:	f9 01       	movw	r30, r18
    6010:	20 81       	ld	r18, Z
    6012:	20 62       	ori	r18, 0x20	; 32
    6014:	fc 01       	movw	r30, r24
    6016:	20 83       	st	Z, r18
    6018:	85 ec       	ldi	r24, 0xC5	; 197
    601a:	94 e0       	ldi	r25, 0x04	; 4
    601c:	2f ef       	ldi	r18, 0xFF	; 255
    601e:	fc 01       	movw	r30, r24
    6020:	20 83       	st	Z, r18
    6022:	88 ec       	ldi	r24, 0xC8	; 200
    6024:	94 e0       	ldi	r25, 0x04	; 4
    6026:	28 ec       	ldi	r18, 0xC8	; 200
    6028:	34 e0       	ldi	r19, 0x04	; 4
    602a:	f9 01       	movw	r30, r18
    602c:	20 81       	ld	r18, Z
    602e:	21 60       	ori	r18, 0x01	; 1
    6030:	fc 01       	movw	r30, r24
    6032:	20 83       	st	Z, r18
    6034:	10 92 ce 27 	sts	0x27CE, r1	; 0x8027ce <udd_b_idle>
    6038:	85 e0       	ldi	r24, 0x05	; 5
    603a:	15 df       	rcall	.-470    	; 0x5e66 <sleepmgr_lock_mode>
    603c:	08 d0       	rcall	.+16     	; 0x604e <udd_attach>
    603e:	8a 81       	ldd	r24, Y+2	; 0x02
    6040:	c5 de       	rcall	.-630    	; 0x5dcc <cpu_irq_restore>
    6042:	00 00       	nop
    6044:	0f 90       	pop	r0
    6046:	0f 90       	pop	r0
    6048:	df 91       	pop	r29
    604a:	cf 91       	pop	r28
    604c:	08 95       	ret

0000604e <udd_attach>:
    604e:	cf 93       	push	r28
    6050:	df 93       	push	r29
    6052:	1f 92       	push	r1
    6054:	cd b7       	in	r28, 0x3d	; 61
    6056:	de b7       	in	r29, 0x3e	; 62
    6058:	a9 de       	rcall	.-686    	; 0x5dac <cpu_irq_save>
    605a:	89 83       	std	Y+1, r24	; 0x01
    605c:	81 e0       	ldi	r24, 0x01	; 1
    605e:	3f df       	rcall	.-386    	; 0x5ede <udd_sleep_mode>
    6060:	8a ec       	ldi	r24, 0xCA	; 202
    6062:	94 e0       	ldi	r25, 0x04	; 4
    6064:	20 e4       	ldi	r18, 0x40	; 64
    6066:	fc 01       	movw	r30, r24
    6068:	20 83       	st	Z, r18
    606a:	8a ec       	ldi	r24, 0xCA	; 202
    606c:	94 e0       	ldi	r25, 0x04	; 4
    606e:	20 e2       	ldi	r18, 0x20	; 32
    6070:	fc 01       	movw	r30, r24
    6072:	20 83       	st	Z, r18
    6074:	81 ec       	ldi	r24, 0xC1	; 193
    6076:	94 e0       	ldi	r25, 0x04	; 4
    6078:	21 ec       	ldi	r18, 0xC1	; 193
    607a:	34 e0       	ldi	r19, 0x04	; 4
    607c:	f9 01       	movw	r30, r18
    607e:	20 81       	ld	r18, Z
    6080:	21 60       	ori	r18, 0x01	; 1
    6082:	fc 01       	movw	r30, r24
    6084:	20 83       	st	Z, r18
    6086:	89 ec       	ldi	r24, 0xC9	; 201
    6088:	94 e0       	ldi	r25, 0x04	; 4
    608a:	29 ec       	ldi	r18, 0xC9	; 201
    608c:	34 e0       	ldi	r19, 0x04	; 4
    608e:	f9 01       	movw	r30, r18
    6090:	20 81       	ld	r18, Z
    6092:	22 60       	ori	r18, 0x02	; 2
    6094:	fc 01       	movw	r30, r24
    6096:	20 83       	st	Z, r18
    6098:	88 ec       	ldi	r24, 0xC8	; 200
    609a:	94 e0       	ldi	r25, 0x04	; 4
    609c:	28 ec       	ldi	r18, 0xC8	; 200
    609e:	34 e0       	ldi	r19, 0x04	; 4
    60a0:	f9 01       	movw	r30, r18
    60a2:	20 81       	ld	r18, Z
    60a4:	20 64       	ori	r18, 0x40	; 64
    60a6:	fc 01       	movw	r30, r24
    60a8:	20 83       	st	Z, r18
    60aa:	89 ec       	ldi	r24, 0xC9	; 201
    60ac:	94 e0       	ldi	r25, 0x04	; 4
    60ae:	29 ec       	ldi	r18, 0xC9	; 201
    60b0:	34 e0       	ldi	r19, 0x04	; 4
    60b2:	f9 01       	movw	r30, r18
    60b4:	20 81       	ld	r18, Z
    60b6:	21 60       	ori	r18, 0x01	; 1
    60b8:	fc 01       	movw	r30, r24
    60ba:	20 83       	st	Z, r18
    60bc:	88 ec       	ldi	r24, 0xC8	; 200
    60be:	94 e0       	ldi	r25, 0x04	; 4
    60c0:	28 ec       	ldi	r18, 0xC8	; 200
    60c2:	34 e0       	ldi	r19, 0x04	; 4
    60c4:	f9 01       	movw	r30, r18
    60c6:	20 81       	ld	r18, Z
    60c8:	20 68       	ori	r18, 0x80	; 128
    60ca:	fc 01       	movw	r30, r24
    60cc:	20 83       	st	Z, r18
    60ce:	89 81       	ldd	r24, Y+1	; 0x01
    60d0:	7d de       	rcall	.-774    	; 0x5dcc <cpu_irq_restore>
    60d2:	00 00       	nop
    60d4:	0f 90       	pop	r0
    60d6:	df 91       	pop	r29
    60d8:	cf 91       	pop	r28
    60da:	08 95       	ret

000060dc <udd_is_high_speed>:
    60dc:	cf 93       	push	r28
    60de:	df 93       	push	r29
    60e0:	cd b7       	in	r28, 0x3d	; 61
    60e2:	de b7       	in	r29, 0x3e	; 62
    60e4:	80 e0       	ldi	r24, 0x00	; 0
    60e6:	df 91       	pop	r29
    60e8:	cf 91       	pop	r28
    60ea:	08 95       	ret

000060ec <udd_set_address>:
    60ec:	cf 93       	push	r28
    60ee:	df 93       	push	r29
    60f0:	1f 92       	push	r1
    60f2:	cd b7       	in	r28, 0x3d	; 61
    60f4:	de b7       	in	r29, 0x3e	; 62
    60f6:	89 83       	std	Y+1, r24	; 0x01
    60f8:	83 ec       	ldi	r24, 0xC3	; 195
    60fa:	94 e0       	ldi	r25, 0x04	; 4
    60fc:	29 81       	ldd	r18, Y+1	; 0x01
    60fe:	fc 01       	movw	r30, r24
    6100:	20 83       	st	Z, r18
    6102:	00 00       	nop
    6104:	0f 90       	pop	r0
    6106:	df 91       	pop	r29
    6108:	cf 91       	pop	r28
    610a:	08 95       	ret

0000610c <udd_getaddress>:
    610c:	cf 93       	push	r28
    610e:	df 93       	push	r29
    6110:	cd b7       	in	r28, 0x3d	; 61
    6112:	de b7       	in	r29, 0x3e	; 62
    6114:	83 ec       	ldi	r24, 0xC3	; 195
    6116:	94 e0       	ldi	r25, 0x04	; 4
    6118:	fc 01       	movw	r30, r24
    611a:	80 81       	ld	r24, Z
    611c:	df 91       	pop	r29
    611e:	cf 91       	pop	r28
    6120:	08 95       	ret

00006122 <udd_get_frame_number>:
    6122:	cf 93       	push	r28
    6124:	df 93       	push	r29
    6126:	cd b7       	in	r28, 0x3d	; 61
    6128:	de b7       	in	r29, 0x3e	; 62
    612a:	80 91 0c 28 	lds	r24, 0x280C	; 0x80280c <udd_sram+0x3c>
    612e:	90 91 0d 28 	lds	r25, 0x280D	; 0x80280d <udd_sram+0x3d>
    6132:	df 91       	pop	r29
    6134:	cf 91       	pop	r28
    6136:	08 95       	ret

00006138 <udd_get_micro_frame_number>:
    6138:	cf 93       	push	r28
    613a:	df 93       	push	r29
    613c:	cd b7       	in	r28, 0x3d	; 61
    613e:	de b7       	in	r29, 0x3e	; 62
    6140:	80 e0       	ldi	r24, 0x00	; 0
    6142:	90 e0       	ldi	r25, 0x00	; 0
    6144:	df 91       	pop	r29
    6146:	cf 91       	pop	r28
    6148:	08 95       	ret

0000614a <udd_set_setup_payload>:
    614a:	cf 93       	push	r28
    614c:	df 93       	push	r29
    614e:	00 d0       	rcall	.+0      	; 0x6150 <udd_set_setup_payload+0x6>
    6150:	1f 92       	push	r1
    6152:	cd b7       	in	r28, 0x3d	; 61
    6154:	de b7       	in	r29, 0x3e	; 62
    6156:	89 83       	std	Y+1, r24	; 0x01
    6158:	9a 83       	std	Y+2, r25	; 0x02
    615a:	6b 83       	std	Y+3, r22	; 0x03
    615c:	7c 83       	std	Y+4, r23	; 0x04
    615e:	89 81       	ldd	r24, Y+1	; 0x01
    6160:	9a 81       	ldd	r25, Y+2	; 0x02
    6162:	80 93 5a 29 	sts	0x295A, r24	; 0x80295a <udd_g_ctrlreq+0x8>
    6166:	90 93 5b 29 	sts	0x295B, r25	; 0x80295b <udd_g_ctrlreq+0x9>
    616a:	8b 81       	ldd	r24, Y+3	; 0x03
    616c:	9c 81       	ldd	r25, Y+4	; 0x04
    616e:	80 93 5c 29 	sts	0x295C, r24	; 0x80295c <udd_g_ctrlreq+0xa>
    6172:	90 93 5d 29 	sts	0x295D, r25	; 0x80295d <udd_g_ctrlreq+0xb>
    6176:	00 00       	nop
    6178:	24 96       	adiw	r28, 0x04	; 4
    617a:	cd bf       	out	0x3d, r28	; 61
    617c:	de bf       	out	0x3e, r29	; 62
    617e:	df 91       	pop	r29
    6180:	cf 91       	pop	r28
    6182:	08 95       	ret

00006184 <udd_ep_alloc>:
    6184:	cf 93       	push	r28
    6186:	df 93       	push	r29
    6188:	00 d0       	rcall	.+0      	; 0x618a <udd_ep_alloc+0x6>
    618a:	00 d0       	rcall	.+0      	; 0x618c <udd_ep_alloc+0x8>
    618c:	cd b7       	in	r28, 0x3d	; 61
    618e:	de b7       	in	r29, 0x3e	; 62
    6190:	8b 83       	std	Y+3, r24	; 0x03
    6192:	6c 83       	std	Y+4, r22	; 0x04
    6194:	4d 83       	std	Y+5, r20	; 0x05
    6196:	5e 83       	std	Y+6, r21	; 0x06
    6198:	8b 81       	ldd	r24, Y+3	; 0x03
    619a:	ae d3       	rcall	.+1884   	; 0x68f8 <udd_ep_get_ctrl>
    619c:	89 83       	std	Y+1, r24	; 0x01
    619e:	9a 83       	std	Y+2, r25	; 0x02
    61a0:	89 81       	ldd	r24, Y+1	; 0x01
    61a2:	9a 81       	ldd	r25, Y+2	; 0x02
    61a4:	fc 01       	movw	r30, r24
    61a6:	81 81       	ldd	r24, Z+1	; 0x01
    61a8:	88 2f       	mov	r24, r24
    61aa:	90 e0       	ldi	r25, 0x00	; 0
    61ac:	80 7c       	andi	r24, 0xC0	; 192
    61ae:	99 27       	eor	r25, r25
    61b0:	89 2b       	or	r24, r25
    61b2:	11 f0       	breq	.+4      	; 0x61b8 <udd_ep_alloc+0x34>
    61b4:	80 e0       	ldi	r24, 0x00	; 0
    61b6:	28 c0       	rjmp	.+80     	; 0x6208 <udd_ep_alloc+0x84>
    61b8:	8d 81       	ldd	r24, Y+5	; 0x05
    61ba:	9e 81       	ldd	r25, Y+6	; 0x06
    61bc:	ac 01       	movw	r20, r24
    61be:	6c 81       	ldd	r22, Y+4	; 0x04
    61c0:	8b 81       	ldd	r24, Y+3	; 0x03
    61c2:	25 d3       	rcall	.+1610   	; 0x680e <udd_ep_init>
    61c4:	89 81       	ldd	r24, Y+1	; 0x01
    61c6:	9a 81       	ldd	r25, Y+2	; 0x02
    61c8:	fc 01       	movw	r30, r24
    61ca:	81 81       	ldd	r24, Z+1	; 0x01
    61cc:	88 2f       	mov	r24, r24
    61ce:	90 e0       	ldi	r25, 0x00	; 0
    61d0:	80 7c       	andi	r24, 0xC0	; 192
    61d2:	99 27       	eor	r25, r25
    61d4:	80 3c       	cpi	r24, 0xC0	; 192
    61d6:	91 05       	cpc	r25, r1
    61d8:	61 f4       	brne	.+24     	; 0x61f2 <udd_ep_alloc+0x6e>
    61da:	89 81       	ldd	r24, Y+1	; 0x01
    61dc:	9a 81       	ldd	r25, Y+2	; 0x02
    61de:	fc 01       	movw	r30, r24
    61e0:	81 81       	ldd	r24, Z+1	; 0x01
    61e2:	88 2f       	mov	r24, r24
    61e4:	90 e0       	ldi	r25, 0x00	; 0
    61e6:	87 70       	andi	r24, 0x07	; 7
    61e8:	99 27       	eor	r25, r25
    61ea:	07 97       	sbiw	r24, 0x07	; 7
    61ec:	11 f4       	brne	.+4      	; 0x61f2 <udd_ep_alloc+0x6e>
    61ee:	81 e0       	ldi	r24, 0x01	; 1
    61f0:	0b c0       	rjmp	.+22     	; 0x6208 <udd_ep_alloc+0x84>
    61f2:	89 81       	ldd	r24, Y+1	; 0x01
    61f4:	9a 81       	ldd	r25, Y+2	; 0x02
    61f6:	fc 01       	movw	r30, r24
    61f8:	81 81       	ldd	r24, Z+1	; 0x01
    61fa:	28 2f       	mov	r18, r24
    61fc:	20 62       	ori	r18, 0x20	; 32
    61fe:	89 81       	ldd	r24, Y+1	; 0x01
    6200:	9a 81       	ldd	r25, Y+2	; 0x02
    6202:	fc 01       	movw	r30, r24
    6204:	21 83       	std	Z+1, r18	; 0x01
    6206:	81 e0       	ldi	r24, 0x01	; 1
    6208:	26 96       	adiw	r28, 0x06	; 6
    620a:	cd bf       	out	0x3d, r28	; 61
    620c:	de bf       	out	0x3e, r29	; 62
    620e:	df 91       	pop	r29
    6210:	cf 91       	pop	r28
    6212:	08 95       	ret

00006214 <udd_ep_free>:
    6214:	cf 93       	push	r28
    6216:	df 93       	push	r29
    6218:	00 d0       	rcall	.+0      	; 0x621a <udd_ep_free+0x6>
    621a:	cd b7       	in	r28, 0x3d	; 61
    621c:	de b7       	in	r29, 0x3e	; 62
    621e:	8b 83       	std	Y+3, r24	; 0x03
    6220:	8b 81       	ldd	r24, Y+3	; 0x03
    6222:	5a d1       	rcall	.+692    	; 0x64d8 <udd_ep_abort>
    6224:	8b 81       	ldd	r24, Y+3	; 0x03
    6226:	68 d3       	rcall	.+1744   	; 0x68f8 <udd_ep_get_ctrl>
    6228:	89 83       	std	Y+1, r24	; 0x01
    622a:	9a 83       	std	Y+2, r25	; 0x02
    622c:	89 81       	ldd	r24, Y+1	; 0x01
    622e:	9a 81       	ldd	r25, Y+2	; 0x02
    6230:	fc 01       	movw	r30, r24
    6232:	11 82       	std	Z+1, r1	; 0x01
    6234:	00 00       	nop
    6236:	23 96       	adiw	r28, 0x03	; 3
    6238:	cd bf       	out	0x3d, r28	; 61
    623a:	de bf       	out	0x3e, r29	; 62
    623c:	df 91       	pop	r29
    623e:	cf 91       	pop	r28
    6240:	08 95       	ret

00006242 <udd_ep_is_halted>:
    6242:	cf 93       	push	r28
    6244:	df 93       	push	r29
    6246:	00 d0       	rcall	.+0      	; 0x6248 <udd_ep_is_halted+0x6>
    6248:	cd b7       	in	r28, 0x3d	; 61
    624a:	de b7       	in	r29, 0x3e	; 62
    624c:	8b 83       	std	Y+3, r24	; 0x03
    624e:	8b 81       	ldd	r24, Y+3	; 0x03
    6250:	53 d3       	rcall	.+1702   	; 0x68f8 <udd_ep_get_ctrl>
    6252:	89 83       	std	Y+1, r24	; 0x01
    6254:	9a 83       	std	Y+2, r25	; 0x02
    6256:	89 81       	ldd	r24, Y+1	; 0x01
    6258:	9a 81       	ldd	r25, Y+2	; 0x02
    625a:	fc 01       	movw	r30, r24
    625c:	81 81       	ldd	r24, Z+1	; 0x01
    625e:	88 2f       	mov	r24, r24
    6260:	90 e0       	ldi	r25, 0x00	; 0
    6262:	84 70       	andi	r24, 0x04	; 4
    6264:	99 27       	eor	r25, r25
    6266:	21 e0       	ldi	r18, 0x01	; 1
    6268:	89 2b       	or	r24, r25
    626a:	09 f4       	brne	.+2      	; 0x626e <udd_ep_is_halted+0x2c>
    626c:	20 e0       	ldi	r18, 0x00	; 0
    626e:	82 2f       	mov	r24, r18
    6270:	23 96       	adiw	r28, 0x03	; 3
    6272:	cd bf       	out	0x3d, r28	; 61
    6274:	de bf       	out	0x3e, r29	; 62
    6276:	df 91       	pop	r29
    6278:	cf 91       	pop	r28
    627a:	08 95       	ret

0000627c <udd_ep_set_halt>:
    627c:	0f 93       	push	r16
    627e:	cf 93       	push	r28
    6280:	df 93       	push	r29
    6282:	00 d0       	rcall	.+0      	; 0x6284 <udd_ep_set_halt+0x8>
    6284:	cd b7       	in	r28, 0x3d	; 61
    6286:	de b7       	in	r29, 0x3e	; 62
    6288:	8b 83       	std	Y+3, r24	; 0x03
    628a:	8b 81       	ldd	r24, Y+3	; 0x03
    628c:	35 d3       	rcall	.+1642   	; 0x68f8 <udd_ep_get_ctrl>
    628e:	89 83       	std	Y+1, r24	; 0x01
    6290:	9a 83       	std	Y+2, r25	; 0x02
    6292:	89 81       	ldd	r24, Y+1	; 0x01
    6294:	9a 81       	ldd	r25, Y+2	; 0x02
    6296:	fc 01       	movw	r30, r24
    6298:	81 81       	ldd	r24, Z+1	; 0x01
    629a:	28 2f       	mov	r18, r24
    629c:	24 60       	ori	r18, 0x04	; 4
    629e:	89 81       	ldd	r24, Y+1	; 0x01
    62a0:	9a 81       	ldd	r25, Y+2	; 0x02
    62a2:	fc 01       	movw	r30, r24
    62a4:	21 83       	std	Z+1, r18	; 0x01
    62a6:	89 81       	ldd	r24, Y+1	; 0x01
    62a8:	9a 81       	ldd	r25, Y+2	; 0x02
    62aa:	fc 01       	movw	r30, r24
    62ac:	01 e0       	ldi	r16, 0x01	; 1
    62ae:	06 93       	lac	Z, r16
    62b0:	8b 81       	ldd	r24, Y+3	; 0x03
    62b2:	12 d1       	rcall	.+548    	; 0x64d8 <udd_ep_abort>
    62b4:	81 e0       	ldi	r24, 0x01	; 1
    62b6:	23 96       	adiw	r28, 0x03	; 3
    62b8:	cd bf       	out	0x3d, r28	; 61
    62ba:	de bf       	out	0x3e, r29	; 62
    62bc:	df 91       	pop	r29
    62be:	cf 91       	pop	r28
    62c0:	0f 91       	pop	r16
    62c2:	08 95       	ret

000062c4 <udd_ep_clear_halt>:
    62c4:	cf 93       	push	r28
    62c6:	df 93       	push	r29
    62c8:	cd b7       	in	r28, 0x3d	; 61
    62ca:	de b7       	in	r29, 0x3e	; 62
    62cc:	25 97       	sbiw	r28, 0x05	; 5
    62ce:	cd bf       	out	0x3d, r28	; 61
    62d0:	de bf       	out	0x3e, r29	; 62
    62d2:	8d 83       	std	Y+5, r24	; 0x05
    62d4:	8d 81       	ldd	r24, Y+5	; 0x05
    62d6:	10 d3       	rcall	.+1568   	; 0x68f8 <udd_ep_get_ctrl>
    62d8:	89 83       	std	Y+1, r24	; 0x01
    62da:	9a 83       	std	Y+2, r25	; 0x02
    62dc:	89 81       	ldd	r24, Y+1	; 0x01
    62de:	9a 81       	ldd	r25, Y+2	; 0x02
    62e0:	fc 01       	movw	r30, r24
    62e2:	81 81       	ldd	r24, Z+1	; 0x01
    62e4:	88 2f       	mov	r24, r24
    62e6:	90 e0       	ldi	r25, 0x00	; 0
    62e8:	84 70       	andi	r24, 0x04	; 4
    62ea:	99 27       	eor	r25, r25
    62ec:	89 2b       	or	r24, r25
    62ee:	11 f4       	brne	.+4      	; 0x62f4 <udd_ep_clear_halt+0x30>
    62f0:	81 e0       	ldi	r24, 0x01	; 1
    62f2:	24 c0       	rjmp	.+72     	; 0x633c <udd_ep_clear_halt+0x78>
    62f4:	89 81       	ldd	r24, Y+1	; 0x01
    62f6:	9a 81       	ldd	r25, Y+2	; 0x02
    62f8:	fc 01       	movw	r30, r24
    62fa:	81 81       	ldd	r24, Z+1	; 0x01
    62fc:	28 2f       	mov	r18, r24
    62fe:	2b 7f       	andi	r18, 0xFB	; 251
    6300:	89 81       	ldd	r24, Y+1	; 0x01
    6302:	9a 81       	ldd	r25, Y+2	; 0x02
    6304:	fc 01       	movw	r30, r24
    6306:	21 83       	std	Z+1, r18	; 0x01
    6308:	8d 81       	ldd	r24, Y+5	; 0x05
    630a:	75 d6       	rcall	.+3306   	; 0x6ff6 <udd_ep_get_job>
    630c:	8b 83       	std	Y+3, r24	; 0x03
    630e:	9c 83       	std	Y+4, r25	; 0x04
    6310:	8b 81       	ldd	r24, Y+3	; 0x03
    6312:	9c 81       	ldd	r25, Y+4	; 0x04
    6314:	fc 01       	movw	r30, r24
    6316:	80 81       	ld	r24, Z
    6318:	81 70       	andi	r24, 0x01	; 1
    631a:	88 23       	and	r24, r24
    631c:	71 f0       	breq	.+28     	; 0x633a <udd_ep_clear_halt+0x76>
    631e:	8b 81       	ldd	r24, Y+3	; 0x03
    6320:	9c 81       	ldd	r25, Y+4	; 0x04
    6322:	fc 01       	movw	r30, r24
    6324:	20 81       	ld	r18, Z
    6326:	2e 7f       	andi	r18, 0xFE	; 254
    6328:	fc 01       	movw	r30, r24
    632a:	20 83       	st	Z, r18
    632c:	8b 81       	ldd	r24, Y+3	; 0x03
    632e:	9c 81       	ldd	r25, Y+4	; 0x04
    6330:	fc 01       	movw	r30, r24
    6332:	87 81       	ldd	r24, Z+7	; 0x07
    6334:	90 85       	ldd	r25, Z+8	; 0x08
    6336:	fc 01       	movw	r30, r24
    6338:	19 95       	eicall
    633a:	81 e0       	ldi	r24, 0x01	; 1
    633c:	25 96       	adiw	r28, 0x05	; 5
    633e:	cd bf       	out	0x3d, r28	; 61
    6340:	de bf       	out	0x3e, r29	; 62
    6342:	df 91       	pop	r29
    6344:	cf 91       	pop	r28
    6346:	08 95       	ret

00006348 <udd_ep_run>:
    6348:	0f 93       	push	r16
    634a:	1f 93       	push	r17
    634c:	cf 93       	push	r28
    634e:	df 93       	push	r29
    6350:	cd b7       	in	r28, 0x3d	; 61
    6352:	de b7       	in	r29, 0x3e	; 62
    6354:	2d 97       	sbiw	r28, 0x0d	; 13
    6356:	cd bf       	out	0x3d, r28	; 61
    6358:	de bf       	out	0x3e, r29	; 62
    635a:	8e 83       	std	Y+6, r24	; 0x06
    635c:	6f 83       	std	Y+7, r22	; 0x07
    635e:	48 87       	std	Y+8, r20	; 0x08
    6360:	59 87       	std	Y+9, r21	; 0x09
    6362:	2a 87       	std	Y+10, r18	; 0x0a
    6364:	3b 87       	std	Y+11, r19	; 0x0b
    6366:	0c 87       	std	Y+12, r16	; 0x0c
    6368:	1d 87       	std	Y+13, r17	; 0x0d
    636a:	8e 81       	ldd	r24, Y+6	; 0x06
    636c:	44 d6       	rcall	.+3208   	; 0x6ff6 <udd_ep_get_job>
    636e:	89 83       	std	Y+1, r24	; 0x01
    6370:	9a 83       	std	Y+2, r25	; 0x02
    6372:	8e 81       	ldd	r24, Y+6	; 0x06
    6374:	c1 d2       	rcall	.+1410   	; 0x68f8 <udd_ep_get_ctrl>
    6376:	8b 83       	std	Y+3, r24	; 0x03
    6378:	9c 83       	std	Y+4, r25	; 0x04
    637a:	8b 81       	ldd	r24, Y+3	; 0x03
    637c:	9c 81       	ldd	r25, Y+4	; 0x04
    637e:	fc 01       	movw	r30, r24
    6380:	81 81       	ldd	r24, Z+1	; 0x01
    6382:	88 2f       	mov	r24, r24
    6384:	90 e0       	ldi	r25, 0x00	; 0
    6386:	80 7c       	andi	r24, 0xC0	; 192
    6388:	99 27       	eor	r25, r25
    638a:	89 2b       	or	r24, r25
    638c:	11 f4       	brne	.+4      	; 0x6392 <udd_ep_run+0x4a>
    638e:	80 e0       	ldi	r24, 0x00	; 0
    6390:	9b c0       	rjmp	.+310    	; 0x64c8 <udd_ep_run+0x180>
    6392:	8b 81       	ldd	r24, Y+3	; 0x03
    6394:	9c 81       	ldd	r25, Y+4	; 0x04
    6396:	fc 01       	movw	r30, r24
    6398:	81 81       	ldd	r24, Z+1	; 0x01
    639a:	88 2f       	mov	r24, r24
    639c:	90 e0       	ldi	r25, 0x00	; 0
    639e:	80 7c       	andi	r24, 0xC0	; 192
    63a0:	99 27       	eor	r25, r25
    63a2:	80 3c       	cpi	r24, 0xC0	; 192
    63a4:	91 05       	cpc	r25, r1
    63a6:	61 f0       	breq	.+24     	; 0x63c0 <udd_ep_run+0x78>
    63a8:	8b 81       	ldd	r24, Y+3	; 0x03
    63aa:	9c 81       	ldd	r25, Y+4	; 0x04
    63ac:	fc 01       	movw	r30, r24
    63ae:	81 81       	ldd	r24, Z+1	; 0x01
    63b0:	88 2f       	mov	r24, r24
    63b2:	90 e0       	ldi	r25, 0x00	; 0
    63b4:	84 70       	andi	r24, 0x04	; 4
    63b6:	99 27       	eor	r25, r25
    63b8:	89 2b       	or	r24, r25
    63ba:	11 f0       	breq	.+4      	; 0x63c0 <udd_ep_run+0x78>
    63bc:	80 e0       	ldi	r24, 0x00	; 0
    63be:	84 c0       	rjmp	.+264    	; 0x64c8 <udd_ep_run+0x180>
    63c0:	f5 dc       	rcall	.-1558   	; 0x5dac <cpu_irq_save>
    63c2:	8d 83       	std	Y+5, r24	; 0x05
    63c4:	89 81       	ldd	r24, Y+1	; 0x01
    63c6:	9a 81       	ldd	r25, Y+2	; 0x02
    63c8:	fc 01       	movw	r30, r24
    63ca:	80 81       	ld	r24, Z
    63cc:	81 70       	andi	r24, 0x01	; 1
    63ce:	88 23       	and	r24, r24
    63d0:	21 f0       	breq	.+8      	; 0x63da <udd_ep_run+0x92>
    63d2:	8d 81       	ldd	r24, Y+5	; 0x05
    63d4:	fb dc       	rcall	.-1546   	; 0x5dcc <cpu_irq_restore>
    63d6:	80 e0       	ldi	r24, 0x00	; 0
    63d8:	77 c0       	rjmp	.+238    	; 0x64c8 <udd_ep_run+0x180>
    63da:	89 81       	ldd	r24, Y+1	; 0x01
    63dc:	9a 81       	ldd	r25, Y+2	; 0x02
    63de:	fc 01       	movw	r30, r24
    63e0:	20 81       	ld	r18, Z
    63e2:	21 60       	ori	r18, 0x01	; 1
    63e4:	fc 01       	movw	r30, r24
    63e6:	20 83       	st	Z, r18
    63e8:	8d 81       	ldd	r24, Y+5	; 0x05
    63ea:	f0 dc       	rcall	.-1568   	; 0x5dcc <cpu_irq_restore>
    63ec:	89 81       	ldd	r24, Y+1	; 0x01
    63ee:	9a 81       	ldd	r25, Y+2	; 0x02
    63f0:	28 85       	ldd	r18, Y+8	; 0x08
    63f2:	39 85       	ldd	r19, Y+9	; 0x09
    63f4:	fc 01       	movw	r30, r24
    63f6:	21 83       	std	Z+1, r18	; 0x01
    63f8:	32 83       	std	Z+2, r19	; 0x02
    63fa:	89 81       	ldd	r24, Y+1	; 0x01
    63fc:	9a 81       	ldd	r25, Y+2	; 0x02
    63fe:	2a 85       	ldd	r18, Y+10	; 0x0a
    6400:	3b 85       	ldd	r19, Y+11	; 0x0b
    6402:	fc 01       	movw	r30, r24
    6404:	23 83       	std	Z+3, r18	; 0x03
    6406:	34 83       	std	Z+4, r19	; 0x04
    6408:	89 81       	ldd	r24, Y+1	; 0x01
    640a:	9a 81       	ldd	r25, Y+2	; 0x02
    640c:	fc 01       	movw	r30, r24
    640e:	15 82       	std	Z+5, r1	; 0x05
    6410:	16 82       	std	Z+6, r1	; 0x06
    6412:	89 81       	ldd	r24, Y+1	; 0x01
    6414:	9a 81       	ldd	r25, Y+2	; 0x02
    6416:	2c 85       	ldd	r18, Y+12	; 0x0c
    6418:	3d 85       	ldd	r19, Y+13	; 0x0d
    641a:	fc 01       	movw	r30, r24
    641c:	27 83       	std	Z+7, r18	; 0x07
    641e:	30 87       	std	Z+8, r19	; 0x08
    6420:	8f 81       	ldd	r24, Y+7	; 0x07
    6422:	88 23       	and	r24, r24
    6424:	21 f4       	brne	.+8      	; 0x642e <udd_ep_run+0xe6>
    6426:	8a 85       	ldd	r24, Y+10	; 0x0a
    6428:	9b 85       	ldd	r25, Y+11	; 0x0b
    642a:	89 2b       	or	r24, r25
    642c:	19 f4       	brne	.+6      	; 0x6434 <udd_ep_run+0xec>
    642e:	81 e0       	ldi	r24, 0x01	; 1
    6430:	90 e0       	ldi	r25, 0x00	; 0
    6432:	02 c0       	rjmp	.+4      	; 0x6438 <udd_ep_run+0xf0>
    6434:	80 e0       	ldi	r24, 0x00	; 0
    6436:	90 e0       	ldi	r25, 0x00	; 0
    6438:	28 2f       	mov	r18, r24
    643a:	21 70       	andi	r18, 0x01	; 1
    643c:	89 81       	ldd	r24, Y+1	; 0x01
    643e:	9a 81       	ldd	r25, Y+2	; 0x02
    6440:	21 70       	andi	r18, 0x01	; 1
    6442:	22 0f       	add	r18, r18
    6444:	fc 01       	movw	r30, r24
    6446:	30 81       	ld	r19, Z
    6448:	3d 7f       	andi	r19, 0xFD	; 253
    644a:	23 2b       	or	r18, r19
    644c:	fc 01       	movw	r30, r24
    644e:	20 83       	st	Z, r18
    6450:	89 81       	ldd	r24, Y+1	; 0x01
    6452:	9a 81       	ldd	r25, Y+2	; 0x02
    6454:	fc 01       	movw	r30, r24
    6456:	20 81       	ld	r18, Z
    6458:	2b 7f       	andi	r18, 0xFB	; 251
    645a:	fc 01       	movw	r30, r24
    645c:	20 83       	st	Z, r18
    645e:	8e 81       	ldd	r24, Y+6	; 0x06
    6460:	88 23       	and	r24, r24
    6462:	34 f4       	brge	.+12     	; 0x6470 <udd_ep_run+0x128>
    6464:	8b 81       	ldd	r24, Y+3	; 0x03
    6466:	9c 81       	ldd	r25, Y+4	; 0x04
    6468:	fc 01       	movw	r30, r24
    646a:	16 82       	std	Z+6, r1	; 0x06
    646c:	17 82       	std	Z+7, r1	; 0x07
    646e:	29 c0       	rjmp	.+82     	; 0x64c2 <udd_ep_run+0x17a>
    6470:	8b 81       	ldd	r24, Y+3	; 0x03
    6472:	9c 81       	ldd	r25, Y+4	; 0x04
    6474:	fc 01       	movw	r30, r24
    6476:	81 81       	ldd	r24, Z+1	; 0x01
    6478:	88 2f       	mov	r24, r24
    647a:	90 e0       	ldi	r25, 0x00	; 0
    647c:	80 7c       	andi	r24, 0xC0	; 192
    647e:	99 27       	eor	r25, r25
    6480:	80 3c       	cpi	r24, 0xC0	; 192
    6482:	91 05       	cpc	r25, r1
    6484:	a1 f4       	brne	.+40     	; 0x64ae <udd_ep_run+0x166>
    6486:	8b 81       	ldd	r24, Y+3	; 0x03
    6488:	9c 81       	ldd	r25, Y+4	; 0x04
    648a:	76 d5       	rcall	.+2796   	; 0x6f78 <udd_ep_get_size>
    648c:	9c 01       	movw	r18, r24
    648e:	8a 85       	ldd	r24, Y+10	; 0x0a
    6490:	9b 85       	ldd	r25, Y+11	; 0x0b
    6492:	b9 01       	movw	r22, r18
    6494:	0e 94 b6 3c 	call	0x796c	; 0x796c <__udivmodhi4>
    6498:	89 2b       	or	r24, r25
    649a:	49 f0       	breq	.+18     	; 0x64ae <udd_ep_run+0x166>
    649c:	89 81       	ldd	r24, Y+1	; 0x01
    649e:	9a 81       	ldd	r25, Y+2	; 0x02
    64a0:	fc 01       	movw	r30, r24
    64a2:	20 81       	ld	r18, Z
    64a4:	2e 7f       	andi	r18, 0xFE	; 254
    64a6:	fc 01       	movw	r30, r24
    64a8:	20 83       	st	Z, r18
    64aa:	80 e0       	ldi	r24, 0x00	; 0
    64ac:	0d c0       	rjmp	.+26     	; 0x64c8 <udd_ep_run+0x180>
    64ae:	8b 81       	ldd	r24, Y+3	; 0x03
    64b0:	9c 81       	ldd	r25, Y+4	; 0x04
    64b2:	fc 01       	movw	r30, r24
    64b4:	12 82       	std	Z+2, r1	; 0x02
    64b6:	13 82       	std	Z+3, r1	; 0x03
    64b8:	8b 81       	ldd	r24, Y+3	; 0x03
    64ba:	9c 81       	ldd	r25, Y+4	; 0x04
    64bc:	fc 01       	movw	r30, r24
    64be:	16 82       	std	Z+6, r1	; 0x06
    64c0:	17 82       	std	Z+7, r1	; 0x07
    64c2:	8e 81       	ldd	r24, Y+6	; 0x06
    64c4:	c0 d5       	rcall	.+2944   	; 0x7046 <udd_ep_trans_complet>
    64c6:	81 e0       	ldi	r24, 0x01	; 1
    64c8:	2d 96       	adiw	r28, 0x0d	; 13
    64ca:	cd bf       	out	0x3d, r28	; 61
    64cc:	de bf       	out	0x3e, r29	; 62
    64ce:	df 91       	pop	r29
    64d0:	cf 91       	pop	r28
    64d2:	1f 91       	pop	r17
    64d4:	0f 91       	pop	r16
    64d6:	08 95       	ret

000064d8 <udd_ep_abort>:
    64d8:	0f 93       	push	r16
    64da:	cf 93       	push	r28
    64dc:	df 93       	push	r29
    64de:	cd b7       	in	r28, 0x3d	; 61
    64e0:	de b7       	in	r29, 0x3e	; 62
    64e2:	25 97       	sbiw	r28, 0x05	; 5
    64e4:	cd bf       	out	0x3d, r28	; 61
    64e6:	de bf       	out	0x3e, r29	; 62
    64e8:	8d 83       	std	Y+5, r24	; 0x05
    64ea:	8d 81       	ldd	r24, Y+5	; 0x05
    64ec:	05 d2       	rcall	.+1034   	; 0x68f8 <udd_ep_get_ctrl>
    64ee:	89 83       	std	Y+1, r24	; 0x01
    64f0:	9a 83       	std	Y+2, r25	; 0x02
    64f2:	8d 81       	ldd	r24, Y+5	; 0x05
    64f4:	80 d5       	rcall	.+2816   	; 0x6ff6 <udd_ep_get_job>
    64f6:	8b 83       	std	Y+3, r24	; 0x03
    64f8:	9c 83       	std	Y+4, r25	; 0x04
    64fa:	89 81       	ldd	r24, Y+1	; 0x01
    64fc:	9a 81       	ldd	r25, Y+2	; 0x02
    64fe:	fc 01       	movw	r30, r24
    6500:	02 e0       	ldi	r16, 0x02	; 2
    6502:	05 93       	las	Z, r16
    6504:	8b 81       	ldd	r24, Y+3	; 0x03
    6506:	9c 81       	ldd	r25, Y+4	; 0x04
    6508:	fc 01       	movw	r30, r24
    650a:	80 81       	ld	r24, Z
    650c:	81 70       	andi	r24, 0x01	; 1
    650e:	88 23       	and	r24, r24
    6510:	39 f1       	breq	.+78     	; 0x6560 <udd_ep_abort+0x88>
    6512:	8b 81       	ldd	r24, Y+3	; 0x03
    6514:	9c 81       	ldd	r25, Y+4	; 0x04
    6516:	fc 01       	movw	r30, r24
    6518:	20 81       	ld	r18, Z
    651a:	2e 7f       	andi	r18, 0xFE	; 254
    651c:	fc 01       	movw	r30, r24
    651e:	20 83       	st	Z, r18
    6520:	8b 81       	ldd	r24, Y+3	; 0x03
    6522:	9c 81       	ldd	r25, Y+4	; 0x04
    6524:	fc 01       	movw	r30, r24
    6526:	87 81       	ldd	r24, Z+7	; 0x07
    6528:	90 85       	ldd	r25, Z+8	; 0x08
    652a:	89 2b       	or	r24, r25
    652c:	d1 f0       	breq	.+52     	; 0x6562 <udd_ep_abort+0x8a>
    652e:	8b 81       	ldd	r24, Y+3	; 0x03
    6530:	9c 81       	ldd	r25, Y+4	; 0x04
    6532:	fc 01       	movw	r30, r24
    6534:	27 81       	ldd	r18, Z+7	; 0x07
    6536:	30 85       	ldd	r19, Z+8	; 0x08
    6538:	8d 81       	ldd	r24, Y+5	; 0x05
    653a:	88 23       	and	r24, r24
    653c:	34 f4       	brge	.+12     	; 0x654a <udd_ep_abort+0x72>
    653e:	89 81       	ldd	r24, Y+1	; 0x01
    6540:	9a 81       	ldd	r25, Y+2	; 0x02
    6542:	fc 01       	movw	r30, r24
    6544:	86 81       	ldd	r24, Z+6	; 0x06
    6546:	97 81       	ldd	r25, Z+7	; 0x07
    6548:	05 c0       	rjmp	.+10     	; 0x6554 <udd_ep_abort+0x7c>
    654a:	89 81       	ldd	r24, Y+1	; 0x01
    654c:	9a 81       	ldd	r25, Y+2	; 0x02
    654e:	fc 01       	movw	r30, r24
    6550:	82 81       	ldd	r24, Z+2	; 0x02
    6552:	93 81       	ldd	r25, Z+3	; 0x03
    6554:	4d 81       	ldd	r20, Y+5	; 0x05
    6556:	bc 01       	movw	r22, r24
    6558:	81 e0       	ldi	r24, 0x01	; 1
    655a:	f9 01       	movw	r30, r18
    655c:	19 95       	eicall
    655e:	01 c0       	rjmp	.+2      	; 0x6562 <udd_ep_abort+0x8a>
    6560:	00 00       	nop
    6562:	25 96       	adiw	r28, 0x05	; 5
    6564:	cd bf       	out	0x3d, r28	; 61
    6566:	de bf       	out	0x3e, r29	; 62
    6568:	df 91       	pop	r29
    656a:	cf 91       	pop	r28
    656c:	0f 91       	pop	r16
    656e:	08 95       	ret

00006570 <__vector_125>:
    6570:	1f 92       	push	r1
    6572:	0f 92       	push	r0
    6574:	00 90 3f 00 	lds	r0, 0x003F	; 0x80003f <__TEXT_REGION_LENGTH__+0x70003f>
    6578:	0f 92       	push	r0
    657a:	11 24       	eor	r1, r1
    657c:	00 90 3b 00 	lds	r0, 0x003B	; 0x80003b <__TEXT_REGION_LENGTH__+0x70003b>
    6580:	0f 92       	push	r0
    6582:	2f 93       	push	r18
    6584:	3f 93       	push	r19
    6586:	4f 93       	push	r20
    6588:	5f 93       	push	r21
    658a:	6f 93       	push	r22
    658c:	7f 93       	push	r23
    658e:	8f 93       	push	r24
    6590:	9f 93       	push	r25
    6592:	af 93       	push	r26
    6594:	bf 93       	push	r27
    6596:	ef 93       	push	r30
    6598:	ff 93       	push	r31
    659a:	cf 93       	push	r28
    659c:	df 93       	push	r29
    659e:	1f 92       	push	r1
    65a0:	cd b7       	in	r28, 0x3d	; 61
    65a2:	de b7       	in	r29, 0x3e	; 62
    65a4:	8b ec       	ldi	r24, 0xCB	; 203
    65a6:	94 e0       	ldi	r25, 0x04	; 4
    65a8:	fc 01       	movw	r30, r24
    65aa:	80 81       	ld	r24, Z
    65ac:	88 23       	and	r24, r24
    65ae:	54 f4       	brge	.+20     	; 0x65c4 <__vector_125+0x54>
    65b0:	8a ec       	ldi	r24, 0xCA	; 202
    65b2:	94 e0       	ldi	r25, 0x04	; 4
    65b4:	20 e8       	ldi	r18, 0x80	; 128
    65b6:	fc 01       	movw	r30, r24
    65b8:	20 83       	st	Z, r18
    65ba:	0e 94 3a 2a 	call	0x5474	; 0x5474 <udc_sof_notify>
    65be:	0e 94 46 1e 	call	0x3c8c	; 0x3c8c <main_sof_action>
    65c2:	62 c0       	rjmp	.+196    	; 0x6688 <__vector_125+0x118>
    65c4:	6d d4       	rcall	.+2266   	; 0x6ea0 <udd_ctrl_interrupt_error>
    65c6:	88 23       	and	r24, r24
    65c8:	09 f0       	breq	.+2      	; 0x65cc <__vector_125+0x5c>
    65ca:	5d c0       	rjmp	.+186    	; 0x6686 <__vector_125+0x116>
    65cc:	8b ec       	ldi	r24, 0xCB	; 203
    65ce:	94 e0       	ldi	r25, 0x04	; 4
    65d0:	fc 01       	movw	r30, r24
    65d2:	80 81       	ld	r24, Z
    65d4:	88 2f       	mov	r24, r24
    65d6:	90 e0       	ldi	r25, 0x00	; 0
    65d8:	80 71       	andi	r24, 0x10	; 16
    65da:	99 27       	eor	r25, r25
    65dc:	89 2b       	or	r24, r25
    65de:	59 f1       	breq	.+86     	; 0x6636 <__vector_125+0xc6>
    65e0:	8a ec       	ldi	r24, 0xCA	; 202
    65e2:	94 e0       	ldi	r25, 0x04	; 4
    65e4:	20 e1       	ldi	r18, 0x10	; 16
    65e6:	fc 01       	movw	r30, r24
    65e8:	20 83       	st	Z, r18
    65ea:	81 e0       	ldi	r24, 0x01	; 1
    65ec:	89 83       	std	Y+1, r24	; 0x01
    65ee:	08 c0       	rjmp	.+16     	; 0x6600 <__vector_125+0x90>
    65f0:	89 81       	ldd	r24, Y+1	; 0x01
    65f2:	72 df       	rcall	.-284    	; 0x64d8 <udd_ep_abort>
    65f4:	89 81       	ldd	r24, Y+1	; 0x01
    65f6:	80 68       	ori	r24, 0x80	; 128
    65f8:	6f df       	rcall	.-290    	; 0x64d8 <udd_ep_abort>
    65fa:	89 81       	ldd	r24, Y+1	; 0x01
    65fc:	8f 5f       	subi	r24, 0xFF	; 255
    65fe:	89 83       	std	Y+1, r24	; 0x01
    6600:	89 81       	ldd	r24, Y+1	; 0x01
    6602:	82 30       	cpi	r24, 0x02	; 2
    6604:	a8 f3       	brcs	.-22     	; 0x65f0 <__vector_125+0x80>
    6606:	0e 94 11 2a 	call	0x5422	; 0x5422 <udc_reset>
    660a:	83 ec       	ldi	r24, 0xC3	; 195
    660c:	94 e0       	ldi	r25, 0x04	; 4
    660e:	fc 01       	movw	r30, r24
    6610:	10 82       	st	Z, r1
    6612:	40 e4       	ldi	r20, 0x40	; 64
    6614:	50 e0       	ldi	r21, 0x00	; 0
    6616:	60 e0       	ldi	r22, 0x00	; 0
    6618:	80 e0       	ldi	r24, 0x00	; 0
    661a:	f9 d0       	rcall	.+498    	; 0x680e <udd_ep_init>
    661c:	40 e4       	ldi	r20, 0x40	; 64
    661e:	50 e0       	ldi	r21, 0x00	; 0
    6620:	60 e0       	ldi	r22, 0x00	; 0
    6622:	80 e8       	ldi	r24, 0x80	; 128
    6624:	f4 d0       	rcall	.+488    	; 0x680e <udd_ep_init>
    6626:	85 e1       	ldi	r24, 0x15	; 21
    6628:	98 e2       	ldi	r25, 0x28	; 40
    662a:	80 93 e0 27 	sts	0x27E0, r24	; 0x8027e0 <udd_sram+0x10>
    662e:	90 93 e1 27 	sts	0x27E1, r25	; 0x8027e1 <udd_sram+0x11>
    6632:	85 d1       	rcall	.+778    	; 0x693e <udd_ctrl_init>
    6634:	29 c0       	rjmp	.+82     	; 0x6688 <__vector_125+0x118>
    6636:	8b ec       	ldi	r24, 0xCB	; 203
    6638:	94 e0       	ldi	r25, 0x04	; 4
    663a:	fc 01       	movw	r30, r24
    663c:	80 81       	ld	r24, Z
    663e:	88 2f       	mov	r24, r24
    6640:	90 e0       	ldi	r25, 0x00	; 0
    6642:	80 74       	andi	r24, 0x40	; 64
    6644:	99 27       	eor	r25, r25
    6646:	89 2b       	or	r24, r25
    6648:	51 f0       	breq	.+20     	; 0x665e <__vector_125+0xee>
    664a:	8a ec       	ldi	r24, 0xCA	; 202
    664c:	94 e0       	ldi	r25, 0x04	; 4
    664e:	20 e4       	ldi	r18, 0x40	; 64
    6650:	fc 01       	movw	r30, r24
    6652:	20 83       	st	Z, r18
    6654:	80 e0       	ldi	r24, 0x00	; 0
    6656:	43 dc       	rcall	.-1914   	; 0x5ede <udd_sleep_mode>
    6658:	0e 94 36 1e 	call	0x3c6c	; 0x3c6c <main_suspend_action>
    665c:	15 c0       	rjmp	.+42     	; 0x6688 <__vector_125+0x118>
    665e:	8b ec       	ldi	r24, 0xCB	; 203
    6660:	94 e0       	ldi	r25, 0x04	; 4
    6662:	fc 01       	movw	r30, r24
    6664:	80 81       	ld	r24, Z
    6666:	88 2f       	mov	r24, r24
    6668:	90 e0       	ldi	r25, 0x00	; 0
    666a:	80 72       	andi	r24, 0x20	; 32
    666c:	99 27       	eor	r25, r25
    666e:	89 2b       	or	r24, r25
    6670:	61 f0       	breq	.+24     	; 0x668a <__vector_125+0x11a>
    6672:	8a ec       	ldi	r24, 0xCA	; 202
    6674:	94 e0       	ldi	r25, 0x04	; 4
    6676:	20 e2       	ldi	r18, 0x20	; 32
    6678:	fc 01       	movw	r30, r24
    667a:	20 83       	st	Z, r18
    667c:	81 e0       	ldi	r24, 0x01	; 1
    667e:	2f dc       	rcall	.-1954   	; 0x5ede <udd_sleep_mode>
    6680:	0e 94 3e 1e 	call	0x3c7c	; 0x3c7c <main_resume_action>
    6684:	01 c0       	rjmp	.+2      	; 0x6688 <__vector_125+0x118>
    6686:	00 00       	nop
    6688:	00 00       	nop
    668a:	00 00       	nop
    668c:	0f 90       	pop	r0
    668e:	df 91       	pop	r29
    6690:	cf 91       	pop	r28
    6692:	ff 91       	pop	r31
    6694:	ef 91       	pop	r30
    6696:	bf 91       	pop	r27
    6698:	af 91       	pop	r26
    669a:	9f 91       	pop	r25
    669c:	8f 91       	pop	r24
    669e:	7f 91       	pop	r23
    66a0:	6f 91       	pop	r22
    66a2:	5f 91       	pop	r21
    66a4:	4f 91       	pop	r20
    66a6:	3f 91       	pop	r19
    66a8:	2f 91       	pop	r18
    66aa:	0f 90       	pop	r0
    66ac:	00 92 3b 00 	sts	0x003B, r0	; 0x80003b <__TEXT_REGION_LENGTH__+0x70003b>
    66b0:	0f 90       	pop	r0
    66b2:	00 92 3f 00 	sts	0x003F, r0	; 0x80003f <__TEXT_REGION_LENGTH__+0x70003f>
    66b6:	0f 90       	pop	r0
    66b8:	1f 90       	pop	r1
    66ba:	18 95       	reti

000066bc <__vector_126>:
    66bc:	1f 92       	push	r1
    66be:	0f 92       	push	r0
    66c0:	00 90 3f 00 	lds	r0, 0x003F	; 0x80003f <__TEXT_REGION_LENGTH__+0x70003f>
    66c4:	0f 92       	push	r0
    66c6:	11 24       	eor	r1, r1
    66c8:	00 90 3b 00 	lds	r0, 0x003B	; 0x80003b <__TEXT_REGION_LENGTH__+0x70003b>
    66cc:	0f 92       	push	r0
    66ce:	0f 93       	push	r16
    66d0:	2f 93       	push	r18
    66d2:	3f 93       	push	r19
    66d4:	4f 93       	push	r20
    66d6:	5f 93       	push	r21
    66d8:	6f 93       	push	r22
    66da:	7f 93       	push	r23
    66dc:	8f 93       	push	r24
    66de:	9f 93       	push	r25
    66e0:	af 93       	push	r26
    66e2:	bf 93       	push	r27
    66e4:	ef 93       	push	r30
    66e6:	ff 93       	push	r31
    66e8:	cf 93       	push	r28
    66ea:	df 93       	push	r29
    66ec:	cd b7       	in	r28, 0x3d	; 61
    66ee:	de b7       	in	r29, 0x3e	; 62
    66f0:	2a 97       	sbiw	r28, 0x0a	; 10
    66f2:	cd bf       	out	0x3d, r28	; 61
    66f4:	de bf       	out	0x3e, r29	; 62
    66f6:	8c ec       	ldi	r24, 0xCC	; 204
    66f8:	94 e0       	ldi	r25, 0x04	; 4
    66fa:	fc 01       	movw	r30, r24
    66fc:	80 81       	ld	r24, Z
    66fe:	88 2f       	mov	r24, r24
    6700:	90 e0       	ldi	r25, 0x00	; 0
    6702:	82 70       	andi	r24, 0x02	; 2
    6704:	99 27       	eor	r25, r25
    6706:	89 2b       	or	r24, r25
    6708:	21 f4       	brne	.+8      	; 0x6712 <__vector_126+0x56>
    670a:	06 d4       	rcall	.+2060   	; 0x6f18 <udd_ctrl_interrupt_tc_setup>
    670c:	88 23       	and	r24, r24
    670e:	09 f0       	breq	.+2      	; 0x6712 <__vector_126+0x56>
    6710:	5f c0       	rjmp	.+190    	; 0x67d0 <__vector_126+0x114>
    6712:	8c ec       	ldi	r24, 0xCC	; 204
    6714:	94 e0       	ldi	r25, 0x04	; 4
    6716:	22 e0       	ldi	r18, 0x02	; 2
    6718:	fc 01       	movw	r30, r24
    671a:	20 83       	st	Z, r18
    671c:	85 ec       	ldi	r24, 0xC5	; 197
    671e:	94 e0       	ldi	r25, 0x04	; 4
    6720:	fc 01       	movw	r30, r24
    6722:	80 81       	ld	r24, Z
    6724:	89 83       	std	Y+1, r24	; 0x01
    6726:	99 81       	ldd	r25, Y+1	; 0x01
    6728:	80 e0       	ldi	r24, 0x00	; 0
    672a:	89 1b       	sub	r24, r25
    672c:	88 0f       	add	r24, r24
    672e:	8a 83       	std	Y+2, r24	; 0x02
    6730:	2c ed       	ldi	r18, 0xDC	; 220
    6732:	37 e2       	ldi	r19, 0x27	; 39
    6734:	8a 81       	ldd	r24, Y+2	; 0x02
    6736:	88 2f       	mov	r24, r24
    6738:	90 e0       	ldi	r25, 0x00	; 0
    673a:	a9 01       	movw	r20, r18
    673c:	48 1b       	sub	r20, r24
    673e:	59 0b       	sbc	r21, r25
    6740:	ca 01       	movw	r24, r20
    6742:	8b 83       	std	Y+3, r24	; 0x03
    6744:	9c 83       	std	Y+4, r25	; 0x04
    6746:	8b 81       	ldd	r24, Y+3	; 0x03
    6748:	9c 81       	ldd	r25, Y+4	; 0x04
    674a:	8d 83       	std	Y+5, r24	; 0x05
    674c:	9e 83       	std	Y+6, r25	; 0x06
    674e:	8d 81       	ldd	r24, Y+5	; 0x05
    6750:	9e 81       	ldd	r25, Y+6	; 0x06
    6752:	fc 01       	movw	r30, r24
    6754:	20 81       	ld	r18, Z
    6756:	31 81       	ldd	r19, Z+1	; 0x01
    6758:	8c ed       	ldi	r24, 0xDC	; 220
    675a:	97 e2       	ldi	r25, 0x27	; 39
    675c:	a9 01       	movw	r20, r18
    675e:	48 1b       	sub	r20, r24
    6760:	59 0b       	sbc	r21, r25
    6762:	ca 01       	movw	r24, r20
    6764:	96 95       	lsr	r25
    6766:	87 95       	ror	r24
    6768:	96 95       	lsr	r25
    676a:	87 95       	ror	r24
    676c:	96 95       	lsr	r25
    676e:	87 95       	ror	r24
    6770:	8f 83       	std	Y+7, r24	; 0x07
    6772:	8f 81       	ldd	r24, Y+7	; 0x07
    6774:	28 2f       	mov	r18, r24
    6776:	26 95       	lsr	r18
    6778:	8f 81       	ldd	r24, Y+7	; 0x07
    677a:	88 2f       	mov	r24, r24
    677c:	90 e0       	ldi	r25, 0x00	; 0
    677e:	81 70       	andi	r24, 0x01	; 1
    6780:	99 27       	eor	r25, r25
    6782:	89 2b       	or	r24, r25
    6784:	11 f0       	breq	.+4      	; 0x678a <__vector_126+0xce>
    6786:	80 e8       	ldi	r24, 0x80	; 128
    6788:	01 c0       	rjmp	.+2      	; 0x678c <__vector_126+0xd0>
    678a:	80 e0       	ldi	r24, 0x00	; 0
    678c:	82 0f       	add	r24, r18
    678e:	88 87       	std	Y+8, r24	; 0x08
    6790:	88 85       	ldd	r24, Y+8	; 0x08
    6792:	b2 d0       	rcall	.+356    	; 0x68f8 <udd_ep_get_ctrl>
    6794:	89 87       	std	Y+9, r24	; 0x09
    6796:	9a 87       	std	Y+10, r25	; 0x0a
    6798:	89 85       	ldd	r24, Y+9	; 0x09
    679a:	9a 85       	ldd	r25, Y+10	; 0x0a
    679c:	fc 01       	movw	r30, r24
    679e:	80 81       	ld	r24, Z
    67a0:	88 2f       	mov	r24, r24
    67a2:	90 e0       	ldi	r25, 0x00	; 0
    67a4:	80 72       	andi	r24, 0x20	; 32
    67a6:	99 27       	eor	r25, r25
    67a8:	89 2b       	or	r24, r25
    67aa:	a9 f0       	breq	.+42     	; 0x67d6 <__vector_126+0x11a>
    67ac:	89 85       	ldd	r24, Y+9	; 0x09
    67ae:	9a 85       	ldd	r25, Y+10	; 0x0a
    67b0:	fc 01       	movw	r30, r24
    67b2:	00 e2       	ldi	r16, 0x20	; 32
    67b4:	06 93       	lac	Z, r16
    67b6:	88 85       	ldd	r24, Y+8	; 0x08
    67b8:	88 23       	and	r24, r24
    67ba:	11 f4       	brne	.+4      	; 0x67c0 <__vector_126+0x104>
    67bc:	08 d2       	rcall	.+1040   	; 0x6bce <udd_ctrl_out_received>
    67be:	09 c0       	rjmp	.+18     	; 0x67d2 <__vector_126+0x116>
    67c0:	88 85       	ldd	r24, Y+8	; 0x08
    67c2:	80 38       	cpi	r24, 0x80	; 128
    67c4:	11 f4       	brne	.+4      	; 0x67ca <__vector_126+0x10e>
    67c6:	6e d1       	rcall	.+732    	; 0x6aa4 <udd_ctrl_in_sent>
    67c8:	04 c0       	rjmp	.+8      	; 0x67d2 <__vector_126+0x116>
    67ca:	88 85       	ldd	r24, Y+8	; 0x08
    67cc:	3c d4       	rcall	.+2168   	; 0x7046 <udd_ep_trans_complet>
    67ce:	01 c0       	rjmp	.+2      	; 0x67d2 <__vector_126+0x116>
    67d0:	00 00       	nop
    67d2:	00 00       	nop
    67d4:	01 c0       	rjmp	.+2      	; 0x67d8 <__vector_126+0x11c>
    67d6:	00 00       	nop
    67d8:	2a 96       	adiw	r28, 0x0a	; 10
    67da:	cd bf       	out	0x3d, r28	; 61
    67dc:	de bf       	out	0x3e, r29	; 62
    67de:	df 91       	pop	r29
    67e0:	cf 91       	pop	r28
    67e2:	ff 91       	pop	r31
    67e4:	ef 91       	pop	r30
    67e6:	bf 91       	pop	r27
    67e8:	af 91       	pop	r26
    67ea:	9f 91       	pop	r25
    67ec:	8f 91       	pop	r24
    67ee:	7f 91       	pop	r23
    67f0:	6f 91       	pop	r22
    67f2:	5f 91       	pop	r21
    67f4:	4f 91       	pop	r20
    67f6:	3f 91       	pop	r19
    67f8:	2f 91       	pop	r18
    67fa:	0f 91       	pop	r16
    67fc:	0f 90       	pop	r0
    67fe:	00 92 3b 00 	sts	0x003B, r0	; 0x80003b <__TEXT_REGION_LENGTH__+0x70003b>
    6802:	0f 90       	pop	r0
    6804:	00 92 3f 00 	sts	0x003F, r0	; 0x80003f <__TEXT_REGION_LENGTH__+0x70003f>
    6808:	0f 90       	pop	r0
    680a:	1f 90       	pop	r1
    680c:	18 95       	reti

0000680e <udd_ep_init>:
    680e:	cf 93       	push	r28
    6810:	df 93       	push	r29
    6812:	cd b7       	in	r28, 0x3d	; 61
    6814:	de b7       	in	r29, 0x3e	; 62
    6816:	28 97       	sbiw	r28, 0x08	; 8
    6818:	cd bf       	out	0x3d, r28	; 61
    681a:	de bf       	out	0x3e, r29	; 62
    681c:	8d 83       	std	Y+5, r24	; 0x05
    681e:	6e 83       	std	Y+6, r22	; 0x06
    6820:	4f 83       	std	Y+7, r20	; 0x07
    6822:	58 87       	std	Y+8, r21	; 0x08
    6824:	8e 81       	ldd	r24, Y+6	; 0x06
    6826:	88 2f       	mov	r24, r24
    6828:	90 e0       	ldi	r25, 0x00	; 0
    682a:	83 70       	andi	r24, 0x03	; 3
    682c:	99 27       	eor	r25, r25
    682e:	81 30       	cpi	r24, 0x01	; 1
    6830:	91 05       	cpc	r25, r1
    6832:	61 f0       	breq	.+24     	; 0x684c <udd_ep_init+0x3e>
    6834:	82 30       	cpi	r24, 0x02	; 2
    6836:	91 05       	cpc	r25, r1
    6838:	1c f4       	brge	.+6      	; 0x6840 <udd_ep_init+0x32>
    683a:	89 2b       	or	r24, r25
    683c:	21 f0       	breq	.+8      	; 0x6846 <udd_ep_init+0x38>
    683e:	0c c0       	rjmp	.+24     	; 0x6858 <udd_ep_init+0x4a>
    6840:	04 97       	sbiw	r24, 0x04	; 4
    6842:	54 f4       	brge	.+20     	; 0x6858 <udd_ep_init+0x4a>
    6844:	06 c0       	rjmp	.+12     	; 0x6852 <udd_ep_init+0x44>
    6846:	80 e4       	ldi	r24, 0x40	; 64
    6848:	89 83       	std	Y+1, r24	; 0x01
    684a:	07 c0       	rjmp	.+14     	; 0x685a <udd_ep_init+0x4c>
    684c:	80 ec       	ldi	r24, 0xC0	; 192
    684e:	89 83       	std	Y+1, r24	; 0x01
    6850:	04 c0       	rjmp	.+8      	; 0x685a <udd_ep_init+0x4c>
    6852:	80 e8       	ldi	r24, 0x80	; 128
    6854:	89 83       	std	Y+1, r24	; 0x01
    6856:	01 c0       	rjmp	.+2      	; 0x685a <udd_ep_init+0x4c>
    6858:	00 00       	nop
    685a:	8f 81       	ldd	r24, Y+7	; 0x07
    685c:	98 85       	ldd	r25, Y+8	; 0x08
    685e:	80 38       	cpi	r24, 0x80	; 128
    6860:	91 05       	cpc	r25, r1
    6862:	11 f1       	breq	.+68     	; 0x68a8 <udd_ep_init+0x9a>
    6864:	81 38       	cpi	r24, 0x81	; 129
    6866:	91 05       	cpc	r25, r1
    6868:	48 f4       	brcc	.+18     	; 0x687c <udd_ep_init+0x6e>
    686a:	80 32       	cpi	r24, 0x20	; 32
    686c:	91 05       	cpc	r25, r1
    686e:	b1 f0       	breq	.+44     	; 0x689c <udd_ep_init+0x8e>
    6870:	80 34       	cpi	r24, 0x40	; 64
    6872:	91 05       	cpc	r25, r1
    6874:	b1 f0       	breq	.+44     	; 0x68a2 <udd_ep_init+0x94>
    6876:	40 97       	sbiw	r24, 0x10	; 16
    6878:	71 f0       	breq	.+28     	; 0x6896 <udd_ep_init+0x88>
    687a:	0b c0       	rjmp	.+22     	; 0x6892 <udd_ep_init+0x84>
    687c:	81 15       	cp	r24, r1
    687e:	22 e0       	ldi	r18, 0x02	; 2
    6880:	92 07       	cpc	r25, r18
    6882:	c1 f0       	breq	.+48     	; 0x68b4 <udd_ep_init+0xa6>
    6884:	8f 3f       	cpi	r24, 0xFF	; 255
    6886:	e3 e0       	ldi	r30, 0x03	; 3
    6888:	9e 07       	cpc	r25, r30
    688a:	b9 f0       	breq	.+46     	; 0x68ba <udd_ep_init+0xac>
    688c:	81 15       	cp	r24, r1
    688e:	91 40       	sbci	r25, 0x01	; 1
    6890:	71 f0       	breq	.+28     	; 0x68ae <udd_ep_init+0xa0>
    6892:	1a 82       	std	Y+2, r1	; 0x02
    6894:	15 c0       	rjmp	.+42     	; 0x68c0 <udd_ep_init+0xb2>
    6896:	81 e0       	ldi	r24, 0x01	; 1
    6898:	8a 83       	std	Y+2, r24	; 0x02
    689a:	12 c0       	rjmp	.+36     	; 0x68c0 <udd_ep_init+0xb2>
    689c:	82 e0       	ldi	r24, 0x02	; 2
    689e:	8a 83       	std	Y+2, r24	; 0x02
    68a0:	0f c0       	rjmp	.+30     	; 0x68c0 <udd_ep_init+0xb2>
    68a2:	83 e0       	ldi	r24, 0x03	; 3
    68a4:	8a 83       	std	Y+2, r24	; 0x02
    68a6:	0c c0       	rjmp	.+24     	; 0x68c0 <udd_ep_init+0xb2>
    68a8:	84 e0       	ldi	r24, 0x04	; 4
    68aa:	8a 83       	std	Y+2, r24	; 0x02
    68ac:	09 c0       	rjmp	.+18     	; 0x68c0 <udd_ep_init+0xb2>
    68ae:	85 e0       	ldi	r24, 0x05	; 5
    68b0:	8a 83       	std	Y+2, r24	; 0x02
    68b2:	06 c0       	rjmp	.+12     	; 0x68c0 <udd_ep_init+0xb2>
    68b4:	86 e0       	ldi	r24, 0x06	; 6
    68b6:	8a 83       	std	Y+2, r24	; 0x02
    68b8:	03 c0       	rjmp	.+6      	; 0x68c0 <udd_ep_init+0xb2>
    68ba:	87 e0       	ldi	r24, 0x07	; 7
    68bc:	8a 83       	std	Y+2, r24	; 0x02
    68be:	00 00       	nop
    68c0:	8d 81       	ldd	r24, Y+5	; 0x05
    68c2:	1a d0       	rcall	.+52     	; 0x68f8 <udd_ep_get_ctrl>
    68c4:	8b 83       	std	Y+3, r24	; 0x03
    68c6:	9c 83       	std	Y+4, r25	; 0x04
    68c8:	8b 81       	ldd	r24, Y+3	; 0x03
    68ca:	9c 81       	ldd	r25, Y+4	; 0x04
    68cc:	fc 01       	movw	r30, r24
    68ce:	11 82       	std	Z+1, r1	; 0x01
    68d0:	8b 81       	ldd	r24, Y+3	; 0x03
    68d2:	9c 81       	ldd	r25, Y+4	; 0x04
    68d4:	26 e0       	ldi	r18, 0x06	; 6
    68d6:	fc 01       	movw	r30, r24
    68d8:	20 83       	st	Z, r18
    68da:	99 81       	ldd	r25, Y+1	; 0x01
    68dc:	8a 81       	ldd	r24, Y+2	; 0x02
    68de:	29 2f       	mov	r18, r25
    68e0:	28 2b       	or	r18, r24
    68e2:	8b 81       	ldd	r24, Y+3	; 0x03
    68e4:	9c 81       	ldd	r25, Y+4	; 0x04
    68e6:	fc 01       	movw	r30, r24
    68e8:	21 83       	std	Z+1, r18	; 0x01
    68ea:	00 00       	nop
    68ec:	28 96       	adiw	r28, 0x08	; 8
    68ee:	cd bf       	out	0x3d, r28	; 61
    68f0:	de bf       	out	0x3e, r29	; 62
    68f2:	df 91       	pop	r29
    68f4:	cf 91       	pop	r28
    68f6:	08 95       	ret

000068f8 <udd_ep_get_ctrl>:
    68f8:	cf 93       	push	r28
    68fa:	df 93       	push	r29
    68fc:	1f 92       	push	r1
    68fe:	cd b7       	in	r28, 0x3d	; 61
    6900:	de b7       	in	r29, 0x3e	; 62
    6902:	89 83       	std	Y+1, r24	; 0x01
    6904:	89 81       	ldd	r24, Y+1	; 0x01
    6906:	88 2f       	mov	r24, r24
    6908:	90 e0       	ldi	r25, 0x00	; 0
    690a:	8f 70       	andi	r24, 0x0F	; 15
    690c:	99 27       	eor	r25, r25
    690e:	9c 01       	movw	r18, r24
    6910:	22 0f       	add	r18, r18
    6912:	33 1f       	adc	r19, r19
    6914:	89 81       	ldd	r24, Y+1	; 0x01
    6916:	88 1f       	adc	r24, r24
    6918:	88 27       	eor	r24, r24
    691a:	88 1f       	adc	r24, r24
    691c:	88 2f       	mov	r24, r24
    691e:	90 e0       	ldi	r25, 0x00	; 0
    6920:	82 0f       	add	r24, r18
    6922:	93 1f       	adc	r25, r19
    6924:	88 0f       	add	r24, r24
    6926:	99 1f       	adc	r25, r25
    6928:	88 0f       	add	r24, r24
    692a:	99 1f       	adc	r25, r25
    692c:	88 0f       	add	r24, r24
    692e:	99 1f       	adc	r25, r25
    6930:	0c 96       	adiw	r24, 0x0c	; 12
    6932:	80 53       	subi	r24, 0x30	; 48
    6934:	98 4d       	sbci	r25, 0xD8	; 216
    6936:	0f 90       	pop	r0
    6938:	df 91       	pop	r29
    693a:	cf 91       	pop	r28
    693c:	08 95       	ret

0000693e <udd_ctrl_init>:
    693e:	0f 93       	push	r16
    6940:	cf 93       	push	r28
    6942:	df 93       	push	r29
    6944:	cd b7       	in	r28, 0x3d	; 61
    6946:	de b7       	in	r29, 0x3e	; 62
    6948:	88 ec       	ldi	r24, 0xC8	; 200
    694a:	94 e0       	ldi	r25, 0x04	; 4
    694c:	28 ec       	ldi	r18, 0xC8	; 200
    694e:	34 e0       	ldi	r19, 0x04	; 4
    6950:	f9 01       	movw	r30, r18
    6952:	20 81       	ld	r18, Z
    6954:	2f 7d       	andi	r18, 0xDF	; 223
    6956:	fc 01       	movw	r30, r24
    6958:	20 83       	st	Z, r18
    695a:	88 ec       	ldi	r24, 0xC8	; 200
    695c:	94 e0       	ldi	r25, 0x04	; 4
    695e:	28 ec       	ldi	r18, 0xC8	; 200
    6960:	34 e0       	ldi	r19, 0x04	; 4
    6962:	f9 01       	movw	r30, r18
    6964:	20 81       	ld	r18, Z
    6966:	2f 7d       	andi	r18, 0xDF	; 223
    6968:	fc 01       	movw	r30, r24
    696a:	20 83       	st	Z, r18
    696c:	84 ee       	ldi	r24, 0xE4	; 228
    696e:	97 e2       	ldi	r25, 0x27	; 39
    6970:	fc 01       	movw	r30, r24
    6972:	02 e0       	ldi	r16, 0x02	; 2
    6974:	05 93       	las	Z, r16
    6976:	10 92 e6 27 	sts	0x27E6, r1	; 0x8027e6 <udd_sram+0x16>
    697a:	10 92 e7 27 	sts	0x27E7, r1	; 0x8027e7 <udd_sram+0x17>
    697e:	84 ee       	ldi	r24, 0xE4	; 228
    6980:	97 e2       	ldi	r25, 0x27	; 39
    6982:	fc 01       	movw	r30, r24
    6984:	00 e2       	ldi	r16, 0x20	; 32
    6986:	06 93       	lac	Z, r16
    6988:	84 ee       	ldi	r24, 0xE4	; 228
    698a:	97 e2       	ldi	r25, 0x27	; 39
    698c:	fc 01       	movw	r30, r24
    698e:	00 e4       	ldi	r16, 0x40	; 64
    6990:	06 93       	lac	Z, r16
    6992:	8c ed       	ldi	r24, 0xDC	; 220
    6994:	97 e2       	ldi	r25, 0x27	; 39
    6996:	fc 01       	movw	r30, r24
    6998:	00 e2       	ldi	r16, 0x20	; 32
    699a:	06 93       	lac	Z, r16
    699c:	8c ed       	ldi	r24, 0xDC	; 220
    699e:	97 e2       	ldi	r25, 0x27	; 39
    69a0:	fc 01       	movw	r30, r24
    69a2:	00 e4       	ldi	r16, 0x40	; 64
    69a4:	06 93       	lac	Z, r16
    69a6:	10 92 5e 29 	sts	0x295E, r1	; 0x80295e <udd_g_ctrlreq+0xc>
    69aa:	10 92 5f 29 	sts	0x295F, r1	; 0x80295f <udd_g_ctrlreq+0xd>
    69ae:	10 92 60 29 	sts	0x2960, r1	; 0x802960 <udd_g_ctrlreq+0xe>
    69b2:	10 92 61 29 	sts	0x2961, r1	; 0x802961 <udd_g_ctrlreq+0xf>
    69b6:	10 92 5c 29 	sts	0x295C, r1	; 0x80295c <udd_g_ctrlreq+0xa>
    69ba:	10 92 5d 29 	sts	0x295D, r1	; 0x80295d <udd_g_ctrlreq+0xb>
    69be:	10 92 10 28 	sts	0x2810, r1	; 0x802810 <udd_ep_control_state>
    69c2:	00 00       	nop
    69c4:	df 91       	pop	r29
    69c6:	cf 91       	pop	r28
    69c8:	0f 91       	pop	r16
    69ca:	08 95       	ret

000069cc <udd_ctrl_setup_received>:
    69cc:	0f 93       	push	r16
    69ce:	cf 93       	push	r28
    69d0:	df 93       	push	r29
    69d2:	cd b7       	in	r28, 0x3d	; 61
    69d4:	de b7       	in	r29, 0x3e	; 62
    69d6:	80 91 10 28 	lds	r24, 0x2810	; 0x802810 <udd_ep_control_state>
    69da:	88 23       	and	r24, r24
    69dc:	51 f0       	breq	.+20     	; 0x69f2 <udd_ctrl_setup_received+0x26>
    69de:	80 91 10 28 	lds	r24, 0x2810	; 0x802810 <udd_ep_control_state>
    69e2:	83 30       	cpi	r24, 0x03	; 3
    69e4:	21 f0       	breq	.+8      	; 0x69ee <udd_ctrl_setup_received+0x22>
    69e6:	80 91 10 28 	lds	r24, 0x2810	; 0x802810 <udd_ep_control_state>
    69ea:	84 30       	cpi	r24, 0x04	; 4
    69ec:	09 f4       	brne	.+2      	; 0x69f0 <udd_ctrl_setup_received+0x24>
    69ee:	44 d2       	rcall	.+1160   	; 0x6e78 <udd_ctrl_endofrequest>
    69f0:	a6 df       	rcall	.-180    	; 0x693e <udd_ctrl_init>
    69f2:	80 91 de 27 	lds	r24, 0x27DE	; 0x8027de <udd_sram+0xe>
    69f6:	90 91 df 27 	lds	r25, 0x27DF	; 0x8027df <udd_sram+0xf>
    69fa:	08 97       	sbiw	r24, 0x08	; 8
    69fc:	09 f0       	breq	.+2      	; 0x6a00 <udd_ctrl_setup_received+0x34>
    69fe:	4d c0       	rjmp	.+154    	; 0x6a9a <udd_ctrl_setup_received+0xce>
    6a00:	88 e0       	ldi	r24, 0x08	; 8
    6a02:	e5 e1       	ldi	r30, 0x15	; 21
    6a04:	f8 e2       	ldi	r31, 0x28	; 40
    6a06:	a2 e5       	ldi	r26, 0x52	; 82
    6a08:	b9 e2       	ldi	r27, 0x29	; 41
    6a0a:	01 90       	ld	r0, Z+
    6a0c:	0d 92       	st	X+, r0
    6a0e:	8a 95       	dec	r24
    6a10:	e1 f7       	brne	.-8      	; 0x6a0a <udd_ctrl_setup_received+0x3e>
    6a12:	88 ec       	ldi	r24, 0xC8	; 200
    6a14:	94 e0       	ldi	r25, 0x04	; 4
    6a16:	28 ec       	ldi	r18, 0xC8	; 200
    6a18:	34 e0       	ldi	r19, 0x04	; 4
    6a1a:	f9 01       	movw	r30, r18
    6a1c:	20 81       	ld	r18, Z
    6a1e:	20 62       	ori	r18, 0x20	; 32
    6a20:	fc 01       	movw	r30, r24
    6a22:	20 83       	st	Z, r18
    6a24:	88 ec       	ldi	r24, 0xC8	; 200
    6a26:	94 e0       	ldi	r25, 0x04	; 4
    6a28:	28 ec       	ldi	r18, 0xC8	; 200
    6a2a:	34 e0       	ldi	r19, 0x04	; 4
    6a2c:	f9 01       	movw	r30, r18
    6a2e:	20 81       	ld	r18, Z
    6a30:	20 62       	ori	r18, 0x20	; 32
    6a32:	fc 01       	movw	r30, r24
    6a34:	20 83       	st	Z, r18
    6a36:	73 d9       	rcall	.-3354   	; 0x5d1e <udc_process_setup>
    6a38:	98 2f       	mov	r25, r24
    6a3a:	81 e0       	ldi	r24, 0x01	; 1
    6a3c:	89 27       	eor	r24, r25
    6a3e:	88 23       	and	r24, r24
    6a40:	11 f0       	breq	.+4      	; 0x6a46 <udd_ctrl_setup_received+0x7a>
    6a42:	db d1       	rcall	.+950    	; 0x6dfa <udd_ctrl_stall_data>
    6a44:	2b c0       	rjmp	.+86     	; 0x6a9c <udd_ctrl_setup_received+0xd0>
    6a46:	80 91 52 29 	lds	r24, 0x2952	; 0x802952 <udd_g_ctrlreq>
    6a4a:	88 23       	and	r24, r24
    6a4c:	6c f4       	brge	.+26     	; 0x6a68 <udd_ctrl_setup_received+0x9c>
    6a4e:	10 92 11 28 	sts	0x2811, r1	; 0x802811 <udd_ctrl_prev_payload_nb_trans>
    6a52:	10 92 12 28 	sts	0x2812, r1	; 0x802812 <udd_ctrl_prev_payload_nb_trans+0x1>
    6a56:	10 92 13 28 	sts	0x2813, r1	; 0x802813 <udd_ctrl_payload_nb_trans>
    6a5a:	10 92 14 28 	sts	0x2814, r1	; 0x802814 <udd_ctrl_payload_nb_trans+0x1>
    6a5e:	82 e0       	ldi	r24, 0x02	; 2
    6a60:	80 93 10 28 	sts	0x2810, r24	; 0x802810 <udd_ep_control_state>
    6a64:	1f d0       	rcall	.+62     	; 0x6aa4 <udd_ctrl_in_sent>
    6a66:	1a c0       	rjmp	.+52     	; 0x6a9c <udd_ctrl_setup_received+0xd0>
    6a68:	80 91 58 29 	lds	r24, 0x2958	; 0x802958 <udd_g_ctrlreq+0x6>
    6a6c:	90 91 59 29 	lds	r25, 0x2959	; 0x802959 <udd_g_ctrlreq+0x7>
    6a70:	89 2b       	or	r24, r25
    6a72:	11 f4       	brne	.+4      	; 0x6a78 <udd_ctrl_setup_received+0xac>
    6a74:	d9 d1       	rcall	.+946    	; 0x6e28 <udd_ctrl_send_zlp_in>
    6a76:	12 c0       	rjmp	.+36     	; 0x6a9c <udd_ctrl_setup_received+0xd0>
    6a78:	10 92 11 28 	sts	0x2811, r1	; 0x802811 <udd_ctrl_prev_payload_nb_trans>
    6a7c:	10 92 12 28 	sts	0x2812, r1	; 0x802812 <udd_ctrl_prev_payload_nb_trans+0x1>
    6a80:	10 92 13 28 	sts	0x2813, r1	; 0x802813 <udd_ctrl_payload_nb_trans>
    6a84:	10 92 14 28 	sts	0x2814, r1	; 0x802814 <udd_ctrl_payload_nb_trans+0x1>
    6a88:	81 e0       	ldi	r24, 0x01	; 1
    6a8a:	80 93 10 28 	sts	0x2810, r24	; 0x802810 <udd_ep_control_state>
    6a8e:	8c ed       	ldi	r24, 0xDC	; 220
    6a90:	97 e2       	ldi	r25, 0x27	; 39
    6a92:	fc 01       	movw	r30, r24
    6a94:	02 e0       	ldi	r16, 0x02	; 2
    6a96:	06 93       	lac	Z, r16
    6a98:	01 c0       	rjmp	.+2      	; 0x6a9c <udd_ctrl_setup_received+0xd0>
    6a9a:	00 00       	nop
    6a9c:	df 91       	pop	r29
    6a9e:	cf 91       	pop	r28
    6aa0:	0f 91       	pop	r16
    6aa2:	08 95       	ret

00006aa4 <udd_ctrl_in_sent>:
    6aa4:	0f 93       	push	r16
    6aa6:	cf 93       	push	r28
    6aa8:	df 93       	push	r29
    6aaa:	1f 92       	push	r1
    6aac:	1f 92       	push	r1
    6aae:	cd b7       	in	r28, 0x3d	; 61
    6ab0:	de b7       	in	r29, 0x3e	; 62
    6ab2:	80 91 10 28 	lds	r24, 0x2810	; 0x802810 <udd_ep_control_state>
    6ab6:	83 30       	cpi	r24, 0x03	; 3
    6ab8:	19 f4       	brne	.+6      	; 0x6ac0 <udd_ctrl_in_sent+0x1c>
    6aba:	de d1       	rcall	.+956    	; 0x6e78 <udd_ctrl_endofrequest>
    6abc:	40 df       	rcall	.-384    	; 0x693e <udd_ctrl_init>
    6abe:	81 c0       	rjmp	.+258    	; 0x6bc2 <udd_ctrl_in_sent+0x11e>
    6ac0:	20 91 5c 29 	lds	r18, 0x295C	; 0x80295c <udd_g_ctrlreq+0xa>
    6ac4:	30 91 5d 29 	lds	r19, 0x295D	; 0x80295d <udd_g_ctrlreq+0xb>
    6ac8:	80 91 13 28 	lds	r24, 0x2813	; 0x802813 <udd_ctrl_payload_nb_trans>
    6acc:	90 91 14 28 	lds	r25, 0x2814	; 0x802814 <udd_ctrl_payload_nb_trans+0x1>
    6ad0:	a9 01       	movw	r20, r18
    6ad2:	48 1b       	sub	r20, r24
    6ad4:	59 0b       	sbc	r21, r25
    6ad6:	ca 01       	movw	r24, r20
    6ad8:	89 83       	std	Y+1, r24	; 0x01
    6ada:	9a 83       	std	Y+2, r25	; 0x02
    6adc:	89 81       	ldd	r24, Y+1	; 0x01
    6ade:	9a 81       	ldd	r25, Y+2	; 0x02
    6ae0:	89 2b       	or	r24, r25
    6ae2:	d1 f5       	brne	.+116    	; 0x6b58 <udd_ctrl_in_sent+0xb4>
    6ae4:	20 91 11 28 	lds	r18, 0x2811	; 0x802811 <udd_ctrl_prev_payload_nb_trans>
    6ae8:	30 91 12 28 	lds	r19, 0x2812	; 0x802812 <udd_ctrl_prev_payload_nb_trans+0x1>
    6aec:	80 91 13 28 	lds	r24, 0x2813	; 0x802813 <udd_ctrl_payload_nb_trans>
    6af0:	90 91 14 28 	lds	r25, 0x2814	; 0x802814 <udd_ctrl_payload_nb_trans+0x1>
    6af4:	82 0f       	add	r24, r18
    6af6:	93 1f       	adc	r25, r19
    6af8:	80 93 11 28 	sts	0x2811, r24	; 0x802811 <udd_ctrl_prev_payload_nb_trans>
    6afc:	90 93 12 28 	sts	0x2812, r25	; 0x802812 <udd_ctrl_prev_payload_nb_trans+0x1>
    6b00:	20 91 58 29 	lds	r18, 0x2958	; 0x802958 <udd_g_ctrlreq+0x6>
    6b04:	30 91 59 29 	lds	r19, 0x2959	; 0x802959 <udd_g_ctrlreq+0x7>
    6b08:	80 91 11 28 	lds	r24, 0x2811	; 0x802811 <udd_ctrl_prev_payload_nb_trans>
    6b0c:	90 91 12 28 	lds	r25, 0x2812	; 0x802812 <udd_ctrl_prev_payload_nb_trans+0x1>
    6b10:	28 17       	cp	r18, r24
    6b12:	39 07       	cpc	r19, r25
    6b14:	21 f0       	breq	.+8      	; 0x6b1e <udd_ctrl_in_sent+0x7a>
    6b16:	80 91 f9 28 	lds	r24, 0x28F9	; 0x8028f9 <b_shortpacket.5460>
    6b1a:	88 23       	and	r24, r24
    6b1c:	11 f0       	breq	.+4      	; 0x6b22 <udd_ctrl_in_sent+0x7e>
    6b1e:	9a d1       	rcall	.+820    	; 0x6e54 <udd_ctrl_send_zlp_out>
    6b20:	50 c0       	rjmp	.+160    	; 0x6bc2 <udd_ctrl_in_sent+0x11e>
    6b22:	80 91 60 29 	lds	r24, 0x2960	; 0x802960 <udd_g_ctrlreq+0xe>
    6b26:	90 91 61 29 	lds	r25, 0x2961	; 0x802961 <udd_g_ctrlreq+0xf>
    6b2a:	89 2b       	or	r24, r25
    6b2c:	a9 f0       	breq	.+42     	; 0x6b58 <udd_ctrl_in_sent+0xb4>
    6b2e:	80 91 60 29 	lds	r24, 0x2960	; 0x802960 <udd_g_ctrlreq+0xe>
    6b32:	90 91 61 29 	lds	r25, 0x2961	; 0x802961 <udd_g_ctrlreq+0xf>
    6b36:	fc 01       	movw	r30, r24
    6b38:	19 95       	eicall
    6b3a:	98 2f       	mov	r25, r24
    6b3c:	81 e0       	ldi	r24, 0x01	; 1
    6b3e:	89 27       	eor	r24, r25
    6b40:	88 23       	and	r24, r24
    6b42:	51 f4       	brne	.+20     	; 0x6b58 <udd_ctrl_in_sent+0xb4>
    6b44:	10 92 13 28 	sts	0x2813, r1	; 0x802813 <udd_ctrl_payload_nb_trans>
    6b48:	10 92 14 28 	sts	0x2814, r1	; 0x802814 <udd_ctrl_payload_nb_trans+0x1>
    6b4c:	80 91 5c 29 	lds	r24, 0x295C	; 0x80295c <udd_g_ctrlreq+0xa>
    6b50:	90 91 5d 29 	lds	r25, 0x295D	; 0x80295d <udd_g_ctrlreq+0xb>
    6b54:	89 83       	std	Y+1, r24	; 0x01
    6b56:	9a 83       	std	Y+2, r25	; 0x02
    6b58:	89 81       	ldd	r24, Y+1	; 0x01
    6b5a:	9a 81       	ldd	r25, Y+2	; 0x02
    6b5c:	80 34       	cpi	r24, 0x40	; 64
    6b5e:	91 05       	cpc	r25, r1
    6b60:	38 f0       	brcs	.+14     	; 0x6b70 <udd_ctrl_in_sent+0xcc>
    6b62:	80 e4       	ldi	r24, 0x40	; 64
    6b64:	90 e0       	ldi	r25, 0x00	; 0
    6b66:	89 83       	std	Y+1, r24	; 0x01
    6b68:	9a 83       	std	Y+2, r25	; 0x02
    6b6a:	10 92 f9 28 	sts	0x28F9, r1	; 0x8028f9 <b_shortpacket.5460>
    6b6e:	03 c0       	rjmp	.+6      	; 0x6b76 <udd_ctrl_in_sent+0xd2>
    6b70:	81 e0       	ldi	r24, 0x01	; 1
    6b72:	80 93 f9 28 	sts	0x28F9, r24	; 0x8028f9 <b_shortpacket.5460>
    6b76:	89 81       	ldd	r24, Y+1	; 0x01
    6b78:	9a 81       	ldd	r25, Y+2	; 0x02
    6b7a:	80 93 e6 27 	sts	0x27E6, r24	; 0x8027e6 <udd_sram+0x16>
    6b7e:	90 93 e7 27 	sts	0x27E7, r25	; 0x8027e7 <udd_sram+0x17>
    6b82:	80 91 5a 29 	lds	r24, 0x295A	; 0x80295a <udd_g_ctrlreq+0x8>
    6b86:	90 91 5b 29 	lds	r25, 0x295B	; 0x80295b <udd_g_ctrlreq+0x9>
    6b8a:	9c 01       	movw	r18, r24
    6b8c:	80 91 13 28 	lds	r24, 0x2813	; 0x802813 <udd_ctrl_payload_nb_trans>
    6b90:	90 91 14 28 	lds	r25, 0x2814	; 0x802814 <udd_ctrl_payload_nb_trans+0x1>
    6b94:	82 0f       	add	r24, r18
    6b96:	93 1f       	adc	r25, r19
    6b98:	80 93 e8 27 	sts	0x27E8, r24	; 0x8027e8 <udd_sram+0x18>
    6b9c:	90 93 e9 27 	sts	0x27E9, r25	; 0x8027e9 <udd_sram+0x19>
    6ba0:	20 91 13 28 	lds	r18, 0x2813	; 0x802813 <udd_ctrl_payload_nb_trans>
    6ba4:	30 91 14 28 	lds	r19, 0x2814	; 0x802814 <udd_ctrl_payload_nb_trans+0x1>
    6ba8:	89 81       	ldd	r24, Y+1	; 0x01
    6baa:	9a 81       	ldd	r25, Y+2	; 0x02
    6bac:	82 0f       	add	r24, r18
    6bae:	93 1f       	adc	r25, r19
    6bb0:	80 93 13 28 	sts	0x2813, r24	; 0x802813 <udd_ctrl_payload_nb_trans>
    6bb4:	90 93 14 28 	sts	0x2814, r25	; 0x802814 <udd_ctrl_payload_nb_trans+0x1>
    6bb8:	84 ee       	ldi	r24, 0xE4	; 228
    6bba:	97 e2       	ldi	r25, 0x27	; 39
    6bbc:	fc 01       	movw	r30, r24
    6bbe:	02 e0       	ldi	r16, 0x02	; 2
    6bc0:	06 93       	lac	Z, r16
    6bc2:	0f 90       	pop	r0
    6bc4:	0f 90       	pop	r0
    6bc6:	df 91       	pop	r29
    6bc8:	cf 91       	pop	r28
    6bca:	0f 91       	pop	r16
    6bcc:	08 95       	ret

00006bce <udd_ctrl_out_received>:
    6bce:	0f 93       	push	r16
    6bd0:	cf 93       	push	r28
    6bd2:	df 93       	push	r29
    6bd4:	1f 92       	push	r1
    6bd6:	1f 92       	push	r1
    6bd8:	cd b7       	in	r28, 0x3d	; 61
    6bda:	de b7       	in	r29, 0x3e	; 62
    6bdc:	80 91 10 28 	lds	r24, 0x2810	; 0x802810 <udd_ep_control_state>
    6be0:	84 30       	cpi	r24, 0x04	; 4
    6be2:	19 f4       	brne	.+6      	; 0x6bea <udd_ctrl_out_received+0x1c>
    6be4:	49 d1       	rcall	.+658    	; 0x6e78 <udd_ctrl_endofrequest>
    6be6:	ab de       	rcall	.-682    	; 0x693e <udd_ctrl_init>
    6be8:	aa c0       	rjmp	.+340    	; 0x6d3e <udd_ctrl_out_received+0x170>
    6bea:	80 91 de 27 	lds	r24, 0x27DE	; 0x8027de <udd_sram+0xe>
    6bee:	90 91 df 27 	lds	r25, 0x27DF	; 0x8027df <udd_sram+0xf>
    6bf2:	89 83       	std	Y+1, r24	; 0x01
    6bf4:	9a 83       	std	Y+2, r25	; 0x02
    6bf6:	20 91 5c 29 	lds	r18, 0x295C	; 0x80295c <udd_g_ctrlreq+0xa>
    6bfa:	30 91 5d 29 	lds	r19, 0x295D	; 0x80295d <udd_g_ctrlreq+0xb>
    6bfe:	40 91 13 28 	lds	r20, 0x2813	; 0x802813 <udd_ctrl_payload_nb_trans>
    6c02:	50 91 14 28 	lds	r21, 0x2814	; 0x802814 <udd_ctrl_payload_nb_trans+0x1>
    6c06:	89 81       	ldd	r24, Y+1	; 0x01
    6c08:	9a 81       	ldd	r25, Y+2	; 0x02
    6c0a:	84 0f       	add	r24, r20
    6c0c:	95 1f       	adc	r25, r21
    6c0e:	28 17       	cp	r18, r24
    6c10:	39 07       	cpc	r19, r25
    6c12:	70 f4       	brcc	.+28     	; 0x6c30 <udd_ctrl_out_received+0x62>
    6c14:	20 91 5c 29 	lds	r18, 0x295C	; 0x80295c <udd_g_ctrlreq+0xa>
    6c18:	30 91 5d 29 	lds	r19, 0x295D	; 0x80295d <udd_g_ctrlreq+0xb>
    6c1c:	80 91 13 28 	lds	r24, 0x2813	; 0x802813 <udd_ctrl_payload_nb_trans>
    6c20:	90 91 14 28 	lds	r25, 0x2814	; 0x802814 <udd_ctrl_payload_nb_trans+0x1>
    6c24:	a9 01       	movw	r20, r18
    6c26:	48 1b       	sub	r20, r24
    6c28:	59 0b       	sbc	r21, r25
    6c2a:	ca 01       	movw	r24, r20
    6c2c:	89 83       	std	Y+1, r24	; 0x01
    6c2e:	9a 83       	std	Y+2, r25	; 0x02
    6c30:	20 91 5a 29 	lds	r18, 0x295A	; 0x80295a <udd_g_ctrlreq+0x8>
    6c34:	30 91 5b 29 	lds	r19, 0x295B	; 0x80295b <udd_g_ctrlreq+0x9>
    6c38:	80 91 13 28 	lds	r24, 0x2813	; 0x802813 <udd_ctrl_payload_nb_trans>
    6c3c:	90 91 14 28 	lds	r25, 0x2814	; 0x802814 <udd_ctrl_payload_nb_trans+0x1>
    6c40:	82 0f       	add	r24, r18
    6c42:	93 1f       	adc	r25, r19
    6c44:	29 81       	ldd	r18, Y+1	; 0x01
    6c46:	3a 81       	ldd	r19, Y+2	; 0x02
    6c48:	a9 01       	movw	r20, r18
    6c4a:	65 e1       	ldi	r22, 0x15	; 21
    6c4c:	78 e2       	ldi	r23, 0x28	; 40
    6c4e:	0e 94 6b 3e 	call	0x7cd6	; 0x7cd6 <memcpy>
    6c52:	20 91 13 28 	lds	r18, 0x2813	; 0x802813 <udd_ctrl_payload_nb_trans>
    6c56:	30 91 14 28 	lds	r19, 0x2814	; 0x802814 <udd_ctrl_payload_nb_trans+0x1>
    6c5a:	89 81       	ldd	r24, Y+1	; 0x01
    6c5c:	9a 81       	ldd	r25, Y+2	; 0x02
    6c5e:	82 0f       	add	r24, r18
    6c60:	93 1f       	adc	r25, r19
    6c62:	80 93 13 28 	sts	0x2813, r24	; 0x802813 <udd_ctrl_payload_nb_trans>
    6c66:	90 93 14 28 	sts	0x2814, r25	; 0x802814 <udd_ctrl_payload_nb_trans+0x1>
    6c6a:	89 81       	ldd	r24, Y+1	; 0x01
    6c6c:	9a 81       	ldd	r25, Y+2	; 0x02
    6c6e:	80 34       	cpi	r24, 0x40	; 64
    6c70:	91 05       	cpc	r25, r1
    6c72:	89 f4       	brne	.+34     	; 0x6c96 <udd_ctrl_out_received+0xc8>
    6c74:	20 91 58 29 	lds	r18, 0x2958	; 0x802958 <udd_g_ctrlreq+0x6>
    6c78:	30 91 59 29 	lds	r19, 0x2959	; 0x802959 <udd_g_ctrlreq+0x7>
    6c7c:	40 91 11 28 	lds	r20, 0x2811	; 0x802811 <udd_ctrl_prev_payload_nb_trans>
    6c80:	50 91 12 28 	lds	r21, 0x2812	; 0x802812 <udd_ctrl_prev_payload_nb_trans+0x1>
    6c84:	80 91 13 28 	lds	r24, 0x2813	; 0x802813 <udd_ctrl_payload_nb_trans>
    6c88:	90 91 14 28 	lds	r25, 0x2814	; 0x802814 <udd_ctrl_payload_nb_trans+0x1>
    6c8c:	84 0f       	add	r24, r20
    6c8e:	95 1f       	adc	r25, r21
    6c90:	82 17       	cp	r24, r18
    6c92:	93 07       	cpc	r25, r19
    6c94:	e8 f0       	brcs	.+58     	; 0x6cd0 <udd_ctrl_out_received+0x102>
    6c96:	80 91 13 28 	lds	r24, 0x2813	; 0x802813 <udd_ctrl_payload_nb_trans>
    6c9a:	90 91 14 28 	lds	r25, 0x2814	; 0x802814 <udd_ctrl_payload_nb_trans+0x1>
    6c9e:	80 93 5c 29 	sts	0x295C, r24	; 0x80295c <udd_g_ctrlreq+0xa>
    6ca2:	90 93 5d 29 	sts	0x295D, r25	; 0x80295d <udd_g_ctrlreq+0xb>
    6ca6:	80 91 60 29 	lds	r24, 0x2960	; 0x802960 <udd_g_ctrlreq+0xe>
    6caa:	90 91 61 29 	lds	r25, 0x2961	; 0x802961 <udd_g_ctrlreq+0xf>
    6cae:	89 2b       	or	r24, r25
    6cb0:	69 f0       	breq	.+26     	; 0x6ccc <udd_ctrl_out_received+0xfe>
    6cb2:	80 91 60 29 	lds	r24, 0x2960	; 0x802960 <udd_g_ctrlreq+0xe>
    6cb6:	90 91 61 29 	lds	r25, 0x2961	; 0x802961 <udd_g_ctrlreq+0xf>
    6cba:	fc 01       	movw	r30, r24
    6cbc:	19 95       	eicall
    6cbe:	98 2f       	mov	r25, r24
    6cc0:	81 e0       	ldi	r24, 0x01	; 1
    6cc2:	89 27       	eor	r24, r25
    6cc4:	88 23       	and	r24, r24
    6cc6:	11 f0       	breq	.+4      	; 0x6ccc <udd_ctrl_out_received+0xfe>
    6cc8:	98 d0       	rcall	.+304    	; 0x6dfa <udd_ctrl_stall_data>
    6cca:	39 c0       	rjmp	.+114    	; 0x6d3e <udd_ctrl_out_received+0x170>
    6ccc:	ad d0       	rcall	.+346    	; 0x6e28 <udd_ctrl_send_zlp_in>
    6cce:	37 c0       	rjmp	.+110    	; 0x6d3e <udd_ctrl_out_received+0x170>
    6cd0:	20 91 5c 29 	lds	r18, 0x295C	; 0x80295c <udd_g_ctrlreq+0xa>
    6cd4:	30 91 5d 29 	lds	r19, 0x295D	; 0x80295d <udd_g_ctrlreq+0xb>
    6cd8:	80 91 13 28 	lds	r24, 0x2813	; 0x802813 <udd_ctrl_payload_nb_trans>
    6cdc:	90 91 14 28 	lds	r25, 0x2814	; 0x802814 <udd_ctrl_payload_nb_trans+0x1>
    6ce0:	28 17       	cp	r18, r24
    6ce2:	39 07       	cpc	r19, r25
    6ce4:	39 f5       	brne	.+78     	; 0x6d34 <udd_ctrl_out_received+0x166>
    6ce6:	80 91 60 29 	lds	r24, 0x2960	; 0x802960 <udd_g_ctrlreq+0xe>
    6cea:	90 91 61 29 	lds	r25, 0x2961	; 0x802961 <udd_g_ctrlreq+0xf>
    6cee:	89 2b       	or	r24, r25
    6cf0:	11 f4       	brne	.+4      	; 0x6cf6 <udd_ctrl_out_received+0x128>
    6cf2:	83 d0       	rcall	.+262    	; 0x6dfa <udd_ctrl_stall_data>
    6cf4:	24 c0       	rjmp	.+72     	; 0x6d3e <udd_ctrl_out_received+0x170>
    6cf6:	80 91 60 29 	lds	r24, 0x2960	; 0x802960 <udd_g_ctrlreq+0xe>
    6cfa:	90 91 61 29 	lds	r25, 0x2961	; 0x802961 <udd_g_ctrlreq+0xf>
    6cfe:	fc 01       	movw	r30, r24
    6d00:	19 95       	eicall
    6d02:	98 2f       	mov	r25, r24
    6d04:	81 e0       	ldi	r24, 0x01	; 1
    6d06:	89 27       	eor	r24, r25
    6d08:	88 23       	and	r24, r24
    6d0a:	11 f0       	breq	.+4      	; 0x6d10 <udd_ctrl_out_received+0x142>
    6d0c:	76 d0       	rcall	.+236    	; 0x6dfa <udd_ctrl_stall_data>
    6d0e:	17 c0       	rjmp	.+46     	; 0x6d3e <udd_ctrl_out_received+0x170>
    6d10:	20 91 11 28 	lds	r18, 0x2811	; 0x802811 <udd_ctrl_prev_payload_nb_trans>
    6d14:	30 91 12 28 	lds	r19, 0x2812	; 0x802812 <udd_ctrl_prev_payload_nb_trans+0x1>
    6d18:	80 91 13 28 	lds	r24, 0x2813	; 0x802813 <udd_ctrl_payload_nb_trans>
    6d1c:	90 91 14 28 	lds	r25, 0x2814	; 0x802814 <udd_ctrl_payload_nb_trans+0x1>
    6d20:	82 0f       	add	r24, r18
    6d22:	93 1f       	adc	r25, r19
    6d24:	80 93 11 28 	sts	0x2811, r24	; 0x802811 <udd_ctrl_prev_payload_nb_trans>
    6d28:	90 93 12 28 	sts	0x2812, r25	; 0x802812 <udd_ctrl_prev_payload_nb_trans+0x1>
    6d2c:	10 92 13 28 	sts	0x2813, r1	; 0x802813 <udd_ctrl_payload_nb_trans>
    6d30:	10 92 14 28 	sts	0x2814, r1	; 0x802814 <udd_ctrl_payload_nb_trans+0x1>
    6d34:	8c ed       	ldi	r24, 0xDC	; 220
    6d36:	97 e2       	ldi	r25, 0x27	; 39
    6d38:	fc 01       	movw	r30, r24
    6d3a:	02 e0       	ldi	r16, 0x02	; 2
    6d3c:	06 93       	lac	Z, r16
    6d3e:	0f 90       	pop	r0
    6d40:	0f 90       	pop	r0
    6d42:	df 91       	pop	r29
    6d44:	cf 91       	pop	r28
    6d46:	0f 91       	pop	r16
    6d48:	08 95       	ret

00006d4a <udd_ctrl_underflow>:
    6d4a:	0f 93       	push	r16
    6d4c:	cf 93       	push	r28
    6d4e:	df 93       	push	r29
    6d50:	cd b7       	in	r28, 0x3d	; 61
    6d52:	de b7       	in	r29, 0x3e	; 62
    6d54:	8c ec       	ldi	r24, 0xCC	; 204
    6d56:	94 e0       	ldi	r25, 0x04	; 4
    6d58:	fc 01       	movw	r30, r24
    6d5a:	80 81       	ld	r24, Z
    6d5c:	88 2f       	mov	r24, r24
    6d5e:	90 e0       	ldi	r25, 0x00	; 0
    6d60:	82 70       	andi	r24, 0x02	; 2
    6d62:	99 27       	eor	r25, r25
    6d64:	89 2b       	or	r24, r25
    6d66:	c1 f4       	brne	.+48     	; 0x6d98 <udd_ctrl_underflow+0x4e>
    6d68:	d7 d0       	rcall	.+430    	; 0x6f18 <udd_ctrl_interrupt_tc_setup>
    6d6a:	88 23       	and	r24, r24
    6d6c:	a9 f4       	brne	.+42     	; 0x6d98 <udd_ctrl_underflow+0x4e>
    6d6e:	80 91 10 28 	lds	r24, 0x2810	; 0x802810 <udd_ep_control_state>
    6d72:	81 30       	cpi	r24, 0x01	; 1
    6d74:	11 f4       	brne	.+4      	; 0x6d7a <udd_ctrl_underflow+0x30>
    6d76:	58 d0       	rcall	.+176    	; 0x6e28 <udd_ctrl_send_zlp_in>
    6d78:	10 c0       	rjmp	.+32     	; 0x6d9a <udd_ctrl_underflow+0x50>
    6d7a:	80 91 10 28 	lds	r24, 0x2810	; 0x802810 <udd_ep_control_state>
    6d7e:	84 30       	cpi	r24, 0x04	; 4
    6d80:	61 f4       	brne	.+24     	; 0x6d9a <udd_ctrl_underflow+0x50>
    6d82:	85 ee       	ldi	r24, 0xE5	; 229
    6d84:	97 e2       	ldi	r25, 0x27	; 39
    6d86:	fc 01       	movw	r30, r24
    6d88:	04 e0       	ldi	r16, 0x04	; 4
    6d8a:	05 93       	las	Z, r16
    6d8c:	8d ed       	ldi	r24, 0xDD	; 221
    6d8e:	97 e2       	ldi	r25, 0x27	; 39
    6d90:	fc 01       	movw	r30, r24
    6d92:	04 e0       	ldi	r16, 0x04	; 4
    6d94:	05 93       	las	Z, r16
    6d96:	01 c0       	rjmp	.+2      	; 0x6d9a <udd_ctrl_underflow+0x50>
    6d98:	00 00       	nop
    6d9a:	df 91       	pop	r29
    6d9c:	cf 91       	pop	r28
    6d9e:	0f 91       	pop	r16
    6da0:	08 95       	ret

00006da2 <udd_ctrl_overflow>:
    6da2:	0f 93       	push	r16
    6da4:	cf 93       	push	r28
    6da6:	df 93       	push	r29
    6da8:	cd b7       	in	r28, 0x3d	; 61
    6daa:	de b7       	in	r29, 0x3e	; 62
    6dac:	8c ec       	ldi	r24, 0xCC	; 204
    6dae:	94 e0       	ldi	r25, 0x04	; 4
    6db0:	fc 01       	movw	r30, r24
    6db2:	80 81       	ld	r24, Z
    6db4:	88 2f       	mov	r24, r24
    6db6:	90 e0       	ldi	r25, 0x00	; 0
    6db8:	82 70       	andi	r24, 0x02	; 2
    6dba:	99 27       	eor	r25, r25
    6dbc:	89 2b       	or	r24, r25
    6dbe:	c1 f4       	brne	.+48     	; 0x6df0 <udd_ctrl_overflow+0x4e>
    6dc0:	ab d0       	rcall	.+342    	; 0x6f18 <udd_ctrl_interrupt_tc_setup>
    6dc2:	88 23       	and	r24, r24
    6dc4:	a9 f4       	brne	.+42     	; 0x6df0 <udd_ctrl_overflow+0x4e>
    6dc6:	80 91 10 28 	lds	r24, 0x2810	; 0x802810 <udd_ep_control_state>
    6dca:	82 30       	cpi	r24, 0x02	; 2
    6dcc:	11 f4       	brne	.+4      	; 0x6dd2 <udd_ctrl_overflow+0x30>
    6dce:	42 d0       	rcall	.+132    	; 0x6e54 <udd_ctrl_send_zlp_out>
    6dd0:	10 c0       	rjmp	.+32     	; 0x6df2 <udd_ctrl_overflow+0x50>
    6dd2:	80 91 10 28 	lds	r24, 0x2810	; 0x802810 <udd_ep_control_state>
    6dd6:	83 30       	cpi	r24, 0x03	; 3
    6dd8:	61 f4       	brne	.+24     	; 0x6df2 <udd_ctrl_overflow+0x50>
    6dda:	85 ee       	ldi	r24, 0xE5	; 229
    6ddc:	97 e2       	ldi	r25, 0x27	; 39
    6dde:	fc 01       	movw	r30, r24
    6de0:	04 e0       	ldi	r16, 0x04	; 4
    6de2:	05 93       	las	Z, r16
    6de4:	8d ed       	ldi	r24, 0xDD	; 221
    6de6:	97 e2       	ldi	r25, 0x27	; 39
    6de8:	fc 01       	movw	r30, r24
    6dea:	04 e0       	ldi	r16, 0x04	; 4
    6dec:	05 93       	las	Z, r16
    6dee:	01 c0       	rjmp	.+2      	; 0x6df2 <udd_ctrl_overflow+0x50>
    6df0:	00 00       	nop
    6df2:	df 91       	pop	r29
    6df4:	cf 91       	pop	r28
    6df6:	0f 91       	pop	r16
    6df8:	08 95       	ret

00006dfa <udd_ctrl_stall_data>:
    6dfa:	0f 93       	push	r16
    6dfc:	cf 93       	push	r28
    6dfe:	df 93       	push	r29
    6e00:	cd b7       	in	r28, 0x3d	; 61
    6e02:	de b7       	in	r29, 0x3e	; 62
    6e04:	85 e0       	ldi	r24, 0x05	; 5
    6e06:	80 93 10 28 	sts	0x2810, r24	; 0x802810 <udd_ep_control_state>
    6e0a:	85 ee       	ldi	r24, 0xE5	; 229
    6e0c:	97 e2       	ldi	r25, 0x27	; 39
    6e0e:	fc 01       	movw	r30, r24
    6e10:	04 e0       	ldi	r16, 0x04	; 4
    6e12:	05 93       	las	Z, r16
    6e14:	8d ed       	ldi	r24, 0xDD	; 221
    6e16:	97 e2       	ldi	r25, 0x27	; 39
    6e18:	fc 01       	movw	r30, r24
    6e1a:	04 e0       	ldi	r16, 0x04	; 4
    6e1c:	05 93       	las	Z, r16
    6e1e:	00 00       	nop
    6e20:	df 91       	pop	r29
    6e22:	cf 91       	pop	r28
    6e24:	0f 91       	pop	r16
    6e26:	08 95       	ret

00006e28 <udd_ctrl_send_zlp_in>:
    6e28:	0f 93       	push	r16
    6e2a:	cf 93       	push	r28
    6e2c:	df 93       	push	r29
    6e2e:	cd b7       	in	r28, 0x3d	; 61
    6e30:	de b7       	in	r29, 0x3e	; 62
    6e32:	83 e0       	ldi	r24, 0x03	; 3
    6e34:	80 93 10 28 	sts	0x2810, r24	; 0x802810 <udd_ep_control_state>
    6e38:	10 92 e6 27 	sts	0x27E6, r1	; 0x8027e6 <udd_sram+0x16>
    6e3c:	10 92 e7 27 	sts	0x27E7, r1	; 0x8027e7 <udd_sram+0x17>
    6e40:	84 ee       	ldi	r24, 0xE4	; 228
    6e42:	97 e2       	ldi	r25, 0x27	; 39
    6e44:	fc 01       	movw	r30, r24
    6e46:	02 e0       	ldi	r16, 0x02	; 2
    6e48:	06 93       	lac	Z, r16
    6e4a:	00 00       	nop
    6e4c:	df 91       	pop	r29
    6e4e:	cf 91       	pop	r28
    6e50:	0f 91       	pop	r16
    6e52:	08 95       	ret

00006e54 <udd_ctrl_send_zlp_out>:
    6e54:	0f 93       	push	r16
    6e56:	cf 93       	push	r28
    6e58:	df 93       	push	r29
    6e5a:	cd b7       	in	r28, 0x3d	; 61
    6e5c:	de b7       	in	r29, 0x3e	; 62
    6e5e:	84 e0       	ldi	r24, 0x04	; 4
    6e60:	80 93 10 28 	sts	0x2810, r24	; 0x802810 <udd_ep_control_state>
    6e64:	8c ed       	ldi	r24, 0xDC	; 220
    6e66:	97 e2       	ldi	r25, 0x27	; 39
    6e68:	fc 01       	movw	r30, r24
    6e6a:	02 e0       	ldi	r16, 0x02	; 2
    6e6c:	06 93       	lac	Z, r16
    6e6e:	00 00       	nop
    6e70:	df 91       	pop	r29
    6e72:	cf 91       	pop	r28
    6e74:	0f 91       	pop	r16
    6e76:	08 95       	ret

00006e78 <udd_ctrl_endofrequest>:
    6e78:	cf 93       	push	r28
    6e7a:	df 93       	push	r29
    6e7c:	cd b7       	in	r28, 0x3d	; 61
    6e7e:	de b7       	in	r29, 0x3e	; 62
    6e80:	80 91 5e 29 	lds	r24, 0x295E	; 0x80295e <udd_g_ctrlreq+0xc>
    6e84:	90 91 5f 29 	lds	r25, 0x295F	; 0x80295f <udd_g_ctrlreq+0xd>
    6e88:	89 2b       	or	r24, r25
    6e8a:	31 f0       	breq	.+12     	; 0x6e98 <udd_ctrl_endofrequest+0x20>
    6e8c:	80 91 5e 29 	lds	r24, 0x295E	; 0x80295e <udd_g_ctrlreq+0xc>
    6e90:	90 91 5f 29 	lds	r25, 0x295F	; 0x80295f <udd_g_ctrlreq+0xd>
    6e94:	fc 01       	movw	r30, r24
    6e96:	19 95       	eicall
    6e98:	00 00       	nop
    6e9a:	df 91       	pop	r29
    6e9c:	cf 91       	pop	r28
    6e9e:	08 95       	ret

00006ea0 <udd_ctrl_interrupt_error>:
    6ea0:	cf 93       	push	r28
    6ea2:	df 93       	push	r29
    6ea4:	cd b7       	in	r28, 0x3d	; 61
    6ea6:	de b7       	in	r29, 0x3e	; 62
    6ea8:	8b ec       	ldi	r24, 0xCB	; 203
    6eaa:	94 e0       	ldi	r25, 0x04	; 4
    6eac:	fc 01       	movw	r30, r24
    6eae:	80 81       	ld	r24, Z
    6eb0:	88 2f       	mov	r24, r24
    6eb2:	90 e0       	ldi	r25, 0x00	; 0
    6eb4:	84 70       	andi	r24, 0x04	; 4
    6eb6:	99 27       	eor	r25, r25
    6eb8:	89 2b       	or	r24, r25
    6eba:	81 f0       	breq	.+32     	; 0x6edc <udd_ctrl_interrupt_error+0x3c>
    6ebc:	8a ec       	ldi	r24, 0xCA	; 202
    6ebe:	94 e0       	ldi	r25, 0x04	; 4
    6ec0:	24 e0       	ldi	r18, 0x04	; 4
    6ec2:	fc 01       	movw	r30, r24
    6ec4:	20 83       	st	Z, r18
    6ec6:	80 91 e4 27 	lds	r24, 0x27E4	; 0x8027e4 <udd_sram+0x14>
    6eca:	88 2f       	mov	r24, r24
    6ecc:	90 e0       	ldi	r25, 0x00	; 0
    6ece:	80 74       	andi	r24, 0x40	; 64
    6ed0:	99 27       	eor	r25, r25
    6ed2:	89 2b       	or	r24, r25
    6ed4:	09 f0       	breq	.+2      	; 0x6ed8 <udd_ctrl_interrupt_error+0x38>
    6ed6:	39 df       	rcall	.-398    	; 0x6d4a <udd_ctrl_underflow>
    6ed8:	81 e0       	ldi	r24, 0x01	; 1
    6eda:	1b c0       	rjmp	.+54     	; 0x6f12 <udd_ctrl_interrupt_error+0x72>
    6edc:	8b ec       	ldi	r24, 0xCB	; 203
    6ede:	94 e0       	ldi	r25, 0x04	; 4
    6ee0:	fc 01       	movw	r30, r24
    6ee2:	80 81       	ld	r24, Z
    6ee4:	88 2f       	mov	r24, r24
    6ee6:	90 e0       	ldi	r25, 0x00	; 0
    6ee8:	82 70       	andi	r24, 0x02	; 2
    6eea:	99 27       	eor	r25, r25
    6eec:	89 2b       	or	r24, r25
    6eee:	81 f0       	breq	.+32     	; 0x6f10 <udd_ctrl_interrupt_error+0x70>
    6ef0:	8a ec       	ldi	r24, 0xCA	; 202
    6ef2:	94 e0       	ldi	r25, 0x04	; 4
    6ef4:	22 e0       	ldi	r18, 0x02	; 2
    6ef6:	fc 01       	movw	r30, r24
    6ef8:	20 83       	st	Z, r18
    6efa:	80 91 dc 27 	lds	r24, 0x27DC	; 0x8027dc <udd_sram+0xc>
    6efe:	88 2f       	mov	r24, r24
    6f00:	90 e0       	ldi	r25, 0x00	; 0
    6f02:	80 74       	andi	r24, 0x40	; 64
    6f04:	99 27       	eor	r25, r25
    6f06:	89 2b       	or	r24, r25
    6f08:	09 f0       	breq	.+2      	; 0x6f0c <udd_ctrl_interrupt_error+0x6c>
    6f0a:	4b df       	rcall	.-362    	; 0x6da2 <udd_ctrl_overflow>
    6f0c:	81 e0       	ldi	r24, 0x01	; 1
    6f0e:	01 c0       	rjmp	.+2      	; 0x6f12 <udd_ctrl_interrupt_error+0x72>
    6f10:	80 e0       	ldi	r24, 0x00	; 0
    6f12:	df 91       	pop	r29
    6f14:	cf 91       	pop	r28
    6f16:	08 95       	ret

00006f18 <udd_ctrl_interrupt_tc_setup>:
    6f18:	0f 93       	push	r16
    6f1a:	cf 93       	push	r28
    6f1c:	df 93       	push	r29
    6f1e:	cd b7       	in	r28, 0x3d	; 61
    6f20:	de b7       	in	r29, 0x3e	; 62
    6f22:	8c ec       	ldi	r24, 0xCC	; 204
    6f24:	94 e0       	ldi	r25, 0x04	; 4
    6f26:	fc 01       	movw	r30, r24
    6f28:	80 81       	ld	r24, Z
    6f2a:	88 2f       	mov	r24, r24
    6f2c:	90 e0       	ldi	r25, 0x00	; 0
    6f2e:	81 70       	andi	r24, 0x01	; 1
    6f30:	99 27       	eor	r25, r25
    6f32:	89 2b       	or	r24, r25
    6f34:	11 f4       	brne	.+4      	; 0x6f3a <udd_ctrl_interrupt_tc_setup+0x22>
    6f36:	80 e0       	ldi	r24, 0x00	; 0
    6f38:	1b c0       	rjmp	.+54     	; 0x6f70 <udd_ctrl_interrupt_tc_setup+0x58>
    6f3a:	8c ec       	ldi	r24, 0xCC	; 204
    6f3c:	94 e0       	ldi	r25, 0x04	; 4
    6f3e:	21 e0       	ldi	r18, 0x01	; 1
    6f40:	fc 01       	movw	r30, r24
    6f42:	20 83       	st	Z, r18
    6f44:	8c ed       	ldi	r24, 0xDC	; 220
    6f46:	97 e2       	ldi	r25, 0x27	; 39
    6f48:	fc 01       	movw	r30, r24
    6f4a:	00 e8       	ldi	r16, 0x80	; 128
    6f4c:	06 93       	lac	Z, r16
    6f4e:	84 ee       	ldi	r24, 0xE4	; 228
    6f50:	97 e2       	ldi	r25, 0x27	; 39
    6f52:	fc 01       	movw	r30, r24
    6f54:	00 e8       	ldi	r16, 0x80	; 128
    6f56:	06 93       	lac	Z, r16
    6f58:	8a ec       	ldi	r24, 0xCA	; 202
    6f5a:	94 e0       	ldi	r25, 0x04	; 4
    6f5c:	21 e0       	ldi	r18, 0x01	; 1
    6f5e:	fc 01       	movw	r30, r24
    6f60:	20 83       	st	Z, r18
    6f62:	8c ed       	ldi	r24, 0xDC	; 220
    6f64:	97 e2       	ldi	r25, 0x27	; 39
    6f66:	fc 01       	movw	r30, r24
    6f68:	00 e1       	ldi	r16, 0x10	; 16
    6f6a:	06 93       	lac	Z, r16
    6f6c:	2f dd       	rcall	.-1442   	; 0x69cc <udd_ctrl_setup_received>
    6f6e:	81 e0       	ldi	r24, 0x01	; 1
    6f70:	df 91       	pop	r29
    6f72:	cf 91       	pop	r28
    6f74:	0f 91       	pop	r16
    6f76:	08 95       	ret

00006f78 <udd_ep_get_size>:
    6f78:	cf 93       	push	r28
    6f7a:	df 93       	push	r29
    6f7c:	1f 92       	push	r1
    6f7e:	1f 92       	push	r1
    6f80:	cd b7       	in	r28, 0x3d	; 61
    6f82:	de b7       	in	r29, 0x3e	; 62
    6f84:	89 83       	std	Y+1, r24	; 0x01
    6f86:	9a 83       	std	Y+2, r25	; 0x02
    6f88:	89 81       	ldd	r24, Y+1	; 0x01
    6f8a:	9a 81       	ldd	r25, Y+2	; 0x02
    6f8c:	fc 01       	movw	r30, r24
    6f8e:	81 81       	ldd	r24, Z+1	; 0x01
    6f90:	88 2f       	mov	r24, r24
    6f92:	90 e0       	ldi	r25, 0x00	; 0
    6f94:	87 70       	andi	r24, 0x07	; 7
    6f96:	99 27       	eor	r25, r25
    6f98:	09 2e       	mov	r0, r25
    6f9a:	00 0c       	add	r0, r0
    6f9c:	aa 0b       	sbc	r26, r26
    6f9e:	bb 0b       	sbc	r27, r27
    6fa0:	41 e0       	ldi	r20, 0x01	; 1
    6fa2:	50 e0       	ldi	r21, 0x00	; 0
    6fa4:	26 e0       	ldi	r18, 0x06	; 6
    6fa6:	30 e0       	ldi	r19, 0x00	; 0
    6fa8:	84 1b       	sub	r24, r20
    6faa:	95 0b       	sbc	r25, r21
    6fac:	28 17       	cp	r18, r24
    6fae:	39 07       	cpc	r19, r25
    6fb0:	30 f0       	brcs	.+12     	; 0x6fbe <udd_ep_get_size+0x46>
    6fb2:	fc 01       	movw	r30, r24
    6fb4:	88 27       	eor	r24, r24
    6fb6:	eb 5f       	subi	r30, 0xFB	; 251
    6fb8:	fe 4f       	sbci	r31, 0xFE	; 254
    6fba:	8f 4f       	sbci	r24, 0xFF	; 255
    6fbc:	0d c5       	rjmp	.+2586   	; 0x79d8 <__tablejump2__>
    6fbe:	88 e0       	ldi	r24, 0x08	; 8
    6fc0:	90 e0       	ldi	r25, 0x00	; 0
    6fc2:	14 c0       	rjmp	.+40     	; 0x6fec <udd_ep_get_size+0x74>
    6fc4:	80 e1       	ldi	r24, 0x10	; 16
    6fc6:	90 e0       	ldi	r25, 0x00	; 0
    6fc8:	11 c0       	rjmp	.+34     	; 0x6fec <udd_ep_get_size+0x74>
    6fca:	80 e2       	ldi	r24, 0x20	; 32
    6fcc:	90 e0       	ldi	r25, 0x00	; 0
    6fce:	0e c0       	rjmp	.+28     	; 0x6fec <udd_ep_get_size+0x74>
    6fd0:	80 e4       	ldi	r24, 0x40	; 64
    6fd2:	90 e0       	ldi	r25, 0x00	; 0
    6fd4:	0b c0       	rjmp	.+22     	; 0x6fec <udd_ep_get_size+0x74>
    6fd6:	80 e8       	ldi	r24, 0x80	; 128
    6fd8:	90 e0       	ldi	r25, 0x00	; 0
    6fda:	08 c0       	rjmp	.+16     	; 0x6fec <udd_ep_get_size+0x74>
    6fdc:	80 e0       	ldi	r24, 0x00	; 0
    6fde:	91 e0       	ldi	r25, 0x01	; 1
    6fe0:	05 c0       	rjmp	.+10     	; 0x6fec <udd_ep_get_size+0x74>
    6fe2:	80 e0       	ldi	r24, 0x00	; 0
    6fe4:	92 e0       	ldi	r25, 0x02	; 2
    6fe6:	02 c0       	rjmp	.+4      	; 0x6fec <udd_ep_get_size+0x74>
    6fe8:	8f ef       	ldi	r24, 0xFF	; 255
    6fea:	93 e0       	ldi	r25, 0x03	; 3
    6fec:	0f 90       	pop	r0
    6fee:	0f 90       	pop	r0
    6ff0:	df 91       	pop	r29
    6ff2:	cf 91       	pop	r28
    6ff4:	08 95       	ret

00006ff6 <udd_ep_get_job>:
    6ff6:	cf 93       	push	r28
    6ff8:	df 93       	push	r29
    6ffa:	1f 92       	push	r1
    6ffc:	cd b7       	in	r28, 0x3d	; 61
    6ffe:	de b7       	in	r29, 0x3e	; 62
    7000:	89 83       	std	Y+1, r24	; 0x01
    7002:	89 81       	ldd	r24, Y+1	; 0x01
    7004:	88 2f       	mov	r24, r24
    7006:	90 e0       	ldi	r25, 0x00	; 0
    7008:	8f 70       	andi	r24, 0x0F	; 15
    700a:	99 27       	eor	r25, r25
    700c:	9c 01       	movw	r18, r24
    700e:	22 0f       	add	r18, r18
    7010:	33 1f       	adc	r19, r19
    7012:	89 81       	ldd	r24, Y+1	; 0x01
    7014:	88 1f       	adc	r24, r24
    7016:	88 27       	eor	r24, r24
    7018:	88 1f       	adc	r24, r24
    701a:	88 2f       	mov	r24, r24
    701c:	90 e0       	ldi	r25, 0x00	; 0
    701e:	82 0f       	add	r24, r18
    7020:	93 1f       	adc	r25, r19
    7022:	9c 01       	movw	r18, r24
    7024:	22 50       	subi	r18, 0x02	; 2
    7026:	31 09       	sbc	r19, r1
    7028:	c9 01       	movw	r24, r18
    702a:	88 0f       	add	r24, r24
    702c:	99 1f       	adc	r25, r25
    702e:	88 0f       	add	r24, r24
    7030:	99 1f       	adc	r25, r25
    7032:	88 0f       	add	r24, r24
    7034:	99 1f       	adc	r25, r25
    7036:	82 0f       	add	r24, r18
    7038:	93 1f       	adc	r25, r19
    703a:	8b 5a       	subi	r24, 0xAB	; 171
    703c:	97 4d       	sbci	r25, 0xD7	; 215
    703e:	0f 90       	pop	r0
    7040:	df 91       	pop	r29
    7042:	cf 91       	pop	r28
    7044:	08 95       	ret

00007046 <udd_ep_trans_complet>:
    7046:	0f 93       	push	r16
    7048:	cf 93       	push	r28
    704a:	df 93       	push	r29
    704c:	cd b7       	in	r28, 0x3d	; 61
    704e:	de b7       	in	r29, 0x3e	; 62
    7050:	2b 97       	sbiw	r28, 0x0b	; 11
    7052:	cd bf       	out	0x3d, r28	; 61
    7054:	de bf       	out	0x3e, r29	; 62
    7056:	8b 87       	std	Y+11, r24	; 0x0b
    7058:	8b 85       	ldd	r24, Y+11	; 0x0b
    705a:	cd df       	rcall	.-102    	; 0x6ff6 <udd_ep_get_job>
    705c:	8b 83       	std	Y+3, r24	; 0x03
    705e:	9c 83       	std	Y+4, r25	; 0x04
    7060:	8b 85       	ldd	r24, Y+11	; 0x0b
    7062:	4a dc       	rcall	.-1900   	; 0x68f8 <udd_ep_get_ctrl>
    7064:	8d 83       	std	Y+5, r24	; 0x05
    7066:	9e 83       	std	Y+6, r25	; 0x06
    7068:	8d 81       	ldd	r24, Y+5	; 0x05
    706a:	9e 81       	ldd	r25, Y+6	; 0x06
    706c:	85 df       	rcall	.-246    	; 0x6f78 <udd_ep_get_size>
    706e:	8f 83       	std	Y+7, r24	; 0x07
    7070:	98 87       	std	Y+8, r25	; 0x08
    7072:	8b 85       	ldd	r24, Y+11	; 0x0b
    7074:	88 23       	and	r24, r24
    7076:	0c f0       	brlt	.+2      	; 0x707a <udd_ep_trans_complet+0x34>
    7078:	a8 c0       	rjmp	.+336    	; 0x71ca <udd_ep_trans_complet+0x184>
    707a:	8d 81       	ldd	r24, Y+5	; 0x05
    707c:	9e 81       	ldd	r25, Y+6	; 0x06
    707e:	fc 01       	movw	r30, r24
    7080:	86 81       	ldd	r24, Z+6	; 0x06
    7082:	97 81       	ldd	r25, Z+7	; 0x07
    7084:	89 87       	std	Y+9, r24	; 0x09
    7086:	9a 87       	std	Y+10, r25	; 0x0a
    7088:	8b 81       	ldd	r24, Y+3	; 0x03
    708a:	9c 81       	ldd	r25, Y+4	; 0x04
    708c:	fc 01       	movw	r30, r24
    708e:	25 81       	ldd	r18, Z+5	; 0x05
    7090:	36 81       	ldd	r19, Z+6	; 0x06
    7092:	89 85       	ldd	r24, Y+9	; 0x09
    7094:	9a 85       	ldd	r25, Y+10	; 0x0a
    7096:	28 0f       	add	r18, r24
    7098:	39 1f       	adc	r19, r25
    709a:	8b 81       	ldd	r24, Y+3	; 0x03
    709c:	9c 81       	ldd	r25, Y+4	; 0x04
    709e:	fc 01       	movw	r30, r24
    70a0:	25 83       	std	Z+5, r18	; 0x05
    70a2:	36 83       	std	Z+6, r19	; 0x06
    70a4:	8b 81       	ldd	r24, Y+3	; 0x03
    70a6:	9c 81       	ldd	r25, Y+4	; 0x04
    70a8:	fc 01       	movw	r30, r24
    70aa:	25 81       	ldd	r18, Z+5	; 0x05
    70ac:	36 81       	ldd	r19, Z+6	; 0x06
    70ae:	8b 81       	ldd	r24, Y+3	; 0x03
    70b0:	9c 81       	ldd	r25, Y+4	; 0x04
    70b2:	fc 01       	movw	r30, r24
    70b4:	83 81       	ldd	r24, Z+3	; 0x03
    70b6:	94 81       	ldd	r25, Z+4	; 0x04
    70b8:	28 17       	cp	r18, r24
    70ba:	39 07       	cpc	r19, r25
    70bc:	09 f4       	brne	.+2      	; 0x70c0 <udd_ep_trans_complet+0x7a>
    70be:	66 c0       	rjmp	.+204    	; 0x718c <udd_ep_trans_complet+0x146>
    70c0:	8b 81       	ldd	r24, Y+3	; 0x03
    70c2:	9c 81       	ldd	r25, Y+4	; 0x04
    70c4:	fc 01       	movw	r30, r24
    70c6:	23 81       	ldd	r18, Z+3	; 0x03
    70c8:	34 81       	ldd	r19, Z+4	; 0x04
    70ca:	8b 81       	ldd	r24, Y+3	; 0x03
    70cc:	9c 81       	ldd	r25, Y+4	; 0x04
    70ce:	fc 01       	movw	r30, r24
    70d0:	85 81       	ldd	r24, Z+5	; 0x05
    70d2:	96 81       	ldd	r25, Z+6	; 0x06
    70d4:	a9 01       	movw	r20, r18
    70d6:	48 1b       	sub	r20, r24
    70d8:	59 0b       	sbc	r21, r25
    70da:	ca 01       	movw	r24, r20
    70dc:	89 83       	std	Y+1, r24	; 0x01
    70de:	9a 83       	std	Y+2, r25	; 0x02
    70e0:	89 81       	ldd	r24, Y+1	; 0x01
    70e2:	9a 81       	ldd	r25, Y+2	; 0x02
    70e4:	81 15       	cp	r24, r1
    70e6:	94 40       	sbci	r25, 0x04	; 4
    70e8:	68 f0       	brcs	.+26     	; 0x7104 <udd_ep_trans_complet+0xbe>
    70ea:	8f ef       	ldi	r24, 0xFF	; 255
    70ec:	93 e0       	ldi	r25, 0x03	; 3
    70ee:	2f 81       	ldd	r18, Y+7	; 0x07
    70f0:	38 85       	ldd	r19, Y+8	; 0x08
    70f2:	b9 01       	movw	r22, r18
    70f4:	3b d4       	rcall	.+2166   	; 0x796c <__udivmodhi4>
    70f6:	9c 01       	movw	r18, r24
    70f8:	8f ef       	ldi	r24, 0xFF	; 255
    70fa:	93 e0       	ldi	r25, 0x03	; 3
    70fc:	82 1b       	sub	r24, r18
    70fe:	93 0b       	sbc	r25, r19
    7100:	89 83       	std	Y+1, r24	; 0x01
    7102:	9a 83       	std	Y+2, r25	; 0x02
    7104:	8b 81       	ldd	r24, Y+3	; 0x03
    7106:	9c 81       	ldd	r25, Y+4	; 0x04
    7108:	fc 01       	movw	r30, r24
    710a:	80 81       	ld	r24, Z
    710c:	82 70       	andi	r24, 0x02	; 2
    710e:	88 23       	and	r24, r24
    7110:	59 f0       	breq	.+22     	; 0x7128 <udd_ep_trans_complet+0xe2>
    7112:	89 81       	ldd	r24, Y+1	; 0x01
    7114:	9a 81       	ldd	r25, Y+2	; 0x02
    7116:	2f 81       	ldd	r18, Y+7	; 0x07
    7118:	38 85       	ldd	r19, Y+8	; 0x08
    711a:	b9 01       	movw	r22, r18
    711c:	27 d4       	rcall	.+2126   	; 0x796c <__udivmodhi4>
    711e:	89 2b       	or	r24, r25
    7120:	19 f4       	brne	.+6      	; 0x7128 <udd_ep_trans_complet+0xe2>
    7122:	81 e0       	ldi	r24, 0x01	; 1
    7124:	90 e0       	ldi	r25, 0x00	; 0
    7126:	02 c0       	rjmp	.+4      	; 0x712c <udd_ep_trans_complet+0xe6>
    7128:	80 e0       	ldi	r24, 0x00	; 0
    712a:	90 e0       	ldi	r25, 0x00	; 0
    712c:	28 2f       	mov	r18, r24
    712e:	21 70       	andi	r18, 0x01	; 1
    7130:	8b 81       	ldd	r24, Y+3	; 0x03
    7132:	9c 81       	ldd	r25, Y+4	; 0x04
    7134:	21 70       	andi	r18, 0x01	; 1
    7136:	22 0f       	add	r18, r18
    7138:	fc 01       	movw	r30, r24
    713a:	30 81       	ld	r19, Z
    713c:	3d 7f       	andi	r19, 0xFD	; 253
    713e:	23 2b       	or	r18, r19
    7140:	fc 01       	movw	r30, r24
    7142:	20 83       	st	Z, r18
    7144:	8d 81       	ldd	r24, Y+5	; 0x05
    7146:	9e 81       	ldd	r25, Y+6	; 0x06
    7148:	fc 01       	movw	r30, r24
    714a:	16 82       	std	Z+6, r1	; 0x06
    714c:	17 82       	std	Z+7, r1	; 0x07
    714e:	8d 81       	ldd	r24, Y+5	; 0x05
    7150:	9e 81       	ldd	r25, Y+6	; 0x06
    7152:	29 81       	ldd	r18, Y+1	; 0x01
    7154:	3a 81       	ldd	r19, Y+2	; 0x02
    7156:	fc 01       	movw	r30, r24
    7158:	22 83       	std	Z+2, r18	; 0x02
    715a:	33 83       	std	Z+3, r19	; 0x03
    715c:	8b 81       	ldd	r24, Y+3	; 0x03
    715e:	9c 81       	ldd	r25, Y+4	; 0x04
    7160:	fc 01       	movw	r30, r24
    7162:	21 81       	ldd	r18, Z+1	; 0x01
    7164:	32 81       	ldd	r19, Z+2	; 0x02
    7166:	8b 81       	ldd	r24, Y+3	; 0x03
    7168:	9c 81       	ldd	r25, Y+4	; 0x04
    716a:	fc 01       	movw	r30, r24
    716c:	85 81       	ldd	r24, Z+5	; 0x05
    716e:	96 81       	ldd	r25, Z+6	; 0x06
    7170:	82 0f       	add	r24, r18
    7172:	93 1f       	adc	r25, r19
    7174:	9c 01       	movw	r18, r24
    7176:	8d 81       	ldd	r24, Y+5	; 0x05
    7178:	9e 81       	ldd	r25, Y+6	; 0x06
    717a:	fc 01       	movw	r30, r24
    717c:	24 83       	std	Z+4, r18	; 0x04
    717e:	35 83       	std	Z+5, r19	; 0x05
    7180:	8d 81       	ldd	r24, Y+5	; 0x05
    7182:	9e 81       	ldd	r25, Y+6	; 0x06
    7184:	fc 01       	movw	r30, r24
    7186:	02 e0       	ldi	r16, 0x02	; 2
    7188:	06 93       	lac	Z, r16
    718a:	37 c1       	rjmp	.+622    	; 0x73fa <udd_ep_trans_complet+0x3b4>
    718c:	8b 81       	ldd	r24, Y+3	; 0x03
    718e:	9c 81       	ldd	r25, Y+4	; 0x04
    7190:	fc 01       	movw	r30, r24
    7192:	80 81       	ld	r24, Z
    7194:	82 70       	andi	r24, 0x02	; 2
    7196:	88 23       	and	r24, r24
    7198:	09 f4       	brne	.+2      	; 0x719c <udd_ep_trans_complet+0x156>
    719a:	09 c1       	rjmp	.+530    	; 0x73ae <udd_ep_trans_complet+0x368>
    719c:	8b 81       	ldd	r24, Y+3	; 0x03
    719e:	9c 81       	ldd	r25, Y+4	; 0x04
    71a0:	fc 01       	movw	r30, r24
    71a2:	20 81       	ld	r18, Z
    71a4:	2d 7f       	andi	r18, 0xFD	; 253
    71a6:	fc 01       	movw	r30, r24
    71a8:	20 83       	st	Z, r18
    71aa:	8d 81       	ldd	r24, Y+5	; 0x05
    71ac:	9e 81       	ldd	r25, Y+6	; 0x06
    71ae:	fc 01       	movw	r30, r24
    71b0:	16 82       	std	Z+6, r1	; 0x06
    71b2:	17 82       	std	Z+7, r1	; 0x07
    71b4:	8d 81       	ldd	r24, Y+5	; 0x05
    71b6:	9e 81       	ldd	r25, Y+6	; 0x06
    71b8:	fc 01       	movw	r30, r24
    71ba:	12 82       	std	Z+2, r1	; 0x02
    71bc:	13 82       	std	Z+3, r1	; 0x03
    71be:	8d 81       	ldd	r24, Y+5	; 0x05
    71c0:	9e 81       	ldd	r25, Y+6	; 0x06
    71c2:	fc 01       	movw	r30, r24
    71c4:	02 e0       	ldi	r16, 0x02	; 2
    71c6:	06 93       	lac	Z, r16
    71c8:	18 c1       	rjmp	.+560    	; 0x73fa <udd_ep_trans_complet+0x3b4>
    71ca:	8d 81       	ldd	r24, Y+5	; 0x05
    71cc:	9e 81       	ldd	r25, Y+6	; 0x06
    71ce:	fc 01       	movw	r30, r24
    71d0:	82 81       	ldd	r24, Z+2	; 0x02
    71d2:	93 81       	ldd	r25, Z+3	; 0x03
    71d4:	89 87       	std	Y+9, r24	; 0x09
    71d6:	9a 87       	std	Y+10, r25	; 0x0a
    71d8:	8b 81       	ldd	r24, Y+3	; 0x03
    71da:	9c 81       	ldd	r25, Y+4	; 0x04
    71dc:	fc 01       	movw	r30, r24
    71de:	80 81       	ld	r24, Z
    71e0:	84 70       	andi	r24, 0x04	; 4
    71e2:	88 23       	and	r24, r24
    71e4:	39 f1       	breq	.+78     	; 0x7234 <udd_ep_trans_complet+0x1ee>
    71e6:	8b 81       	ldd	r24, Y+3	; 0x03
    71e8:	9c 81       	ldd	r25, Y+4	; 0x04
    71ea:	fc 01       	movw	r30, r24
    71ec:	83 81       	ldd	r24, Z+3	; 0x03
    71ee:	94 81       	ldd	r25, Z+4	; 0x04
    71f0:	2f 81       	ldd	r18, Y+7	; 0x07
    71f2:	38 85       	ldd	r19, Y+8	; 0x08
    71f4:	b9 01       	movw	r22, r18
    71f6:	ba d3       	rcall	.+1908   	; 0x796c <__udivmodhi4>
    71f8:	ac 01       	movw	r20, r24
    71fa:	8b 85       	ldd	r24, Y+11	; 0x0b
    71fc:	88 2f       	mov	r24, r24
    71fe:	90 e0       	ldi	r25, 0x00	; 0
    7200:	01 97       	sbiw	r24, 0x01	; 1
    7202:	00 24       	eor	r0, r0
    7204:	96 95       	lsr	r25
    7206:	87 95       	ror	r24
    7208:	07 94       	ror	r0
    720a:	96 95       	lsr	r25
    720c:	87 95       	ror	r24
    720e:	07 94       	ror	r0
    7210:	98 2f       	mov	r25, r24
    7212:	80 2d       	mov	r24, r0
    7214:	bc 01       	movw	r22, r24
    7216:	67 58       	subi	r22, 0x87	; 135
    7218:	77 4d       	sbci	r23, 0xD7	; 215
    721a:	8b 81       	ldd	r24, Y+3	; 0x03
    721c:	9c 81       	ldd	r25, Y+4	; 0x04
    721e:	fc 01       	movw	r30, r24
    7220:	21 81       	ldd	r18, Z+1	; 0x01
    7222:	32 81       	ldd	r19, Z+2	; 0x02
    7224:	8b 81       	ldd	r24, Y+3	; 0x03
    7226:	9c 81       	ldd	r25, Y+4	; 0x04
    7228:	fc 01       	movw	r30, r24
    722a:	85 81       	ldd	r24, Z+5	; 0x05
    722c:	96 81       	ldd	r25, Z+6	; 0x06
    722e:	82 0f       	add	r24, r18
    7230:	93 1f       	adc	r25, r19
    7232:	51 d5       	rcall	.+2722   	; 0x7cd6 <memcpy>
    7234:	8b 81       	ldd	r24, Y+3	; 0x03
    7236:	9c 81       	ldd	r25, Y+4	; 0x04
    7238:	fc 01       	movw	r30, r24
    723a:	25 81       	ldd	r18, Z+5	; 0x05
    723c:	36 81       	ldd	r19, Z+6	; 0x06
    723e:	89 85       	ldd	r24, Y+9	; 0x09
    7240:	9a 85       	ldd	r25, Y+10	; 0x0a
    7242:	28 0f       	add	r18, r24
    7244:	39 1f       	adc	r19, r25
    7246:	8b 81       	ldd	r24, Y+3	; 0x03
    7248:	9c 81       	ldd	r25, Y+4	; 0x04
    724a:	fc 01       	movw	r30, r24
    724c:	25 83       	std	Z+5, r18	; 0x05
    724e:	36 83       	std	Z+6, r19	; 0x06
    7250:	8b 81       	ldd	r24, Y+3	; 0x03
    7252:	9c 81       	ldd	r25, Y+4	; 0x04
    7254:	fc 01       	movw	r30, r24
    7256:	25 81       	ldd	r18, Z+5	; 0x05
    7258:	36 81       	ldd	r19, Z+6	; 0x06
    725a:	8b 81       	ldd	r24, Y+3	; 0x03
    725c:	9c 81       	ldd	r25, Y+4	; 0x04
    725e:	fc 01       	movw	r30, r24
    7260:	83 81       	ldd	r24, Z+3	; 0x03
    7262:	94 81       	ldd	r25, Z+4	; 0x04
    7264:	82 17       	cp	r24, r18
    7266:	93 07       	cpc	r25, r19
    7268:	50 f4       	brcc	.+20     	; 0x727e <udd_ep_trans_complet+0x238>
    726a:	8b 81       	ldd	r24, Y+3	; 0x03
    726c:	9c 81       	ldd	r25, Y+4	; 0x04
    726e:	fc 01       	movw	r30, r24
    7270:	23 81       	ldd	r18, Z+3	; 0x03
    7272:	34 81       	ldd	r19, Z+4	; 0x04
    7274:	8b 81       	ldd	r24, Y+3	; 0x03
    7276:	9c 81       	ldd	r25, Y+4	; 0x04
    7278:	fc 01       	movw	r30, r24
    727a:	25 83       	std	Z+5, r18	; 0x05
    727c:	36 83       	std	Z+6, r19	; 0x06
    727e:	8d 81       	ldd	r24, Y+5	; 0x05
    7280:	9e 81       	ldd	r25, Y+6	; 0x06
    7282:	fc 01       	movw	r30, r24
    7284:	26 81       	ldd	r18, Z+6	; 0x06
    7286:	37 81       	ldd	r19, Z+7	; 0x07
    7288:	89 85       	ldd	r24, Y+9	; 0x09
    728a:	9a 85       	ldd	r25, Y+10	; 0x0a
    728c:	28 17       	cp	r18, r24
    728e:	39 07       	cpc	r19, r25
    7290:	09 f0       	breq	.+2      	; 0x7294 <udd_ep_trans_complet+0x24e>
    7292:	8d c0       	rjmp	.+282    	; 0x73ae <udd_ep_trans_complet+0x368>
    7294:	8b 81       	ldd	r24, Y+3	; 0x03
    7296:	9c 81       	ldd	r25, Y+4	; 0x04
    7298:	fc 01       	movw	r30, r24
    729a:	25 81       	ldd	r18, Z+5	; 0x05
    729c:	36 81       	ldd	r19, Z+6	; 0x06
    729e:	8b 81       	ldd	r24, Y+3	; 0x03
    72a0:	9c 81       	ldd	r25, Y+4	; 0x04
    72a2:	fc 01       	movw	r30, r24
    72a4:	83 81       	ldd	r24, Z+3	; 0x03
    72a6:	94 81       	ldd	r25, Z+4	; 0x04
    72a8:	28 17       	cp	r18, r24
    72aa:	39 07       	cpc	r19, r25
    72ac:	09 f4       	brne	.+2      	; 0x72b0 <udd_ep_trans_complet+0x26a>
    72ae:	7f c0       	rjmp	.+254    	; 0x73ae <udd_ep_trans_complet+0x368>
    72b0:	8b 81       	ldd	r24, Y+3	; 0x03
    72b2:	9c 81       	ldd	r25, Y+4	; 0x04
    72b4:	fc 01       	movw	r30, r24
    72b6:	23 81       	ldd	r18, Z+3	; 0x03
    72b8:	34 81       	ldd	r19, Z+4	; 0x04
    72ba:	8b 81       	ldd	r24, Y+3	; 0x03
    72bc:	9c 81       	ldd	r25, Y+4	; 0x04
    72be:	fc 01       	movw	r30, r24
    72c0:	85 81       	ldd	r24, Z+5	; 0x05
    72c2:	96 81       	ldd	r25, Z+6	; 0x06
    72c4:	a9 01       	movw	r20, r18
    72c6:	48 1b       	sub	r20, r24
    72c8:	59 0b       	sbc	r21, r25
    72ca:	ca 01       	movw	r24, r20
    72cc:	89 83       	std	Y+1, r24	; 0x01
    72ce:	9a 83       	std	Y+2, r25	; 0x02
    72d0:	89 81       	ldd	r24, Y+1	; 0x01
    72d2:	9a 81       	ldd	r25, Y+2	; 0x02
    72d4:	81 15       	cp	r24, r1
    72d6:	94 40       	sbci	r25, 0x04	; 4
    72d8:	70 f0       	brcs	.+28     	; 0x72f6 <udd_ep_trans_complet+0x2b0>
    72da:	8f ef       	ldi	r24, 0xFF	; 255
    72dc:	93 e0       	ldi	r25, 0x03	; 3
    72de:	2f 81       	ldd	r18, Y+7	; 0x07
    72e0:	38 85       	ldd	r19, Y+8	; 0x08
    72e2:	b9 01       	movw	r22, r18
    72e4:	43 d3       	rcall	.+1670   	; 0x796c <__udivmodhi4>
    72e6:	9c 01       	movw	r18, r24
    72e8:	8f ef       	ldi	r24, 0xFF	; 255
    72ea:	93 e0       	ldi	r25, 0x03	; 3
    72ec:	82 1b       	sub	r24, r18
    72ee:	93 0b       	sbc	r25, r19
    72f0:	89 83       	std	Y+1, r24	; 0x01
    72f2:	9a 83       	std	Y+2, r25	; 0x02
    72f4:	0d c0       	rjmp	.+26     	; 0x7310 <udd_ep_trans_complet+0x2ca>
    72f6:	89 81       	ldd	r24, Y+1	; 0x01
    72f8:	9a 81       	ldd	r25, Y+2	; 0x02
    72fa:	2f 81       	ldd	r18, Y+7	; 0x07
    72fc:	38 85       	ldd	r19, Y+8	; 0x08
    72fe:	b9 01       	movw	r22, r18
    7300:	35 d3       	rcall	.+1642   	; 0x796c <__udivmodhi4>
    7302:	9c 01       	movw	r18, r24
    7304:	89 81       	ldd	r24, Y+1	; 0x01
    7306:	9a 81       	ldd	r25, Y+2	; 0x02
    7308:	82 1b       	sub	r24, r18
    730a:	93 0b       	sbc	r25, r19
    730c:	89 83       	std	Y+1, r24	; 0x01
    730e:	9a 83       	std	Y+2, r25	; 0x02
    7310:	8d 81       	ldd	r24, Y+5	; 0x05
    7312:	9e 81       	ldd	r25, Y+6	; 0x06
    7314:	fc 01       	movw	r30, r24
    7316:	12 82       	std	Z+2, r1	; 0x02
    7318:	13 82       	std	Z+3, r1	; 0x03
    731a:	29 81       	ldd	r18, Y+1	; 0x01
    731c:	3a 81       	ldd	r19, Y+2	; 0x02
    731e:	8f 81       	ldd	r24, Y+7	; 0x07
    7320:	98 85       	ldd	r25, Y+8	; 0x08
    7322:	28 17       	cp	r18, r24
    7324:	39 07       	cpc	r19, r25
    7326:	20 f5       	brcc	.+72     	; 0x7370 <udd_ep_trans_complet+0x32a>
    7328:	8b 81       	ldd	r24, Y+3	; 0x03
    732a:	9c 81       	ldd	r25, Y+4	; 0x04
    732c:	fc 01       	movw	r30, r24
    732e:	20 81       	ld	r18, Z
    7330:	24 60       	ori	r18, 0x04	; 4
    7332:	fc 01       	movw	r30, r24
    7334:	20 83       	st	Z, r18
    7336:	8b 85       	ldd	r24, Y+11	; 0x0b
    7338:	88 2f       	mov	r24, r24
    733a:	90 e0       	ldi	r25, 0x00	; 0
    733c:	01 97       	sbiw	r24, 0x01	; 1
    733e:	00 24       	eor	r0, r0
    7340:	96 95       	lsr	r25
    7342:	87 95       	ror	r24
    7344:	07 94       	ror	r0
    7346:	96 95       	lsr	r25
    7348:	87 95       	ror	r24
    734a:	07 94       	ror	r0
    734c:	98 2f       	mov	r25, r24
    734e:	80 2d       	mov	r24, r0
    7350:	87 58       	subi	r24, 0x87	; 135
    7352:	97 4d       	sbci	r25, 0xD7	; 215
    7354:	9c 01       	movw	r18, r24
    7356:	8d 81       	ldd	r24, Y+5	; 0x05
    7358:	9e 81       	ldd	r25, Y+6	; 0x06
    735a:	fc 01       	movw	r30, r24
    735c:	24 83       	std	Z+4, r18	; 0x04
    735e:	35 83       	std	Z+5, r19	; 0x05
    7360:	8d 81       	ldd	r24, Y+5	; 0x05
    7362:	9e 81       	ldd	r25, Y+6	; 0x06
    7364:	2f 81       	ldd	r18, Y+7	; 0x07
    7366:	38 85       	ldd	r19, Y+8	; 0x08
    7368:	fc 01       	movw	r30, r24
    736a:	26 83       	std	Z+6, r18	; 0x06
    736c:	37 83       	std	Z+7, r19	; 0x07
    736e:	19 c0       	rjmp	.+50     	; 0x73a2 <udd_ep_trans_complet+0x35c>
    7370:	8b 81       	ldd	r24, Y+3	; 0x03
    7372:	9c 81       	ldd	r25, Y+4	; 0x04
    7374:	fc 01       	movw	r30, r24
    7376:	21 81       	ldd	r18, Z+1	; 0x01
    7378:	32 81       	ldd	r19, Z+2	; 0x02
    737a:	8b 81       	ldd	r24, Y+3	; 0x03
    737c:	9c 81       	ldd	r25, Y+4	; 0x04
    737e:	fc 01       	movw	r30, r24
    7380:	85 81       	ldd	r24, Z+5	; 0x05
    7382:	96 81       	ldd	r25, Z+6	; 0x06
    7384:	82 0f       	add	r24, r18
    7386:	93 1f       	adc	r25, r19
    7388:	9c 01       	movw	r18, r24
    738a:	8d 81       	ldd	r24, Y+5	; 0x05
    738c:	9e 81       	ldd	r25, Y+6	; 0x06
    738e:	fc 01       	movw	r30, r24
    7390:	24 83       	std	Z+4, r18	; 0x04
    7392:	35 83       	std	Z+5, r19	; 0x05
    7394:	8d 81       	ldd	r24, Y+5	; 0x05
    7396:	9e 81       	ldd	r25, Y+6	; 0x06
    7398:	29 81       	ldd	r18, Y+1	; 0x01
    739a:	3a 81       	ldd	r19, Y+2	; 0x02
    739c:	fc 01       	movw	r30, r24
    739e:	26 83       	std	Z+6, r18	; 0x06
    73a0:	37 83       	std	Z+7, r19	; 0x07
    73a2:	8d 81       	ldd	r24, Y+5	; 0x05
    73a4:	9e 81       	ldd	r25, Y+6	; 0x06
    73a6:	fc 01       	movw	r30, r24
    73a8:	02 e0       	ldi	r16, 0x02	; 2
    73aa:	06 93       	lac	Z, r16
    73ac:	26 c0       	rjmp	.+76     	; 0x73fa <udd_ep_trans_complet+0x3b4>
    73ae:	8b 81       	ldd	r24, Y+3	; 0x03
    73b0:	9c 81       	ldd	r25, Y+4	; 0x04
    73b2:	fc 01       	movw	r30, r24
    73b4:	80 81       	ld	r24, Z
    73b6:	81 70       	andi	r24, 0x01	; 1
    73b8:	88 23       	and	r24, r24
    73ba:	f1 f0       	breq	.+60     	; 0x73f8 <udd_ep_trans_complet+0x3b2>
    73bc:	8b 81       	ldd	r24, Y+3	; 0x03
    73be:	9c 81       	ldd	r25, Y+4	; 0x04
    73c0:	fc 01       	movw	r30, r24
    73c2:	20 81       	ld	r18, Z
    73c4:	2e 7f       	andi	r18, 0xFE	; 254
    73c6:	fc 01       	movw	r30, r24
    73c8:	20 83       	st	Z, r18
    73ca:	8b 81       	ldd	r24, Y+3	; 0x03
    73cc:	9c 81       	ldd	r25, Y+4	; 0x04
    73ce:	fc 01       	movw	r30, r24
    73d0:	87 81       	ldd	r24, Z+7	; 0x07
    73d2:	90 85       	ldd	r25, Z+8	; 0x08
    73d4:	89 2b       	or	r24, r25
    73d6:	81 f0       	breq	.+32     	; 0x73f8 <udd_ep_trans_complet+0x3b2>
    73d8:	8b 81       	ldd	r24, Y+3	; 0x03
    73da:	9c 81       	ldd	r25, Y+4	; 0x04
    73dc:	fc 01       	movw	r30, r24
    73de:	27 81       	ldd	r18, Z+7	; 0x07
    73e0:	30 85       	ldd	r19, Z+8	; 0x08
    73e2:	8b 81       	ldd	r24, Y+3	; 0x03
    73e4:	9c 81       	ldd	r25, Y+4	; 0x04
    73e6:	fc 01       	movw	r30, r24
    73e8:	85 81       	ldd	r24, Z+5	; 0x05
    73ea:	96 81       	ldd	r25, Z+6	; 0x06
    73ec:	4b 85       	ldd	r20, Y+11	; 0x0b
    73ee:	bc 01       	movw	r22, r24
    73f0:	80 e0       	ldi	r24, 0x00	; 0
    73f2:	f9 01       	movw	r30, r18
    73f4:	19 95       	eicall
    73f6:	00 00       	nop
    73f8:	00 00       	nop
    73fa:	2b 96       	adiw	r28, 0x0b	; 11
    73fc:	cd bf       	out	0x3d, r28	; 61
    73fe:	de bf       	out	0x3e, r29	; 62
    7400:	df 91       	pop	r29
    7402:	cf 91       	pop	r28
    7404:	0f 91       	pop	r16
    7406:	08 95       	ret

00007408 <__subsf3>:
    7408:	50 58       	subi	r21, 0x80	; 128

0000740a <__addsf3>:
    740a:	bb 27       	eor	r27, r27
    740c:	aa 27       	eor	r26, r26
    740e:	0e d0       	rcall	.+28     	; 0x742c <__addsf3x>
    7410:	fd c1       	rjmp	.+1018   	; 0x780c <__fp_round>
    7412:	ee d1       	rcall	.+988    	; 0x77f0 <__fp_pscA>
    7414:	30 f0       	brcs	.+12     	; 0x7422 <__addsf3+0x18>
    7416:	f3 d1       	rcall	.+998    	; 0x77fe <__fp_pscB>
    7418:	20 f0       	brcs	.+8      	; 0x7422 <__addsf3+0x18>
    741a:	31 f4       	brne	.+12     	; 0x7428 <__addsf3+0x1e>
    741c:	9f 3f       	cpi	r25, 0xFF	; 255
    741e:	11 f4       	brne	.+4      	; 0x7424 <__addsf3+0x1a>
    7420:	1e f4       	brtc	.+6      	; 0x7428 <__addsf3+0x1e>
    7422:	d3 c1       	rjmp	.+934    	; 0x77ca <__fp_nan>
    7424:	0e f4       	brtc	.+2      	; 0x7428 <__addsf3+0x1e>
    7426:	e0 95       	com	r30
    7428:	e7 fb       	bst	r30, 7
    742a:	c9 c1       	rjmp	.+914    	; 0x77be <__fp_inf>

0000742c <__addsf3x>:
    742c:	e9 2f       	mov	r30, r25
    742e:	ff d1       	rcall	.+1022   	; 0x782e <__fp_split3>
    7430:	80 f3       	brcs	.-32     	; 0x7412 <__addsf3+0x8>
    7432:	ba 17       	cp	r27, r26
    7434:	62 07       	cpc	r22, r18
    7436:	73 07       	cpc	r23, r19
    7438:	84 07       	cpc	r24, r20
    743a:	95 07       	cpc	r25, r21
    743c:	18 f0       	brcs	.+6      	; 0x7444 <__addsf3x+0x18>
    743e:	71 f4       	brne	.+28     	; 0x745c <__addsf3x+0x30>
    7440:	9e f5       	brtc	.+102    	; 0x74a8 <__addsf3x+0x7c>
    7442:	17 c2       	rjmp	.+1070   	; 0x7872 <__fp_zero>
    7444:	0e f4       	brtc	.+2      	; 0x7448 <__addsf3x+0x1c>
    7446:	e0 95       	com	r30
    7448:	0b 2e       	mov	r0, r27
    744a:	ba 2f       	mov	r27, r26
    744c:	a0 2d       	mov	r26, r0
    744e:	0b 01       	movw	r0, r22
    7450:	b9 01       	movw	r22, r18
    7452:	90 01       	movw	r18, r0
    7454:	0c 01       	movw	r0, r24
    7456:	ca 01       	movw	r24, r20
    7458:	a0 01       	movw	r20, r0
    745a:	11 24       	eor	r1, r1
    745c:	ff 27       	eor	r31, r31
    745e:	59 1b       	sub	r21, r25
    7460:	99 f0       	breq	.+38     	; 0x7488 <__addsf3x+0x5c>
    7462:	59 3f       	cpi	r21, 0xF9	; 249
    7464:	50 f4       	brcc	.+20     	; 0x747a <__addsf3x+0x4e>
    7466:	50 3e       	cpi	r21, 0xE0	; 224
    7468:	68 f1       	brcs	.+90     	; 0x74c4 <__addsf3x+0x98>
    746a:	1a 16       	cp	r1, r26
    746c:	f0 40       	sbci	r31, 0x00	; 0
    746e:	a2 2f       	mov	r26, r18
    7470:	23 2f       	mov	r18, r19
    7472:	34 2f       	mov	r19, r20
    7474:	44 27       	eor	r20, r20
    7476:	58 5f       	subi	r21, 0xF8	; 248
    7478:	f3 cf       	rjmp	.-26     	; 0x7460 <__addsf3x+0x34>
    747a:	46 95       	lsr	r20
    747c:	37 95       	ror	r19
    747e:	27 95       	ror	r18
    7480:	a7 95       	ror	r26
    7482:	f0 40       	sbci	r31, 0x00	; 0
    7484:	53 95       	inc	r21
    7486:	c9 f7       	brne	.-14     	; 0x747a <__addsf3x+0x4e>
    7488:	7e f4       	brtc	.+30     	; 0x74a8 <__addsf3x+0x7c>
    748a:	1f 16       	cp	r1, r31
    748c:	ba 0b       	sbc	r27, r26
    748e:	62 0b       	sbc	r22, r18
    7490:	73 0b       	sbc	r23, r19
    7492:	84 0b       	sbc	r24, r20
    7494:	ba f0       	brmi	.+46     	; 0x74c4 <__addsf3x+0x98>
    7496:	91 50       	subi	r25, 0x01	; 1
    7498:	a1 f0       	breq	.+40     	; 0x74c2 <__addsf3x+0x96>
    749a:	ff 0f       	add	r31, r31
    749c:	bb 1f       	adc	r27, r27
    749e:	66 1f       	adc	r22, r22
    74a0:	77 1f       	adc	r23, r23
    74a2:	88 1f       	adc	r24, r24
    74a4:	c2 f7       	brpl	.-16     	; 0x7496 <__addsf3x+0x6a>
    74a6:	0e c0       	rjmp	.+28     	; 0x74c4 <__addsf3x+0x98>
    74a8:	ba 0f       	add	r27, r26
    74aa:	62 1f       	adc	r22, r18
    74ac:	73 1f       	adc	r23, r19
    74ae:	84 1f       	adc	r24, r20
    74b0:	48 f4       	brcc	.+18     	; 0x74c4 <__addsf3x+0x98>
    74b2:	87 95       	ror	r24
    74b4:	77 95       	ror	r23
    74b6:	67 95       	ror	r22
    74b8:	b7 95       	ror	r27
    74ba:	f7 95       	ror	r31
    74bc:	9e 3f       	cpi	r25, 0xFE	; 254
    74be:	08 f0       	brcs	.+2      	; 0x74c2 <__addsf3x+0x96>
    74c0:	b3 cf       	rjmp	.-154    	; 0x7428 <__addsf3+0x1e>
    74c2:	93 95       	inc	r25
    74c4:	88 0f       	add	r24, r24
    74c6:	08 f0       	brcs	.+2      	; 0x74ca <__addsf3x+0x9e>
    74c8:	99 27       	eor	r25, r25
    74ca:	ee 0f       	add	r30, r30
    74cc:	97 95       	ror	r25
    74ce:	87 95       	ror	r24
    74d0:	08 95       	ret

000074d2 <__cmpsf2>:
    74d2:	51 d1       	rcall	.+674    	; 0x7776 <__fp_cmp>
    74d4:	08 f4       	brcc	.+2      	; 0x74d8 <__cmpsf2+0x6>
    74d6:	81 e0       	ldi	r24, 0x01	; 1
    74d8:	08 95       	ret

000074da <__divsf3>:
    74da:	0c d0       	rcall	.+24     	; 0x74f4 <__divsf3x>
    74dc:	97 c1       	rjmp	.+814    	; 0x780c <__fp_round>
    74de:	8f d1       	rcall	.+798    	; 0x77fe <__fp_pscB>
    74e0:	40 f0       	brcs	.+16     	; 0x74f2 <__divsf3+0x18>
    74e2:	86 d1       	rcall	.+780    	; 0x77f0 <__fp_pscA>
    74e4:	30 f0       	brcs	.+12     	; 0x74f2 <__divsf3+0x18>
    74e6:	21 f4       	brne	.+8      	; 0x74f0 <__divsf3+0x16>
    74e8:	5f 3f       	cpi	r21, 0xFF	; 255
    74ea:	19 f0       	breq	.+6      	; 0x74f2 <__divsf3+0x18>
    74ec:	68 c1       	rjmp	.+720    	; 0x77be <__fp_inf>
    74ee:	51 11       	cpse	r21, r1
    74f0:	c1 c1       	rjmp	.+898    	; 0x7874 <__fp_szero>
    74f2:	6b c1       	rjmp	.+726    	; 0x77ca <__fp_nan>

000074f4 <__divsf3x>:
    74f4:	9c d1       	rcall	.+824    	; 0x782e <__fp_split3>
    74f6:	98 f3       	brcs	.-26     	; 0x74de <__divsf3+0x4>

000074f8 <__divsf3_pse>:
    74f8:	99 23       	and	r25, r25
    74fa:	c9 f3       	breq	.-14     	; 0x74ee <__divsf3+0x14>
    74fc:	55 23       	and	r21, r21
    74fe:	b1 f3       	breq	.-20     	; 0x74ec <__divsf3+0x12>
    7500:	95 1b       	sub	r25, r21
    7502:	55 0b       	sbc	r21, r21
    7504:	bb 27       	eor	r27, r27
    7506:	aa 27       	eor	r26, r26
    7508:	62 17       	cp	r22, r18
    750a:	73 07       	cpc	r23, r19
    750c:	84 07       	cpc	r24, r20
    750e:	38 f0       	brcs	.+14     	; 0x751e <__divsf3_pse+0x26>
    7510:	9f 5f       	subi	r25, 0xFF	; 255
    7512:	5f 4f       	sbci	r21, 0xFF	; 255
    7514:	22 0f       	add	r18, r18
    7516:	33 1f       	adc	r19, r19
    7518:	44 1f       	adc	r20, r20
    751a:	aa 1f       	adc	r26, r26
    751c:	a9 f3       	breq	.-22     	; 0x7508 <__divsf3_pse+0x10>
    751e:	33 d0       	rcall	.+102    	; 0x7586 <__divsf3_pse+0x8e>
    7520:	0e 2e       	mov	r0, r30
    7522:	3a f0       	brmi	.+14     	; 0x7532 <__divsf3_pse+0x3a>
    7524:	e0 e8       	ldi	r30, 0x80	; 128
    7526:	30 d0       	rcall	.+96     	; 0x7588 <__divsf3_pse+0x90>
    7528:	91 50       	subi	r25, 0x01	; 1
    752a:	50 40       	sbci	r21, 0x00	; 0
    752c:	e6 95       	lsr	r30
    752e:	00 1c       	adc	r0, r0
    7530:	ca f7       	brpl	.-14     	; 0x7524 <__divsf3_pse+0x2c>
    7532:	29 d0       	rcall	.+82     	; 0x7586 <__divsf3_pse+0x8e>
    7534:	fe 2f       	mov	r31, r30
    7536:	27 d0       	rcall	.+78     	; 0x7586 <__divsf3_pse+0x8e>
    7538:	66 0f       	add	r22, r22
    753a:	77 1f       	adc	r23, r23
    753c:	88 1f       	adc	r24, r24
    753e:	bb 1f       	adc	r27, r27
    7540:	26 17       	cp	r18, r22
    7542:	37 07       	cpc	r19, r23
    7544:	48 07       	cpc	r20, r24
    7546:	ab 07       	cpc	r26, r27
    7548:	b0 e8       	ldi	r27, 0x80	; 128
    754a:	09 f0       	breq	.+2      	; 0x754e <__divsf3_pse+0x56>
    754c:	bb 0b       	sbc	r27, r27
    754e:	80 2d       	mov	r24, r0
    7550:	bf 01       	movw	r22, r30
    7552:	ff 27       	eor	r31, r31
    7554:	93 58       	subi	r25, 0x83	; 131
    7556:	5f 4f       	sbci	r21, 0xFF	; 255
    7558:	2a f0       	brmi	.+10     	; 0x7564 <__divsf3_pse+0x6c>
    755a:	9e 3f       	cpi	r25, 0xFE	; 254
    755c:	51 05       	cpc	r21, r1
    755e:	68 f0       	brcs	.+26     	; 0x757a <__divsf3_pse+0x82>
    7560:	2e c1       	rjmp	.+604    	; 0x77be <__fp_inf>
    7562:	88 c1       	rjmp	.+784    	; 0x7874 <__fp_szero>
    7564:	5f 3f       	cpi	r21, 0xFF	; 255
    7566:	ec f3       	brlt	.-6      	; 0x7562 <__divsf3_pse+0x6a>
    7568:	98 3e       	cpi	r25, 0xE8	; 232
    756a:	dc f3       	brlt	.-10     	; 0x7562 <__divsf3_pse+0x6a>
    756c:	86 95       	lsr	r24
    756e:	77 95       	ror	r23
    7570:	67 95       	ror	r22
    7572:	b7 95       	ror	r27
    7574:	f7 95       	ror	r31
    7576:	9f 5f       	subi	r25, 0xFF	; 255
    7578:	c9 f7       	brne	.-14     	; 0x756c <__divsf3_pse+0x74>
    757a:	88 0f       	add	r24, r24
    757c:	91 1d       	adc	r25, r1
    757e:	96 95       	lsr	r25
    7580:	87 95       	ror	r24
    7582:	97 f9       	bld	r25, 7
    7584:	08 95       	ret
    7586:	e1 e0       	ldi	r30, 0x01	; 1
    7588:	66 0f       	add	r22, r22
    758a:	77 1f       	adc	r23, r23
    758c:	88 1f       	adc	r24, r24
    758e:	bb 1f       	adc	r27, r27
    7590:	62 17       	cp	r22, r18
    7592:	73 07       	cpc	r23, r19
    7594:	84 07       	cpc	r24, r20
    7596:	ba 07       	cpc	r27, r26
    7598:	20 f0       	brcs	.+8      	; 0x75a2 <__divsf3_pse+0xaa>
    759a:	62 1b       	sub	r22, r18
    759c:	73 0b       	sbc	r23, r19
    759e:	84 0b       	sbc	r24, r20
    75a0:	ba 0b       	sbc	r27, r26
    75a2:	ee 1f       	adc	r30, r30
    75a4:	88 f7       	brcc	.-30     	; 0x7588 <__divsf3_pse+0x90>
    75a6:	e0 95       	com	r30
    75a8:	08 95       	ret

000075aa <__fixsfdi>:
    75aa:	be e3       	ldi	r27, 0x3E	; 62
    75ac:	04 d0       	rcall	.+8      	; 0x75b6 <__fixunssfdi+0x2>
    75ae:	08 f4       	brcc	.+2      	; 0x75b2 <__fixsfdi+0x8>
    75b0:	90 e8       	ldi	r25, 0x80	; 128
    75b2:	08 95       	ret

000075b4 <__fixunssfdi>:
    75b4:	bf e3       	ldi	r27, 0x3F	; 63
    75b6:	22 27       	eor	r18, r18
    75b8:	33 27       	eor	r19, r19
    75ba:	a9 01       	movw	r20, r18
    75bc:	40 d1       	rcall	.+640    	; 0x783e <__fp_splitA>
    75be:	58 f1       	brcs	.+86     	; 0x7616 <__fixunssfdi+0x62>
    75c0:	9f 57       	subi	r25, 0x7F	; 127
    75c2:	40 f1       	brcs	.+80     	; 0x7614 <__fixunssfdi+0x60>
    75c4:	b9 17       	cp	r27, r25
    75c6:	38 f1       	brcs	.+78     	; 0x7616 <__fixunssfdi+0x62>
    75c8:	bf e3       	ldi	r27, 0x3F	; 63
    75ca:	b9 1b       	sub	r27, r25
    75cc:	99 27       	eor	r25, r25
    75ce:	b8 50       	subi	r27, 0x08	; 8
    75d0:	3a f4       	brpl	.+14     	; 0x75e0 <__fixunssfdi+0x2c>
    75d2:	66 0f       	add	r22, r22
    75d4:	77 1f       	adc	r23, r23
    75d6:	88 1f       	adc	r24, r24
    75d8:	99 1f       	adc	r25, r25
    75da:	b3 95       	inc	r27
    75dc:	d2 f3       	brmi	.-12     	; 0x75d2 <__fixunssfdi+0x1e>
    75de:	16 c0       	rjmp	.+44     	; 0x760c <__fixunssfdi+0x58>
    75e0:	b8 50       	subi	r27, 0x08	; 8
    75e2:	4a f0       	brmi	.+18     	; 0x75f6 <__fixunssfdi+0x42>
    75e4:	23 2f       	mov	r18, r19
    75e6:	34 2f       	mov	r19, r20
    75e8:	45 2f       	mov	r20, r21
    75ea:	56 2f       	mov	r21, r22
    75ec:	67 2f       	mov	r22, r23
    75ee:	78 2f       	mov	r23, r24
    75f0:	88 27       	eor	r24, r24
    75f2:	b8 50       	subi	r27, 0x08	; 8
    75f4:	ba f7       	brpl	.-18     	; 0x75e4 <__fixunssfdi+0x30>
    75f6:	b8 5f       	subi	r27, 0xF8	; 248
    75f8:	49 f0       	breq	.+18     	; 0x760c <__fixunssfdi+0x58>
    75fa:	86 95       	lsr	r24
    75fc:	77 95       	ror	r23
    75fe:	67 95       	ror	r22
    7600:	57 95       	ror	r21
    7602:	47 95       	ror	r20
    7604:	37 95       	ror	r19
    7606:	27 95       	ror	r18
    7608:	ba 95       	dec	r27
    760a:	b9 f7       	brne	.-18     	; 0x75fa <__fixunssfdi+0x46>
    760c:	0e f4       	brtc	.+2      	; 0x7610 <__fixunssfdi+0x5c>
    760e:	e0 d0       	rcall	.+448    	; 0x77d0 <__fp_negdi>
    7610:	88 94       	clc
    7612:	08 95       	ret
    7614:	88 94       	clc
    7616:	60 e0       	ldi	r22, 0x00	; 0
    7618:	70 e0       	ldi	r23, 0x00	; 0
    761a:	cb 01       	movw	r24, r22
    761c:	08 95       	ret

0000761e <__fixsfsi>:
    761e:	04 d0       	rcall	.+8      	; 0x7628 <__fixunssfsi>
    7620:	68 94       	set
    7622:	b1 11       	cpse	r27, r1
    7624:	27 c1       	rjmp	.+590    	; 0x7874 <__fp_szero>
    7626:	08 95       	ret

00007628 <__fixunssfsi>:
    7628:	0a d1       	rcall	.+532    	; 0x783e <__fp_splitA>
    762a:	88 f0       	brcs	.+34     	; 0x764e <__fixunssfsi+0x26>
    762c:	9f 57       	subi	r25, 0x7F	; 127
    762e:	90 f0       	brcs	.+36     	; 0x7654 <__fixunssfsi+0x2c>
    7630:	b9 2f       	mov	r27, r25
    7632:	99 27       	eor	r25, r25
    7634:	b7 51       	subi	r27, 0x17	; 23
    7636:	a0 f0       	brcs	.+40     	; 0x7660 <__fixunssfsi+0x38>
    7638:	d1 f0       	breq	.+52     	; 0x766e <__fixunssfsi+0x46>
    763a:	66 0f       	add	r22, r22
    763c:	77 1f       	adc	r23, r23
    763e:	88 1f       	adc	r24, r24
    7640:	99 1f       	adc	r25, r25
    7642:	1a f0       	brmi	.+6      	; 0x764a <__fixunssfsi+0x22>
    7644:	ba 95       	dec	r27
    7646:	c9 f7       	brne	.-14     	; 0x763a <__fixunssfsi+0x12>
    7648:	12 c0       	rjmp	.+36     	; 0x766e <__fixunssfsi+0x46>
    764a:	b1 30       	cpi	r27, 0x01	; 1
    764c:	81 f0       	breq	.+32     	; 0x766e <__fixunssfsi+0x46>
    764e:	11 d1       	rcall	.+546    	; 0x7872 <__fp_zero>
    7650:	b1 e0       	ldi	r27, 0x01	; 1
    7652:	08 95       	ret
    7654:	0e c1       	rjmp	.+540    	; 0x7872 <__fp_zero>
    7656:	67 2f       	mov	r22, r23
    7658:	78 2f       	mov	r23, r24
    765a:	88 27       	eor	r24, r24
    765c:	b8 5f       	subi	r27, 0xF8	; 248
    765e:	39 f0       	breq	.+14     	; 0x766e <__fixunssfsi+0x46>
    7660:	b9 3f       	cpi	r27, 0xF9	; 249
    7662:	cc f3       	brlt	.-14     	; 0x7656 <__fixunssfsi+0x2e>
    7664:	86 95       	lsr	r24
    7666:	77 95       	ror	r23
    7668:	67 95       	ror	r22
    766a:	b3 95       	inc	r27
    766c:	d9 f7       	brne	.-10     	; 0x7664 <__fixunssfsi+0x3c>
    766e:	3e f4       	brtc	.+14     	; 0x767e <__fixunssfsi+0x56>
    7670:	90 95       	com	r25
    7672:	80 95       	com	r24
    7674:	70 95       	com	r23
    7676:	61 95       	neg	r22
    7678:	7f 4f       	sbci	r23, 0xFF	; 255
    767a:	8f 4f       	sbci	r24, 0xFF	; 255
    767c:	9f 4f       	sbci	r25, 0xFF	; 255
    767e:	08 95       	ret

00007680 <__floatunsisf>:
    7680:	e8 94       	clt
    7682:	09 c0       	rjmp	.+18     	; 0x7696 <__floatsisf+0x12>

00007684 <__floatsisf>:
    7684:	97 fb       	bst	r25, 7
    7686:	3e f4       	brtc	.+14     	; 0x7696 <__floatsisf+0x12>
    7688:	90 95       	com	r25
    768a:	80 95       	com	r24
    768c:	70 95       	com	r23
    768e:	61 95       	neg	r22
    7690:	7f 4f       	sbci	r23, 0xFF	; 255
    7692:	8f 4f       	sbci	r24, 0xFF	; 255
    7694:	9f 4f       	sbci	r25, 0xFF	; 255
    7696:	99 23       	and	r25, r25
    7698:	a9 f0       	breq	.+42     	; 0x76c4 <__floatsisf+0x40>
    769a:	f9 2f       	mov	r31, r25
    769c:	96 e9       	ldi	r25, 0x96	; 150
    769e:	bb 27       	eor	r27, r27
    76a0:	93 95       	inc	r25
    76a2:	f6 95       	lsr	r31
    76a4:	87 95       	ror	r24
    76a6:	77 95       	ror	r23
    76a8:	67 95       	ror	r22
    76aa:	b7 95       	ror	r27
    76ac:	f1 11       	cpse	r31, r1
    76ae:	f8 cf       	rjmp	.-16     	; 0x76a0 <__floatsisf+0x1c>
    76b0:	fa f4       	brpl	.+62     	; 0x76f0 <__floatsisf+0x6c>
    76b2:	bb 0f       	add	r27, r27
    76b4:	11 f4       	brne	.+4      	; 0x76ba <__floatsisf+0x36>
    76b6:	60 ff       	sbrs	r22, 0
    76b8:	1b c0       	rjmp	.+54     	; 0x76f0 <__floatsisf+0x6c>
    76ba:	6f 5f       	subi	r22, 0xFF	; 255
    76bc:	7f 4f       	sbci	r23, 0xFF	; 255
    76be:	8f 4f       	sbci	r24, 0xFF	; 255
    76c0:	9f 4f       	sbci	r25, 0xFF	; 255
    76c2:	16 c0       	rjmp	.+44     	; 0x76f0 <__floatsisf+0x6c>
    76c4:	88 23       	and	r24, r24
    76c6:	11 f0       	breq	.+4      	; 0x76cc <__floatsisf+0x48>
    76c8:	96 e9       	ldi	r25, 0x96	; 150
    76ca:	11 c0       	rjmp	.+34     	; 0x76ee <__floatsisf+0x6a>
    76cc:	77 23       	and	r23, r23
    76ce:	21 f0       	breq	.+8      	; 0x76d8 <__floatsisf+0x54>
    76d0:	9e e8       	ldi	r25, 0x8E	; 142
    76d2:	87 2f       	mov	r24, r23
    76d4:	76 2f       	mov	r23, r22
    76d6:	05 c0       	rjmp	.+10     	; 0x76e2 <__floatsisf+0x5e>
    76d8:	66 23       	and	r22, r22
    76da:	71 f0       	breq	.+28     	; 0x76f8 <__floatsisf+0x74>
    76dc:	96 e8       	ldi	r25, 0x86	; 134
    76de:	86 2f       	mov	r24, r22
    76e0:	70 e0       	ldi	r23, 0x00	; 0
    76e2:	60 e0       	ldi	r22, 0x00	; 0
    76e4:	2a f0       	brmi	.+10     	; 0x76f0 <__floatsisf+0x6c>
    76e6:	9a 95       	dec	r25
    76e8:	66 0f       	add	r22, r22
    76ea:	77 1f       	adc	r23, r23
    76ec:	88 1f       	adc	r24, r24
    76ee:	da f7       	brpl	.-10     	; 0x76e6 <__floatsisf+0x62>
    76f0:	88 0f       	add	r24, r24
    76f2:	96 95       	lsr	r25
    76f4:	87 95       	ror	r24
    76f6:	97 f9       	bld	r25, 7
    76f8:	08 95       	ret

000076fa <__floatundisf>:
    76fa:	e8 94       	clt

000076fc <__fp_di2sf>:
    76fc:	f9 2f       	mov	r31, r25
    76fe:	96 eb       	ldi	r25, 0xB6	; 182
    7700:	ff 23       	and	r31, r31
    7702:	81 f0       	breq	.+32     	; 0x7724 <__fp_di2sf+0x28>
    7704:	12 16       	cp	r1, r18
    7706:	13 06       	cpc	r1, r19
    7708:	14 06       	cpc	r1, r20
    770a:	44 0b       	sbc	r20, r20
    770c:	93 95       	inc	r25
    770e:	f6 95       	lsr	r31
    7710:	87 95       	ror	r24
    7712:	77 95       	ror	r23
    7714:	67 95       	ror	r22
    7716:	57 95       	ror	r21
    7718:	40 40       	sbci	r20, 0x00	; 0
    771a:	ff 23       	and	r31, r31
    771c:	b9 f7       	brne	.-18     	; 0x770c <__fp_di2sf+0x10>
    771e:	1b c0       	rjmp	.+54     	; 0x7756 <__fp_di2sf+0x5a>
    7720:	99 27       	eor	r25, r25
    7722:	08 95       	ret
    7724:	88 23       	and	r24, r24
    7726:	51 f4       	brne	.+20     	; 0x773c <__fp_di2sf+0x40>
    7728:	98 50       	subi	r25, 0x08	; 8
    772a:	d2 f7       	brpl	.-12     	; 0x7720 <__fp_di2sf+0x24>
    772c:	87 2b       	or	r24, r23
    772e:	76 2f       	mov	r23, r22
    7730:	65 2f       	mov	r22, r21
    7732:	54 2f       	mov	r21, r20
    7734:	43 2f       	mov	r20, r19
    7736:	32 2f       	mov	r19, r18
    7738:	20 e0       	ldi	r18, 0x00	; 0
    773a:	b1 f3       	breq	.-20     	; 0x7728 <__fp_di2sf+0x2c>
    773c:	12 16       	cp	r1, r18
    773e:	13 06       	cpc	r1, r19
    7740:	14 06       	cpc	r1, r20
    7742:	44 0b       	sbc	r20, r20
    7744:	88 23       	and	r24, r24
    7746:	3a f0       	brmi	.+14     	; 0x7756 <__fp_di2sf+0x5a>
    7748:	9a 95       	dec	r25
    774a:	44 0f       	add	r20, r20
    774c:	55 1f       	adc	r21, r21
    774e:	66 1f       	adc	r22, r22
    7750:	77 1f       	adc	r23, r23
    7752:	88 1f       	adc	r24, r24
    7754:	ca f7       	brpl	.-14     	; 0x7748 <__fp_di2sf+0x4c>
    7756:	55 23       	and	r21, r21
    7758:	4a f4       	brpl	.+18     	; 0x776c <__fp_di2sf+0x70>
    775a:	44 0f       	add	r20, r20
    775c:	55 1f       	adc	r21, r21
    775e:	11 f4       	brne	.+4      	; 0x7764 <__fp_di2sf+0x68>
    7760:	60 ff       	sbrs	r22, 0
    7762:	04 c0       	rjmp	.+8      	; 0x776c <__fp_di2sf+0x70>
    7764:	6f 5f       	subi	r22, 0xFF	; 255
    7766:	7f 4f       	sbci	r23, 0xFF	; 255
    7768:	8f 4f       	sbci	r24, 0xFF	; 255
    776a:	9f 4f       	sbci	r25, 0xFF	; 255
    776c:	88 0f       	add	r24, r24
    776e:	96 95       	lsr	r25
    7770:	87 95       	ror	r24
    7772:	97 f9       	bld	r25, 7
    7774:	08 95       	ret

00007776 <__fp_cmp>:
    7776:	99 0f       	add	r25, r25
    7778:	00 08       	sbc	r0, r0
    777a:	55 0f       	add	r21, r21
    777c:	aa 0b       	sbc	r26, r26
    777e:	e0 e8       	ldi	r30, 0x80	; 128
    7780:	fe ef       	ldi	r31, 0xFE	; 254
    7782:	16 16       	cp	r1, r22
    7784:	17 06       	cpc	r1, r23
    7786:	e8 07       	cpc	r30, r24
    7788:	f9 07       	cpc	r31, r25
    778a:	c0 f0       	brcs	.+48     	; 0x77bc <__fp_cmp+0x46>
    778c:	12 16       	cp	r1, r18
    778e:	13 06       	cpc	r1, r19
    7790:	e4 07       	cpc	r30, r20
    7792:	f5 07       	cpc	r31, r21
    7794:	98 f0       	brcs	.+38     	; 0x77bc <__fp_cmp+0x46>
    7796:	62 1b       	sub	r22, r18
    7798:	73 0b       	sbc	r23, r19
    779a:	84 0b       	sbc	r24, r20
    779c:	95 0b       	sbc	r25, r21
    779e:	39 f4       	brne	.+14     	; 0x77ae <__fp_cmp+0x38>
    77a0:	0a 26       	eor	r0, r26
    77a2:	61 f0       	breq	.+24     	; 0x77bc <__fp_cmp+0x46>
    77a4:	23 2b       	or	r18, r19
    77a6:	24 2b       	or	r18, r20
    77a8:	25 2b       	or	r18, r21
    77aa:	21 f4       	brne	.+8      	; 0x77b4 <__fp_cmp+0x3e>
    77ac:	08 95       	ret
    77ae:	0a 26       	eor	r0, r26
    77b0:	09 f4       	brne	.+2      	; 0x77b4 <__fp_cmp+0x3e>
    77b2:	a1 40       	sbci	r26, 0x01	; 1
    77b4:	a6 95       	lsr	r26
    77b6:	8f ef       	ldi	r24, 0xFF	; 255
    77b8:	81 1d       	adc	r24, r1
    77ba:	81 1d       	adc	r24, r1
    77bc:	08 95       	ret

000077be <__fp_inf>:
    77be:	97 f9       	bld	r25, 7
    77c0:	9f 67       	ori	r25, 0x7F	; 127
    77c2:	80 e8       	ldi	r24, 0x80	; 128
    77c4:	70 e0       	ldi	r23, 0x00	; 0
    77c6:	60 e0       	ldi	r22, 0x00	; 0
    77c8:	08 95       	ret

000077ca <__fp_nan>:
    77ca:	9f ef       	ldi	r25, 0xFF	; 255
    77cc:	80 ec       	ldi	r24, 0xC0	; 192
    77ce:	08 95       	ret

000077d0 <__fp_negdi>:
    77d0:	90 95       	com	r25
    77d2:	80 95       	com	r24
    77d4:	70 95       	com	r23
    77d6:	60 95       	com	r22
    77d8:	50 95       	com	r21
    77da:	40 95       	com	r20
    77dc:	30 95       	com	r19
    77de:	21 95       	neg	r18
    77e0:	3f 4f       	sbci	r19, 0xFF	; 255
    77e2:	4f 4f       	sbci	r20, 0xFF	; 255
    77e4:	5f 4f       	sbci	r21, 0xFF	; 255
    77e6:	6f 4f       	sbci	r22, 0xFF	; 255
    77e8:	7f 4f       	sbci	r23, 0xFF	; 255
    77ea:	8f 4f       	sbci	r24, 0xFF	; 255
    77ec:	9f 4f       	sbci	r25, 0xFF	; 255
    77ee:	08 95       	ret

000077f0 <__fp_pscA>:
    77f0:	00 24       	eor	r0, r0
    77f2:	0a 94       	dec	r0
    77f4:	16 16       	cp	r1, r22
    77f6:	17 06       	cpc	r1, r23
    77f8:	18 06       	cpc	r1, r24
    77fa:	09 06       	cpc	r0, r25
    77fc:	08 95       	ret

000077fe <__fp_pscB>:
    77fe:	00 24       	eor	r0, r0
    7800:	0a 94       	dec	r0
    7802:	12 16       	cp	r1, r18
    7804:	13 06       	cpc	r1, r19
    7806:	14 06       	cpc	r1, r20
    7808:	05 06       	cpc	r0, r21
    780a:	08 95       	ret

0000780c <__fp_round>:
    780c:	09 2e       	mov	r0, r25
    780e:	03 94       	inc	r0
    7810:	00 0c       	add	r0, r0
    7812:	11 f4       	brne	.+4      	; 0x7818 <__fp_round+0xc>
    7814:	88 23       	and	r24, r24
    7816:	52 f0       	brmi	.+20     	; 0x782c <__fp_round+0x20>
    7818:	bb 0f       	add	r27, r27
    781a:	40 f4       	brcc	.+16     	; 0x782c <__fp_round+0x20>
    781c:	bf 2b       	or	r27, r31
    781e:	11 f4       	brne	.+4      	; 0x7824 <__fp_round+0x18>
    7820:	60 ff       	sbrs	r22, 0
    7822:	04 c0       	rjmp	.+8      	; 0x782c <__fp_round+0x20>
    7824:	6f 5f       	subi	r22, 0xFF	; 255
    7826:	7f 4f       	sbci	r23, 0xFF	; 255
    7828:	8f 4f       	sbci	r24, 0xFF	; 255
    782a:	9f 4f       	sbci	r25, 0xFF	; 255
    782c:	08 95       	ret

0000782e <__fp_split3>:
    782e:	57 fd       	sbrc	r21, 7
    7830:	90 58       	subi	r25, 0x80	; 128
    7832:	44 0f       	add	r20, r20
    7834:	55 1f       	adc	r21, r21
    7836:	59 f0       	breq	.+22     	; 0x784e <__fp_splitA+0x10>
    7838:	5f 3f       	cpi	r21, 0xFF	; 255
    783a:	71 f0       	breq	.+28     	; 0x7858 <__fp_splitA+0x1a>
    783c:	47 95       	ror	r20

0000783e <__fp_splitA>:
    783e:	88 0f       	add	r24, r24
    7840:	97 fb       	bst	r25, 7
    7842:	99 1f       	adc	r25, r25
    7844:	61 f0       	breq	.+24     	; 0x785e <__fp_splitA+0x20>
    7846:	9f 3f       	cpi	r25, 0xFF	; 255
    7848:	79 f0       	breq	.+30     	; 0x7868 <__fp_splitA+0x2a>
    784a:	87 95       	ror	r24
    784c:	08 95       	ret
    784e:	12 16       	cp	r1, r18
    7850:	13 06       	cpc	r1, r19
    7852:	14 06       	cpc	r1, r20
    7854:	55 1f       	adc	r21, r21
    7856:	f2 cf       	rjmp	.-28     	; 0x783c <__fp_split3+0xe>
    7858:	46 95       	lsr	r20
    785a:	f1 df       	rcall	.-30     	; 0x783e <__fp_splitA>
    785c:	08 c0       	rjmp	.+16     	; 0x786e <__fp_splitA+0x30>
    785e:	16 16       	cp	r1, r22
    7860:	17 06       	cpc	r1, r23
    7862:	18 06       	cpc	r1, r24
    7864:	99 1f       	adc	r25, r25
    7866:	f1 cf       	rjmp	.-30     	; 0x784a <__fp_splitA+0xc>
    7868:	86 95       	lsr	r24
    786a:	71 05       	cpc	r23, r1
    786c:	61 05       	cpc	r22, r1
    786e:	08 94       	sec
    7870:	08 95       	ret

00007872 <__fp_zero>:
    7872:	e8 94       	clt

00007874 <__fp_szero>:
    7874:	bb 27       	eor	r27, r27
    7876:	66 27       	eor	r22, r22
    7878:	77 27       	eor	r23, r23
    787a:	cb 01       	movw	r24, r22
    787c:	97 f9       	bld	r25, 7
    787e:	08 95       	ret

00007880 <__gesf2>:
    7880:	7a df       	rcall	.-268    	; 0x7776 <__fp_cmp>
    7882:	08 f4       	brcc	.+2      	; 0x7886 <__gesf2+0x6>
    7884:	8f ef       	ldi	r24, 0xFF	; 255
    7886:	08 95       	ret

00007888 <__mulsf3>:
    7888:	0b d0       	rcall	.+22     	; 0x78a0 <__mulsf3x>
    788a:	c0 cf       	rjmp	.-128    	; 0x780c <__fp_round>
    788c:	b1 df       	rcall	.-158    	; 0x77f0 <__fp_pscA>
    788e:	28 f0       	brcs	.+10     	; 0x789a <__mulsf3+0x12>
    7890:	b6 df       	rcall	.-148    	; 0x77fe <__fp_pscB>
    7892:	18 f0       	brcs	.+6      	; 0x789a <__mulsf3+0x12>
    7894:	95 23       	and	r25, r21
    7896:	09 f0       	breq	.+2      	; 0x789a <__mulsf3+0x12>
    7898:	92 cf       	rjmp	.-220    	; 0x77be <__fp_inf>
    789a:	97 cf       	rjmp	.-210    	; 0x77ca <__fp_nan>
    789c:	11 24       	eor	r1, r1
    789e:	ea cf       	rjmp	.-44     	; 0x7874 <__fp_szero>

000078a0 <__mulsf3x>:
    78a0:	c6 df       	rcall	.-116    	; 0x782e <__fp_split3>
    78a2:	a0 f3       	brcs	.-24     	; 0x788c <__mulsf3+0x4>

000078a4 <__mulsf3_pse>:
    78a4:	95 9f       	mul	r25, r21
    78a6:	d1 f3       	breq	.-12     	; 0x789c <__mulsf3+0x14>
    78a8:	95 0f       	add	r25, r21
    78aa:	50 e0       	ldi	r21, 0x00	; 0
    78ac:	55 1f       	adc	r21, r21
    78ae:	62 9f       	mul	r22, r18
    78b0:	f0 01       	movw	r30, r0
    78b2:	72 9f       	mul	r23, r18
    78b4:	bb 27       	eor	r27, r27
    78b6:	f0 0d       	add	r31, r0
    78b8:	b1 1d       	adc	r27, r1
    78ba:	63 9f       	mul	r22, r19
    78bc:	aa 27       	eor	r26, r26
    78be:	f0 0d       	add	r31, r0
    78c0:	b1 1d       	adc	r27, r1
    78c2:	aa 1f       	adc	r26, r26
    78c4:	64 9f       	mul	r22, r20
    78c6:	66 27       	eor	r22, r22
    78c8:	b0 0d       	add	r27, r0
    78ca:	a1 1d       	adc	r26, r1
    78cc:	66 1f       	adc	r22, r22
    78ce:	82 9f       	mul	r24, r18
    78d0:	22 27       	eor	r18, r18
    78d2:	b0 0d       	add	r27, r0
    78d4:	a1 1d       	adc	r26, r1
    78d6:	62 1f       	adc	r22, r18
    78d8:	73 9f       	mul	r23, r19
    78da:	b0 0d       	add	r27, r0
    78dc:	a1 1d       	adc	r26, r1
    78de:	62 1f       	adc	r22, r18
    78e0:	83 9f       	mul	r24, r19
    78e2:	a0 0d       	add	r26, r0
    78e4:	61 1d       	adc	r22, r1
    78e6:	22 1f       	adc	r18, r18
    78e8:	74 9f       	mul	r23, r20
    78ea:	33 27       	eor	r19, r19
    78ec:	a0 0d       	add	r26, r0
    78ee:	61 1d       	adc	r22, r1
    78f0:	23 1f       	adc	r18, r19
    78f2:	84 9f       	mul	r24, r20
    78f4:	60 0d       	add	r22, r0
    78f6:	21 1d       	adc	r18, r1
    78f8:	82 2f       	mov	r24, r18
    78fa:	76 2f       	mov	r23, r22
    78fc:	6a 2f       	mov	r22, r26
    78fe:	11 24       	eor	r1, r1
    7900:	9f 57       	subi	r25, 0x7F	; 127
    7902:	50 40       	sbci	r21, 0x00	; 0
    7904:	8a f0       	brmi	.+34     	; 0x7928 <__mulsf3_pse+0x84>
    7906:	e1 f0       	breq	.+56     	; 0x7940 <__mulsf3_pse+0x9c>
    7908:	88 23       	and	r24, r24
    790a:	4a f0       	brmi	.+18     	; 0x791e <__mulsf3_pse+0x7a>
    790c:	ee 0f       	add	r30, r30
    790e:	ff 1f       	adc	r31, r31
    7910:	bb 1f       	adc	r27, r27
    7912:	66 1f       	adc	r22, r22
    7914:	77 1f       	adc	r23, r23
    7916:	88 1f       	adc	r24, r24
    7918:	91 50       	subi	r25, 0x01	; 1
    791a:	50 40       	sbci	r21, 0x00	; 0
    791c:	a9 f7       	brne	.-22     	; 0x7908 <__mulsf3_pse+0x64>
    791e:	9e 3f       	cpi	r25, 0xFE	; 254
    7920:	51 05       	cpc	r21, r1
    7922:	70 f0       	brcs	.+28     	; 0x7940 <__mulsf3_pse+0x9c>
    7924:	4c cf       	rjmp	.-360    	; 0x77be <__fp_inf>
    7926:	a6 cf       	rjmp	.-180    	; 0x7874 <__fp_szero>
    7928:	5f 3f       	cpi	r21, 0xFF	; 255
    792a:	ec f3       	brlt	.-6      	; 0x7926 <__mulsf3_pse+0x82>
    792c:	98 3e       	cpi	r25, 0xE8	; 232
    792e:	dc f3       	brlt	.-10     	; 0x7926 <__mulsf3_pse+0x82>
    7930:	86 95       	lsr	r24
    7932:	77 95       	ror	r23
    7934:	67 95       	ror	r22
    7936:	b7 95       	ror	r27
    7938:	f7 95       	ror	r31
    793a:	e7 95       	ror	r30
    793c:	9f 5f       	subi	r25, 0xFF	; 255
    793e:	c1 f7       	brne	.-16     	; 0x7930 <__mulsf3_pse+0x8c>
    7940:	fe 2b       	or	r31, r30
    7942:	88 0f       	add	r24, r24
    7944:	91 1d       	adc	r25, r1
    7946:	96 95       	lsr	r25
    7948:	87 95       	ror	r24
    794a:	97 f9       	bld	r25, 7
    794c:	08 95       	ret

0000794e <__mulsi3>:
    794e:	db 01       	movw	r26, r22
    7950:	8f 93       	push	r24
    7952:	9f 93       	push	r25
    7954:	49 d0       	rcall	.+146    	; 0x79e8 <__muluhisi3>
    7956:	bf 91       	pop	r27
    7958:	af 91       	pop	r26
    795a:	a2 9f       	mul	r26, r18
    795c:	80 0d       	add	r24, r0
    795e:	91 1d       	adc	r25, r1
    7960:	a3 9f       	mul	r26, r19
    7962:	90 0d       	add	r25, r0
    7964:	b2 9f       	mul	r27, r18
    7966:	90 0d       	add	r25, r0
    7968:	11 24       	eor	r1, r1
    796a:	08 95       	ret

0000796c <__udivmodhi4>:
    796c:	aa 1b       	sub	r26, r26
    796e:	bb 1b       	sub	r27, r27
    7970:	51 e1       	ldi	r21, 0x11	; 17
    7972:	07 c0       	rjmp	.+14     	; 0x7982 <__udivmodhi4_ep>

00007974 <__udivmodhi4_loop>:
    7974:	aa 1f       	adc	r26, r26
    7976:	bb 1f       	adc	r27, r27
    7978:	a6 17       	cp	r26, r22
    797a:	b7 07       	cpc	r27, r23
    797c:	10 f0       	brcs	.+4      	; 0x7982 <__udivmodhi4_ep>
    797e:	a6 1b       	sub	r26, r22
    7980:	b7 0b       	sbc	r27, r23

00007982 <__udivmodhi4_ep>:
    7982:	88 1f       	adc	r24, r24
    7984:	99 1f       	adc	r25, r25
    7986:	5a 95       	dec	r21
    7988:	a9 f7       	brne	.-22     	; 0x7974 <__udivmodhi4_loop>
    798a:	80 95       	com	r24
    798c:	90 95       	com	r25
    798e:	bc 01       	movw	r22, r24
    7990:	cd 01       	movw	r24, r26
    7992:	08 95       	ret

00007994 <__udivmodsi4>:
    7994:	a1 e2       	ldi	r26, 0x21	; 33
    7996:	1a 2e       	mov	r1, r26
    7998:	aa 1b       	sub	r26, r26
    799a:	bb 1b       	sub	r27, r27
    799c:	fd 01       	movw	r30, r26
    799e:	0d c0       	rjmp	.+26     	; 0x79ba <__udivmodsi4_ep>

000079a0 <__udivmodsi4_loop>:
    79a0:	aa 1f       	adc	r26, r26
    79a2:	bb 1f       	adc	r27, r27
    79a4:	ee 1f       	adc	r30, r30
    79a6:	ff 1f       	adc	r31, r31
    79a8:	a2 17       	cp	r26, r18
    79aa:	b3 07       	cpc	r27, r19
    79ac:	e4 07       	cpc	r30, r20
    79ae:	f5 07       	cpc	r31, r21
    79b0:	20 f0       	brcs	.+8      	; 0x79ba <__udivmodsi4_ep>
    79b2:	a2 1b       	sub	r26, r18
    79b4:	b3 0b       	sbc	r27, r19
    79b6:	e4 0b       	sbc	r30, r20
    79b8:	f5 0b       	sbc	r31, r21

000079ba <__udivmodsi4_ep>:
    79ba:	66 1f       	adc	r22, r22
    79bc:	77 1f       	adc	r23, r23
    79be:	88 1f       	adc	r24, r24
    79c0:	99 1f       	adc	r25, r25
    79c2:	1a 94       	dec	r1
    79c4:	69 f7       	brne	.-38     	; 0x79a0 <__udivmodsi4_loop>
    79c6:	60 95       	com	r22
    79c8:	70 95       	com	r23
    79ca:	80 95       	com	r24
    79cc:	90 95       	com	r25
    79ce:	9b 01       	movw	r18, r22
    79d0:	ac 01       	movw	r20, r24
    79d2:	bd 01       	movw	r22, r26
    79d4:	cf 01       	movw	r24, r30
    79d6:	08 95       	ret

000079d8 <__tablejump2__>:
    79d8:	ee 0f       	add	r30, r30
    79da:	ff 1f       	adc	r31, r31
    79dc:	88 1f       	adc	r24, r24
    79de:	8b bf       	out	0x3b, r24	; 59
    79e0:	07 90       	elpm	r0, Z+
    79e2:	f6 91       	elpm	r31, Z
    79e4:	e0 2d       	mov	r30, r0
    79e6:	19 94       	eijmp

000079e8 <__muluhisi3>:
    79e8:	34 d0       	rcall	.+104    	; 0x7a52 <__umulhisi3>
    79ea:	a5 9f       	mul	r26, r21
    79ec:	90 0d       	add	r25, r0
    79ee:	b4 9f       	mul	r27, r20
    79f0:	90 0d       	add	r25, r0
    79f2:	a4 9f       	mul	r26, r20
    79f4:	80 0d       	add	r24, r0
    79f6:	91 1d       	adc	r25, r1
    79f8:	11 24       	eor	r1, r1
    79fa:	08 95       	ret

000079fc <__ashldi3>:
    79fc:	0f 93       	push	r16
    79fe:	08 30       	cpi	r16, 0x08	; 8
    7a00:	90 f0       	brcs	.+36     	; 0x7a26 <__ashldi3+0x2a>
    7a02:	98 2f       	mov	r25, r24
    7a04:	87 2f       	mov	r24, r23
    7a06:	76 2f       	mov	r23, r22
    7a08:	65 2f       	mov	r22, r21
    7a0a:	54 2f       	mov	r21, r20
    7a0c:	43 2f       	mov	r20, r19
    7a0e:	32 2f       	mov	r19, r18
    7a10:	22 27       	eor	r18, r18
    7a12:	08 50       	subi	r16, 0x08	; 8
    7a14:	f4 cf       	rjmp	.-24     	; 0x79fe <__ashldi3+0x2>
    7a16:	22 0f       	add	r18, r18
    7a18:	33 1f       	adc	r19, r19
    7a1a:	44 1f       	adc	r20, r20
    7a1c:	55 1f       	adc	r21, r21
    7a1e:	66 1f       	adc	r22, r22
    7a20:	77 1f       	adc	r23, r23
    7a22:	88 1f       	adc	r24, r24
    7a24:	99 1f       	adc	r25, r25
    7a26:	0a 95       	dec	r16
    7a28:	b2 f7       	brpl	.-20     	; 0x7a16 <__ashldi3+0x1a>
    7a2a:	0f 91       	pop	r16
    7a2c:	08 95       	ret

00007a2e <__adddi3>:
    7a2e:	2a 0d       	add	r18, r10
    7a30:	3b 1d       	adc	r19, r11
    7a32:	4c 1d       	adc	r20, r12
    7a34:	5d 1d       	adc	r21, r13
    7a36:	6e 1d       	adc	r22, r14
    7a38:	7f 1d       	adc	r23, r15
    7a3a:	80 1f       	adc	r24, r16
    7a3c:	91 1f       	adc	r25, r17
    7a3e:	08 95       	ret

00007a40 <__subdi3>:
    7a40:	2a 19       	sub	r18, r10
    7a42:	3b 09       	sbc	r19, r11
    7a44:	4c 09       	sbc	r20, r12
    7a46:	5d 09       	sbc	r21, r13
    7a48:	6e 09       	sbc	r22, r14
    7a4a:	7f 09       	sbc	r23, r15
    7a4c:	80 0b       	sbc	r24, r16
    7a4e:	91 0b       	sbc	r25, r17
    7a50:	08 95       	ret

00007a52 <__umulhisi3>:
    7a52:	a2 9f       	mul	r26, r18
    7a54:	b0 01       	movw	r22, r0
    7a56:	b3 9f       	mul	r27, r19
    7a58:	c0 01       	movw	r24, r0
    7a5a:	a3 9f       	mul	r26, r19
    7a5c:	70 0d       	add	r23, r0
    7a5e:	81 1d       	adc	r24, r1
    7a60:	11 24       	eor	r1, r1
    7a62:	91 1d       	adc	r25, r1
    7a64:	b2 9f       	mul	r27, r18
    7a66:	70 0d       	add	r23, r0
    7a68:	81 1d       	adc	r24, r1
    7a6a:	11 24       	eor	r1, r1
    7a6c:	91 1d       	adc	r25, r1
    7a6e:	08 95       	ret

00007a70 <strtol>:
    7a70:	3f 92       	push	r3
    7a72:	4f 92       	push	r4
    7a74:	5f 92       	push	r5
    7a76:	6f 92       	push	r6
    7a78:	7f 92       	push	r7
    7a7a:	8f 92       	push	r8
    7a7c:	9f 92       	push	r9
    7a7e:	af 92       	push	r10
    7a80:	bf 92       	push	r11
    7a82:	cf 92       	push	r12
    7a84:	df 92       	push	r13
    7a86:	ef 92       	push	r14
    7a88:	ff 92       	push	r15
    7a8a:	0f 93       	push	r16
    7a8c:	1f 93       	push	r17
    7a8e:	cf 93       	push	r28
    7a90:	df 93       	push	r29
    7a92:	5c 01       	movw	r10, r24
    7a94:	6b 01       	movw	r12, r22
    7a96:	7a 01       	movw	r14, r20
    7a98:	61 15       	cp	r22, r1
    7a9a:	71 05       	cpc	r23, r1
    7a9c:	19 f0       	breq	.+6      	; 0x7aa4 <strtol+0x34>
    7a9e:	fb 01       	movw	r30, r22
    7aa0:	80 83       	st	Z, r24
    7aa2:	91 83       	std	Z+1, r25	; 0x01
    7aa4:	e1 14       	cp	r14, r1
    7aa6:	f1 04       	cpc	r15, r1
    7aa8:	29 f0       	breq	.+10     	; 0x7ab4 <strtol+0x44>
    7aaa:	c7 01       	movw	r24, r14
    7aac:	02 97       	sbiw	r24, 0x02	; 2
    7aae:	83 97       	sbiw	r24, 0x23	; 35
    7ab0:	08 f0       	brcs	.+2      	; 0x7ab4 <strtol+0x44>
    7ab2:	e2 c0       	rjmp	.+452    	; 0x7c78 <strtol+0x208>
    7ab4:	e5 01       	movw	r28, r10
    7ab6:	21 96       	adiw	r28, 0x01	; 1
    7ab8:	f5 01       	movw	r30, r10
    7aba:	10 81       	ld	r17, Z
    7abc:	81 2f       	mov	r24, r17
    7abe:	90 e0       	ldi	r25, 0x00	; 0
    7ac0:	02 d1       	rcall	.+516    	; 0x7cc6 <isspace>
    7ac2:	89 2b       	or	r24, r25
    7ac4:	11 f0       	breq	.+4      	; 0x7aca <strtol+0x5a>
    7ac6:	5e 01       	movw	r10, r28
    7ac8:	f5 cf       	rjmp	.-22     	; 0x7ab4 <strtol+0x44>
    7aca:	1d 32       	cpi	r17, 0x2D	; 45
    7acc:	29 f4       	brne	.+10     	; 0x7ad8 <strtol+0x68>
    7ace:	21 96       	adiw	r28, 0x01	; 1
    7ad0:	f5 01       	movw	r30, r10
    7ad2:	11 81       	ldd	r17, Z+1	; 0x01
    7ad4:	01 e0       	ldi	r16, 0x01	; 1
    7ad6:	07 c0       	rjmp	.+14     	; 0x7ae6 <strtol+0x76>
    7ad8:	1b 32       	cpi	r17, 0x2B	; 43
    7ada:	21 f4       	brne	.+8      	; 0x7ae4 <strtol+0x74>
    7adc:	e5 01       	movw	r28, r10
    7ade:	22 96       	adiw	r28, 0x02	; 2
    7ae0:	f5 01       	movw	r30, r10
    7ae2:	11 81       	ldd	r17, Z+1	; 0x01
    7ae4:	00 e0       	ldi	r16, 0x00	; 0
    7ae6:	e1 14       	cp	r14, r1
    7ae8:	f1 04       	cpc	r15, r1
    7aea:	09 f1       	breq	.+66     	; 0x7b2e <strtol+0xbe>
    7aec:	f0 e1       	ldi	r31, 0x10	; 16
    7aee:	ef 16       	cp	r14, r31
    7af0:	f1 04       	cpc	r15, r1
    7af2:	29 f4       	brne	.+10     	; 0x7afe <strtol+0x8e>
    7af4:	3e c0       	rjmp	.+124    	; 0x7b72 <strtol+0x102>
    7af6:	10 e3       	ldi	r17, 0x30	; 48
    7af8:	e1 14       	cp	r14, r1
    7afa:	f1 04       	cpc	r15, r1
    7afc:	21 f1       	breq	.+72     	; 0x7b46 <strtol+0xd6>
    7afe:	28 e0       	ldi	r18, 0x08	; 8
    7b00:	e2 16       	cp	r14, r18
    7b02:	f1 04       	cpc	r15, r1
    7b04:	01 f1       	breq	.+64     	; 0x7b46 <strtol+0xd6>
    7b06:	54 f4       	brge	.+20     	; 0x7b1c <strtol+0xac>
    7b08:	e2 e0       	ldi	r30, 0x02	; 2
    7b0a:	ee 16       	cp	r14, r30
    7b0c:	f1 04       	cpc	r15, r1
    7b0e:	21 f5       	brne	.+72     	; 0x7b58 <strtol+0xe8>
    7b10:	81 2c       	mov	r8, r1
    7b12:	91 2c       	mov	r9, r1
    7b14:	a1 2c       	mov	r10, r1
    7b16:	b0 e4       	ldi	r27, 0x40	; 64
    7b18:	bb 2e       	mov	r11, r27
    7b1a:	3d c0       	rjmp	.+122    	; 0x7b96 <strtol+0x126>
    7b1c:	fa e0       	ldi	r31, 0x0A	; 10
    7b1e:	ef 16       	cp	r14, r31
    7b20:	f1 04       	cpc	r15, r1
    7b22:	39 f0       	breq	.+14     	; 0x7b32 <strtol+0xc2>
    7b24:	20 e1       	ldi	r18, 0x10	; 16
    7b26:	e2 16       	cp	r14, r18
    7b28:	f1 04       	cpc	r15, r1
    7b2a:	b1 f4       	brne	.+44     	; 0x7b58 <strtol+0xe8>
    7b2c:	2f c0       	rjmp	.+94     	; 0x7b8c <strtol+0x11c>
    7b2e:	10 33       	cpi	r17, 0x30	; 48
    7b30:	11 f1       	breq	.+68     	; 0x7b76 <strtol+0x106>
    7b32:	fa e0       	ldi	r31, 0x0A	; 10
    7b34:	ef 2e       	mov	r14, r31
    7b36:	f1 2c       	mov	r15, r1
    7b38:	ac ec       	ldi	r26, 0xCC	; 204
    7b3a:	8a 2e       	mov	r8, r26
    7b3c:	98 2c       	mov	r9, r8
    7b3e:	a8 2c       	mov	r10, r8
    7b40:	ac e0       	ldi	r26, 0x0C	; 12
    7b42:	ba 2e       	mov	r11, r26
    7b44:	28 c0       	rjmp	.+80     	; 0x7b96 <strtol+0x126>
    7b46:	78 e0       	ldi	r23, 0x08	; 8
    7b48:	e7 2e       	mov	r14, r23
    7b4a:	f1 2c       	mov	r15, r1
    7b4c:	81 2c       	mov	r8, r1
    7b4e:	91 2c       	mov	r9, r1
    7b50:	a1 2c       	mov	r10, r1
    7b52:	e0 e1       	ldi	r30, 0x10	; 16
    7b54:	be 2e       	mov	r11, r30
    7b56:	1f c0       	rjmp	.+62     	; 0x7b96 <strtol+0x126>
    7b58:	60 e0       	ldi	r22, 0x00	; 0
    7b5a:	70 e0       	ldi	r23, 0x00	; 0
    7b5c:	80 e0       	ldi	r24, 0x00	; 0
    7b5e:	90 e8       	ldi	r25, 0x80	; 128
    7b60:	97 01       	movw	r18, r14
    7b62:	0f 2c       	mov	r0, r15
    7b64:	00 0c       	add	r0, r0
    7b66:	44 0b       	sbc	r20, r20
    7b68:	55 0b       	sbc	r21, r21
    7b6a:	14 df       	rcall	.-472    	; 0x7994 <__udivmodsi4>
    7b6c:	49 01       	movw	r8, r18
    7b6e:	5a 01       	movw	r10, r20
    7b70:	12 c0       	rjmp	.+36     	; 0x7b96 <strtol+0x126>
    7b72:	10 33       	cpi	r17, 0x30	; 48
    7b74:	59 f4       	brne	.+22     	; 0x7b8c <strtol+0x11c>
    7b76:	88 81       	ld	r24, Y
    7b78:	8f 7d       	andi	r24, 0xDF	; 223
    7b7a:	88 35       	cpi	r24, 0x58	; 88
    7b7c:	09 f0       	breq	.+2      	; 0x7b80 <strtol+0x110>
    7b7e:	bb cf       	rjmp	.-138    	; 0x7af6 <strtol+0x86>
    7b80:	19 81       	ldd	r17, Y+1	; 0x01
    7b82:	22 96       	adiw	r28, 0x02	; 2
    7b84:	02 60       	ori	r16, 0x02	; 2
    7b86:	80 e1       	ldi	r24, 0x10	; 16
    7b88:	e8 2e       	mov	r14, r24
    7b8a:	f1 2c       	mov	r15, r1
    7b8c:	81 2c       	mov	r8, r1
    7b8e:	91 2c       	mov	r9, r1
    7b90:	a1 2c       	mov	r10, r1
    7b92:	68 e0       	ldi	r22, 0x08	; 8
    7b94:	b6 2e       	mov	r11, r22
    7b96:	40 e0       	ldi	r20, 0x00	; 0
    7b98:	60 e0       	ldi	r22, 0x00	; 0
    7b9a:	70 e0       	ldi	r23, 0x00	; 0
    7b9c:	cb 01       	movw	r24, r22
    7b9e:	27 01       	movw	r4, r14
    7ba0:	0f 2c       	mov	r0, r15
    7ba2:	00 0c       	add	r0, r0
    7ba4:	66 08       	sbc	r6, r6
    7ba6:	77 08       	sbc	r7, r7
    7ba8:	fe 01       	movw	r30, r28
    7baa:	50 ed       	ldi	r21, 0xD0	; 208
    7bac:	35 2e       	mov	r3, r21
    7bae:	31 0e       	add	r3, r17
    7bb0:	29 e0       	ldi	r18, 0x09	; 9
    7bb2:	23 15       	cp	r18, r3
    7bb4:	70 f4       	brcc	.+28     	; 0x7bd2 <strtol+0x162>
    7bb6:	2f eb       	ldi	r18, 0xBF	; 191
    7bb8:	21 0f       	add	r18, r17
    7bba:	2a 31       	cpi	r18, 0x1A	; 26
    7bbc:	18 f4       	brcc	.+6      	; 0x7bc4 <strtol+0x154>
    7bbe:	39 ec       	ldi	r19, 0xC9	; 201
    7bc0:	33 2e       	mov	r3, r19
    7bc2:	06 c0       	rjmp	.+12     	; 0x7bd0 <strtol+0x160>
    7bc4:	2f e9       	ldi	r18, 0x9F	; 159
    7bc6:	21 0f       	add	r18, r17
    7bc8:	2a 31       	cpi	r18, 0x1A	; 26
    7bca:	10 f5       	brcc	.+68     	; 0x7c10 <strtol+0x1a0>
    7bcc:	29 ea       	ldi	r18, 0xA9	; 169
    7bce:	32 2e       	mov	r3, r18
    7bd0:	31 0e       	add	r3, r17
    7bd2:	23 2d       	mov	r18, r3
    7bd4:	30 e0       	ldi	r19, 0x00	; 0
    7bd6:	2e 15       	cp	r18, r14
    7bd8:	3f 05       	cpc	r19, r15
    7bda:	d4 f4       	brge	.+52     	; 0x7c10 <strtol+0x1a0>
    7bdc:	47 fd       	sbrc	r20, 7
    7bde:	15 c0       	rjmp	.+42     	; 0x7c0a <strtol+0x19a>
    7be0:	86 16       	cp	r8, r22
    7be2:	97 06       	cpc	r9, r23
    7be4:	a8 06       	cpc	r10, r24
    7be6:	b9 06       	cpc	r11, r25
    7be8:	68 f0       	brcs	.+26     	; 0x7c04 <strtol+0x194>
    7bea:	a3 01       	movw	r20, r6
    7bec:	92 01       	movw	r18, r4
    7bee:	af de       	rcall	.-674    	; 0x794e <__mulsi3>
    7bf0:	63 0d       	add	r22, r3
    7bf2:	71 1d       	adc	r23, r1
    7bf4:	81 1d       	adc	r24, r1
    7bf6:	91 1d       	adc	r25, r1
    7bf8:	61 30       	cpi	r22, 0x01	; 1
    7bfa:	71 05       	cpc	r23, r1
    7bfc:	81 05       	cpc	r24, r1
    7bfe:	20 e8       	ldi	r18, 0x80	; 128
    7c00:	92 07       	cpc	r25, r18
    7c02:	10 f0       	brcs	.+4      	; 0x7c08 <strtol+0x198>
    7c04:	4f ef       	ldi	r20, 0xFF	; 255
    7c06:	01 c0       	rjmp	.+2      	; 0x7c0a <strtol+0x19a>
    7c08:	41 e0       	ldi	r20, 0x01	; 1
    7c0a:	21 96       	adiw	r28, 0x01	; 1
    7c0c:	10 81       	ld	r17, Z
    7c0e:	cc cf       	rjmp	.-104    	; 0x7ba8 <strtol+0x138>
    7c10:	20 2f       	mov	r18, r16
    7c12:	21 70       	andi	r18, 0x01	; 1
    7c14:	c1 14       	cp	r12, r1
    7c16:	d1 04       	cpc	r13, r1
    7c18:	71 f0       	breq	.+28     	; 0x7c36 <strtol+0x1c6>
    7c1a:	44 23       	and	r20, r20
    7c1c:	29 f0       	breq	.+10     	; 0x7c28 <strtol+0x1b8>
    7c1e:	21 97       	sbiw	r28, 0x01	; 1
    7c20:	f6 01       	movw	r30, r12
    7c22:	c0 83       	st	Z, r28
    7c24:	d1 83       	std	Z+1, r29	; 0x01
    7c26:	07 c0       	rjmp	.+14     	; 0x7c36 <strtol+0x1c6>
    7c28:	01 ff       	sbrs	r16, 1
    7c2a:	19 c0       	rjmp	.+50     	; 0x7c5e <strtol+0x1ee>
    7c2c:	22 97       	sbiw	r28, 0x02	; 2
    7c2e:	f6 01       	movw	r30, r12
    7c30:	c0 83       	st	Z, r28
    7c32:	d1 83       	std	Z+1, r29	; 0x01
    7c34:	14 c0       	rjmp	.+40     	; 0x7c5e <strtol+0x1ee>
    7c36:	47 ff       	sbrs	r20, 7
    7c38:	12 c0       	rjmp	.+36     	; 0x7c5e <strtol+0x1ee>
    7c3a:	22 23       	and	r18, r18
    7c3c:	29 f0       	breq	.+10     	; 0x7c48 <strtol+0x1d8>
    7c3e:	60 e0       	ldi	r22, 0x00	; 0
    7c40:	70 e0       	ldi	r23, 0x00	; 0
    7c42:	80 e0       	ldi	r24, 0x00	; 0
    7c44:	90 e8       	ldi	r25, 0x80	; 128
    7c46:	04 c0       	rjmp	.+8      	; 0x7c50 <strtol+0x1e0>
    7c48:	6f ef       	ldi	r22, 0xFF	; 255
    7c4a:	7f ef       	ldi	r23, 0xFF	; 255
    7c4c:	8f ef       	ldi	r24, 0xFF	; 255
    7c4e:	9f e7       	ldi	r25, 0x7F	; 127
    7c50:	22 e2       	ldi	r18, 0x22	; 34
    7c52:	30 e0       	ldi	r19, 0x00	; 0
    7c54:	20 93 62 29 	sts	0x2962, r18	; 0x802962 <errno>
    7c58:	30 93 63 29 	sts	0x2963, r19	; 0x802963 <errno+0x1>
    7c5c:	09 c0       	rjmp	.+18     	; 0x7c70 <strtol+0x200>
    7c5e:	22 23       	and	r18, r18
    7c60:	81 f0       	breq	.+32     	; 0x7c82 <strtol+0x212>
    7c62:	90 95       	com	r25
    7c64:	80 95       	com	r24
    7c66:	70 95       	com	r23
    7c68:	61 95       	neg	r22
    7c6a:	7f 4f       	sbci	r23, 0xFF	; 255
    7c6c:	8f 4f       	sbci	r24, 0xFF	; 255
    7c6e:	9f 4f       	sbci	r25, 0xFF	; 255
    7c70:	46 2f       	mov	r20, r22
    7c72:	37 2f       	mov	r19, r23
    7c74:	28 2f       	mov	r18, r24
    7c76:	12 c0       	rjmp	.+36     	; 0x7c9c <strtol+0x22c>
    7c78:	40 e0       	ldi	r20, 0x00	; 0
    7c7a:	30 e0       	ldi	r19, 0x00	; 0
    7c7c:	20 e0       	ldi	r18, 0x00	; 0
    7c7e:	90 e0       	ldi	r25, 0x00	; 0
    7c80:	0d c0       	rjmp	.+26     	; 0x7c9c <strtol+0x22c>
    7c82:	97 ff       	sbrs	r25, 7
    7c84:	f5 cf       	rjmp	.-22     	; 0x7c70 <strtol+0x200>
    7c86:	82 e2       	ldi	r24, 0x22	; 34
    7c88:	90 e0       	ldi	r25, 0x00	; 0
    7c8a:	80 93 62 29 	sts	0x2962, r24	; 0x802962 <errno>
    7c8e:	90 93 63 29 	sts	0x2963, r25	; 0x802963 <errno+0x1>
    7c92:	6f ef       	ldi	r22, 0xFF	; 255
    7c94:	7f ef       	ldi	r23, 0xFF	; 255
    7c96:	8f ef       	ldi	r24, 0xFF	; 255
    7c98:	9f e7       	ldi	r25, 0x7F	; 127
    7c9a:	ea cf       	rjmp	.-44     	; 0x7c70 <strtol+0x200>
    7c9c:	64 2f       	mov	r22, r20
    7c9e:	73 2f       	mov	r23, r19
    7ca0:	82 2f       	mov	r24, r18
    7ca2:	df 91       	pop	r29
    7ca4:	cf 91       	pop	r28
    7ca6:	1f 91       	pop	r17
    7ca8:	0f 91       	pop	r16
    7caa:	ff 90       	pop	r15
    7cac:	ef 90       	pop	r14
    7cae:	df 90       	pop	r13
    7cb0:	cf 90       	pop	r12
    7cb2:	bf 90       	pop	r11
    7cb4:	af 90       	pop	r10
    7cb6:	9f 90       	pop	r9
    7cb8:	8f 90       	pop	r8
    7cba:	7f 90       	pop	r7
    7cbc:	6f 90       	pop	r6
    7cbe:	5f 90       	pop	r5
    7cc0:	4f 90       	pop	r4
    7cc2:	3f 90       	pop	r3
    7cc4:	08 95       	ret

00007cc6 <isspace>:
    7cc6:	91 11       	cpse	r25, r1
    7cc8:	44 c2       	rjmp	.+1160   	; 0x8152 <__ctype_isfalse>
    7cca:	80 32       	cpi	r24, 0x20	; 32
    7ccc:	19 f0       	breq	.+6      	; 0x7cd4 <isspace+0xe>
    7cce:	89 50       	subi	r24, 0x09	; 9
    7cd0:	85 50       	subi	r24, 0x05	; 5
    7cd2:	d0 f7       	brcc	.-12     	; 0x7cc8 <isspace+0x2>
    7cd4:	08 95       	ret

00007cd6 <memcpy>:
    7cd6:	fb 01       	movw	r30, r22
    7cd8:	dc 01       	movw	r26, r24
    7cda:	02 c0       	rjmp	.+4      	; 0x7ce0 <memcpy+0xa>
    7cdc:	01 90       	ld	r0, Z+
    7cde:	0d 92       	st	X+, r0
    7ce0:	41 50       	subi	r20, 0x01	; 1
    7ce2:	50 40       	sbci	r21, 0x00	; 0
    7ce4:	d8 f7       	brcc	.-10     	; 0x7cdc <memcpy+0x6>
    7ce6:	08 95       	ret

00007ce8 <memset>:
    7ce8:	dc 01       	movw	r26, r24
    7cea:	01 c0       	rjmp	.+2      	; 0x7cee <memset+0x6>
    7cec:	6d 93       	st	X+, r22
    7cee:	41 50       	subi	r20, 0x01	; 1
    7cf0:	50 40       	sbci	r21, 0x00	; 0
    7cf2:	e0 f7       	brcc	.-8      	; 0x7cec <memset+0x4>
    7cf4:	08 95       	ret

00007cf6 <strncpy>:
    7cf6:	fb 01       	movw	r30, r22
    7cf8:	dc 01       	movw	r26, r24
    7cfa:	41 50       	subi	r20, 0x01	; 1
    7cfc:	50 40       	sbci	r21, 0x00	; 0
    7cfe:	48 f0       	brcs	.+18     	; 0x7d12 <strncpy+0x1c>
    7d00:	01 90       	ld	r0, Z+
    7d02:	0d 92       	st	X+, r0
    7d04:	00 20       	and	r0, r0
    7d06:	c9 f7       	brne	.-14     	; 0x7cfa <strncpy+0x4>
    7d08:	01 c0       	rjmp	.+2      	; 0x7d0c <strncpy+0x16>
    7d0a:	1d 92       	st	X+, r1
    7d0c:	41 50       	subi	r20, 0x01	; 1
    7d0e:	50 40       	sbci	r21, 0x00	; 0
    7d10:	e0 f7       	brcc	.-8      	; 0x7d0a <strncpy+0x14>
    7d12:	08 95       	ret

00007d14 <sprintf>:
    7d14:	0f 93       	push	r16
    7d16:	1f 93       	push	r17
    7d18:	cf 93       	push	r28
    7d1a:	df 93       	push	r29
    7d1c:	cd b7       	in	r28, 0x3d	; 61
    7d1e:	de b7       	in	r29, 0x3e	; 62
    7d20:	2e 97       	sbiw	r28, 0x0e	; 14
    7d22:	cd bf       	out	0x3d, r28	; 61
    7d24:	de bf       	out	0x3e, r29	; 62
    7d26:	0e 89       	ldd	r16, Y+22	; 0x16
    7d28:	1f 89       	ldd	r17, Y+23	; 0x17
    7d2a:	86 e0       	ldi	r24, 0x06	; 6
    7d2c:	8c 83       	std	Y+4, r24	; 0x04
    7d2e:	09 83       	std	Y+1, r16	; 0x01
    7d30:	1a 83       	std	Y+2, r17	; 0x02
    7d32:	8f ef       	ldi	r24, 0xFF	; 255
    7d34:	9f e7       	ldi	r25, 0x7F	; 127
    7d36:	8d 83       	std	Y+5, r24	; 0x05
    7d38:	9e 83       	std	Y+6, r25	; 0x06
    7d3a:	ae 01       	movw	r20, r28
    7d3c:	46 5e       	subi	r20, 0xE6	; 230
    7d3e:	5f 4f       	sbci	r21, 0xFF	; 255
    7d40:	68 8d       	ldd	r22, Y+24	; 0x18
    7d42:	79 8d       	ldd	r23, Y+25	; 0x19
    7d44:	ce 01       	movw	r24, r28
    7d46:	01 96       	adiw	r24, 0x01	; 1
    7d48:	0d d0       	rcall	.+26     	; 0x7d64 <vfprintf>
    7d4a:	ef 81       	ldd	r30, Y+7	; 0x07
    7d4c:	f8 85       	ldd	r31, Y+8	; 0x08
    7d4e:	e0 0f       	add	r30, r16
    7d50:	f1 1f       	adc	r31, r17
    7d52:	10 82       	st	Z, r1
    7d54:	2e 96       	adiw	r28, 0x0e	; 14
    7d56:	cd bf       	out	0x3d, r28	; 61
    7d58:	de bf       	out	0x3e, r29	; 62
    7d5a:	df 91       	pop	r29
    7d5c:	cf 91       	pop	r28
    7d5e:	1f 91       	pop	r17
    7d60:	0f 91       	pop	r16
    7d62:	08 95       	ret

00007d64 <vfprintf>:
    7d64:	2f 92       	push	r2
    7d66:	3f 92       	push	r3
    7d68:	4f 92       	push	r4
    7d6a:	5f 92       	push	r5
    7d6c:	6f 92       	push	r6
    7d6e:	7f 92       	push	r7
    7d70:	8f 92       	push	r8
    7d72:	9f 92       	push	r9
    7d74:	af 92       	push	r10
    7d76:	bf 92       	push	r11
    7d78:	cf 92       	push	r12
    7d7a:	df 92       	push	r13
    7d7c:	ef 92       	push	r14
    7d7e:	ff 92       	push	r15
    7d80:	0f 93       	push	r16
    7d82:	1f 93       	push	r17
    7d84:	cf 93       	push	r28
    7d86:	df 93       	push	r29
    7d88:	cd b7       	in	r28, 0x3d	; 61
    7d8a:	de b7       	in	r29, 0x3e	; 62
    7d8c:	2b 97       	sbiw	r28, 0x0b	; 11
    7d8e:	cd bf       	out	0x3d, r28	; 61
    7d90:	de bf       	out	0x3e, r29	; 62
    7d92:	6c 01       	movw	r12, r24
    7d94:	7b 01       	movw	r14, r22
    7d96:	8a 01       	movw	r16, r20
    7d98:	fc 01       	movw	r30, r24
    7d9a:	16 82       	std	Z+6, r1	; 0x06
    7d9c:	17 82       	std	Z+7, r1	; 0x07
    7d9e:	83 81       	ldd	r24, Z+3	; 0x03
    7da0:	81 ff       	sbrs	r24, 1
    7da2:	bf c1       	rjmp	.+894    	; 0x8122 <vfprintf+0x3be>
    7da4:	ce 01       	movw	r24, r28
    7da6:	01 96       	adiw	r24, 0x01	; 1
    7da8:	3c 01       	movw	r6, r24
    7daa:	f6 01       	movw	r30, r12
    7dac:	93 81       	ldd	r25, Z+3	; 0x03
    7dae:	f7 01       	movw	r30, r14
    7db0:	93 fd       	sbrc	r25, 3
    7db2:	85 91       	lpm	r24, Z+
    7db4:	93 ff       	sbrs	r25, 3
    7db6:	81 91       	ld	r24, Z+
    7db8:	7f 01       	movw	r14, r30
    7dba:	88 23       	and	r24, r24
    7dbc:	09 f4       	brne	.+2      	; 0x7dc0 <vfprintf+0x5c>
    7dbe:	ad c1       	rjmp	.+858    	; 0x811a <vfprintf+0x3b6>
    7dc0:	85 32       	cpi	r24, 0x25	; 37
    7dc2:	39 f4       	brne	.+14     	; 0x7dd2 <vfprintf+0x6e>
    7dc4:	93 fd       	sbrc	r25, 3
    7dc6:	85 91       	lpm	r24, Z+
    7dc8:	93 ff       	sbrs	r25, 3
    7dca:	81 91       	ld	r24, Z+
    7dcc:	7f 01       	movw	r14, r30
    7dce:	85 32       	cpi	r24, 0x25	; 37
    7dd0:	21 f4       	brne	.+8      	; 0x7dda <vfprintf+0x76>
    7dd2:	b6 01       	movw	r22, r12
    7dd4:	90 e0       	ldi	r25, 0x00	; 0
    7dd6:	d6 d1       	rcall	.+940    	; 0x8184 <fputc>
    7dd8:	e8 cf       	rjmp	.-48     	; 0x7daa <vfprintf+0x46>
    7dda:	91 2c       	mov	r9, r1
    7ddc:	21 2c       	mov	r2, r1
    7dde:	31 2c       	mov	r3, r1
    7de0:	ff e1       	ldi	r31, 0x1F	; 31
    7de2:	f3 15       	cp	r31, r3
    7de4:	d8 f0       	brcs	.+54     	; 0x7e1c <vfprintf+0xb8>
    7de6:	8b 32       	cpi	r24, 0x2B	; 43
    7de8:	79 f0       	breq	.+30     	; 0x7e08 <vfprintf+0xa4>
    7dea:	38 f4       	brcc	.+14     	; 0x7dfa <vfprintf+0x96>
    7dec:	80 32       	cpi	r24, 0x20	; 32
    7dee:	79 f0       	breq	.+30     	; 0x7e0e <vfprintf+0xaa>
    7df0:	83 32       	cpi	r24, 0x23	; 35
    7df2:	a1 f4       	brne	.+40     	; 0x7e1c <vfprintf+0xb8>
    7df4:	23 2d       	mov	r18, r3
    7df6:	20 61       	ori	r18, 0x10	; 16
    7df8:	1d c0       	rjmp	.+58     	; 0x7e34 <vfprintf+0xd0>
    7dfa:	8d 32       	cpi	r24, 0x2D	; 45
    7dfc:	61 f0       	breq	.+24     	; 0x7e16 <vfprintf+0xb2>
    7dfe:	80 33       	cpi	r24, 0x30	; 48
    7e00:	69 f4       	brne	.+26     	; 0x7e1c <vfprintf+0xb8>
    7e02:	23 2d       	mov	r18, r3
    7e04:	21 60       	ori	r18, 0x01	; 1
    7e06:	16 c0       	rjmp	.+44     	; 0x7e34 <vfprintf+0xd0>
    7e08:	83 2d       	mov	r24, r3
    7e0a:	82 60       	ori	r24, 0x02	; 2
    7e0c:	38 2e       	mov	r3, r24
    7e0e:	e3 2d       	mov	r30, r3
    7e10:	e4 60       	ori	r30, 0x04	; 4
    7e12:	3e 2e       	mov	r3, r30
    7e14:	2a c0       	rjmp	.+84     	; 0x7e6a <vfprintf+0x106>
    7e16:	f3 2d       	mov	r31, r3
    7e18:	f8 60       	ori	r31, 0x08	; 8
    7e1a:	1d c0       	rjmp	.+58     	; 0x7e56 <vfprintf+0xf2>
    7e1c:	37 fc       	sbrc	r3, 7
    7e1e:	2d c0       	rjmp	.+90     	; 0x7e7a <vfprintf+0x116>
    7e20:	20 ed       	ldi	r18, 0xD0	; 208
    7e22:	28 0f       	add	r18, r24
    7e24:	2a 30       	cpi	r18, 0x0A	; 10
    7e26:	40 f0       	brcs	.+16     	; 0x7e38 <vfprintf+0xd4>
    7e28:	8e 32       	cpi	r24, 0x2E	; 46
    7e2a:	b9 f4       	brne	.+46     	; 0x7e5a <vfprintf+0xf6>
    7e2c:	36 fc       	sbrc	r3, 6
    7e2e:	75 c1       	rjmp	.+746    	; 0x811a <vfprintf+0x3b6>
    7e30:	23 2d       	mov	r18, r3
    7e32:	20 64       	ori	r18, 0x40	; 64
    7e34:	32 2e       	mov	r3, r18
    7e36:	19 c0       	rjmp	.+50     	; 0x7e6a <vfprintf+0x106>
    7e38:	36 fe       	sbrs	r3, 6
    7e3a:	06 c0       	rjmp	.+12     	; 0x7e48 <vfprintf+0xe4>
    7e3c:	8a e0       	ldi	r24, 0x0A	; 10
    7e3e:	98 9e       	mul	r9, r24
    7e40:	20 0d       	add	r18, r0
    7e42:	11 24       	eor	r1, r1
    7e44:	92 2e       	mov	r9, r18
    7e46:	11 c0       	rjmp	.+34     	; 0x7e6a <vfprintf+0x106>
    7e48:	ea e0       	ldi	r30, 0x0A	; 10
    7e4a:	2e 9e       	mul	r2, r30
    7e4c:	20 0d       	add	r18, r0
    7e4e:	11 24       	eor	r1, r1
    7e50:	22 2e       	mov	r2, r18
    7e52:	f3 2d       	mov	r31, r3
    7e54:	f0 62       	ori	r31, 0x20	; 32
    7e56:	3f 2e       	mov	r3, r31
    7e58:	08 c0       	rjmp	.+16     	; 0x7e6a <vfprintf+0x106>
    7e5a:	8c 36       	cpi	r24, 0x6C	; 108
    7e5c:	21 f4       	brne	.+8      	; 0x7e66 <vfprintf+0x102>
    7e5e:	83 2d       	mov	r24, r3
    7e60:	80 68       	ori	r24, 0x80	; 128
    7e62:	38 2e       	mov	r3, r24
    7e64:	02 c0       	rjmp	.+4      	; 0x7e6a <vfprintf+0x106>
    7e66:	88 36       	cpi	r24, 0x68	; 104
    7e68:	41 f4       	brne	.+16     	; 0x7e7a <vfprintf+0x116>
    7e6a:	f7 01       	movw	r30, r14
    7e6c:	93 fd       	sbrc	r25, 3
    7e6e:	85 91       	lpm	r24, Z+
    7e70:	93 ff       	sbrs	r25, 3
    7e72:	81 91       	ld	r24, Z+
    7e74:	7f 01       	movw	r14, r30
    7e76:	81 11       	cpse	r24, r1
    7e78:	b3 cf       	rjmp	.-154    	; 0x7de0 <vfprintf+0x7c>
    7e7a:	98 2f       	mov	r25, r24
    7e7c:	9f 7d       	andi	r25, 0xDF	; 223
    7e7e:	95 54       	subi	r25, 0x45	; 69
    7e80:	93 30       	cpi	r25, 0x03	; 3
    7e82:	28 f4       	brcc	.+10     	; 0x7e8e <vfprintf+0x12a>
    7e84:	0c 5f       	subi	r16, 0xFC	; 252
    7e86:	1f 4f       	sbci	r17, 0xFF	; 255
    7e88:	9f e3       	ldi	r25, 0x3F	; 63
    7e8a:	99 83       	std	Y+1, r25	; 0x01
    7e8c:	0d c0       	rjmp	.+26     	; 0x7ea8 <vfprintf+0x144>
    7e8e:	83 36       	cpi	r24, 0x63	; 99
    7e90:	31 f0       	breq	.+12     	; 0x7e9e <vfprintf+0x13a>
    7e92:	83 37       	cpi	r24, 0x73	; 115
    7e94:	71 f0       	breq	.+28     	; 0x7eb2 <vfprintf+0x14e>
    7e96:	83 35       	cpi	r24, 0x53	; 83
    7e98:	09 f0       	breq	.+2      	; 0x7e9c <vfprintf+0x138>
    7e9a:	55 c0       	rjmp	.+170    	; 0x7f46 <vfprintf+0x1e2>
    7e9c:	20 c0       	rjmp	.+64     	; 0x7ede <vfprintf+0x17a>
    7e9e:	f8 01       	movw	r30, r16
    7ea0:	80 81       	ld	r24, Z
    7ea2:	89 83       	std	Y+1, r24	; 0x01
    7ea4:	0e 5f       	subi	r16, 0xFE	; 254
    7ea6:	1f 4f       	sbci	r17, 0xFF	; 255
    7ea8:	88 24       	eor	r8, r8
    7eaa:	83 94       	inc	r8
    7eac:	91 2c       	mov	r9, r1
    7eae:	53 01       	movw	r10, r6
    7eb0:	12 c0       	rjmp	.+36     	; 0x7ed6 <vfprintf+0x172>
    7eb2:	28 01       	movw	r4, r16
    7eb4:	f2 e0       	ldi	r31, 0x02	; 2
    7eb6:	4f 0e       	add	r4, r31
    7eb8:	51 1c       	adc	r5, r1
    7eba:	f8 01       	movw	r30, r16
    7ebc:	a0 80       	ld	r10, Z
    7ebe:	b1 80       	ldd	r11, Z+1	; 0x01
    7ec0:	36 fe       	sbrs	r3, 6
    7ec2:	03 c0       	rjmp	.+6      	; 0x7eca <vfprintf+0x166>
    7ec4:	69 2d       	mov	r22, r9
    7ec6:	70 e0       	ldi	r23, 0x00	; 0
    7ec8:	02 c0       	rjmp	.+4      	; 0x7ece <vfprintf+0x16a>
    7eca:	6f ef       	ldi	r22, 0xFF	; 255
    7ecc:	7f ef       	ldi	r23, 0xFF	; 255
    7ece:	c5 01       	movw	r24, r10
    7ed0:	4e d1       	rcall	.+668    	; 0x816e <strnlen>
    7ed2:	4c 01       	movw	r8, r24
    7ed4:	82 01       	movw	r16, r4
    7ed6:	f3 2d       	mov	r31, r3
    7ed8:	ff 77       	andi	r31, 0x7F	; 127
    7eda:	3f 2e       	mov	r3, r31
    7edc:	15 c0       	rjmp	.+42     	; 0x7f08 <vfprintf+0x1a4>
    7ede:	28 01       	movw	r4, r16
    7ee0:	22 e0       	ldi	r18, 0x02	; 2
    7ee2:	42 0e       	add	r4, r18
    7ee4:	51 1c       	adc	r5, r1
    7ee6:	f8 01       	movw	r30, r16
    7ee8:	a0 80       	ld	r10, Z
    7eea:	b1 80       	ldd	r11, Z+1	; 0x01
    7eec:	36 fe       	sbrs	r3, 6
    7eee:	03 c0       	rjmp	.+6      	; 0x7ef6 <vfprintf+0x192>
    7ef0:	69 2d       	mov	r22, r9
    7ef2:	70 e0       	ldi	r23, 0x00	; 0
    7ef4:	02 c0       	rjmp	.+4      	; 0x7efa <vfprintf+0x196>
    7ef6:	6f ef       	ldi	r22, 0xFF	; 255
    7ef8:	7f ef       	ldi	r23, 0xFF	; 255
    7efa:	c5 01       	movw	r24, r10
    7efc:	2d d1       	rcall	.+602    	; 0x8158 <strnlen_P>
    7efe:	4c 01       	movw	r8, r24
    7f00:	f3 2d       	mov	r31, r3
    7f02:	f0 68       	ori	r31, 0x80	; 128
    7f04:	3f 2e       	mov	r3, r31
    7f06:	82 01       	movw	r16, r4
    7f08:	33 fc       	sbrc	r3, 3
    7f0a:	19 c0       	rjmp	.+50     	; 0x7f3e <vfprintf+0x1da>
    7f0c:	82 2d       	mov	r24, r2
    7f0e:	90 e0       	ldi	r25, 0x00	; 0
    7f10:	88 16       	cp	r8, r24
    7f12:	99 06       	cpc	r9, r25
    7f14:	a0 f4       	brcc	.+40     	; 0x7f3e <vfprintf+0x1da>
    7f16:	b6 01       	movw	r22, r12
    7f18:	80 e2       	ldi	r24, 0x20	; 32
    7f1a:	90 e0       	ldi	r25, 0x00	; 0
    7f1c:	33 d1       	rcall	.+614    	; 0x8184 <fputc>
    7f1e:	2a 94       	dec	r2
    7f20:	f5 cf       	rjmp	.-22     	; 0x7f0c <vfprintf+0x1a8>
    7f22:	f5 01       	movw	r30, r10
    7f24:	37 fc       	sbrc	r3, 7
    7f26:	85 91       	lpm	r24, Z+
    7f28:	37 fe       	sbrs	r3, 7
    7f2a:	81 91       	ld	r24, Z+
    7f2c:	5f 01       	movw	r10, r30
    7f2e:	b6 01       	movw	r22, r12
    7f30:	90 e0       	ldi	r25, 0x00	; 0
    7f32:	28 d1       	rcall	.+592    	; 0x8184 <fputc>
    7f34:	21 10       	cpse	r2, r1
    7f36:	2a 94       	dec	r2
    7f38:	21 e0       	ldi	r18, 0x01	; 1
    7f3a:	82 1a       	sub	r8, r18
    7f3c:	91 08       	sbc	r9, r1
    7f3e:	81 14       	cp	r8, r1
    7f40:	91 04       	cpc	r9, r1
    7f42:	79 f7       	brne	.-34     	; 0x7f22 <vfprintf+0x1be>
    7f44:	e1 c0       	rjmp	.+450    	; 0x8108 <vfprintf+0x3a4>
    7f46:	84 36       	cpi	r24, 0x64	; 100
    7f48:	11 f0       	breq	.+4      	; 0x7f4e <vfprintf+0x1ea>
    7f4a:	89 36       	cpi	r24, 0x69	; 105
    7f4c:	39 f5       	brne	.+78     	; 0x7f9c <vfprintf+0x238>
    7f4e:	f8 01       	movw	r30, r16
    7f50:	37 fe       	sbrs	r3, 7
    7f52:	07 c0       	rjmp	.+14     	; 0x7f62 <vfprintf+0x1fe>
    7f54:	60 81       	ld	r22, Z
    7f56:	71 81       	ldd	r23, Z+1	; 0x01
    7f58:	82 81       	ldd	r24, Z+2	; 0x02
    7f5a:	93 81       	ldd	r25, Z+3	; 0x03
    7f5c:	0c 5f       	subi	r16, 0xFC	; 252
    7f5e:	1f 4f       	sbci	r17, 0xFF	; 255
    7f60:	08 c0       	rjmp	.+16     	; 0x7f72 <vfprintf+0x20e>
    7f62:	60 81       	ld	r22, Z
    7f64:	71 81       	ldd	r23, Z+1	; 0x01
    7f66:	07 2e       	mov	r0, r23
    7f68:	00 0c       	add	r0, r0
    7f6a:	88 0b       	sbc	r24, r24
    7f6c:	99 0b       	sbc	r25, r25
    7f6e:	0e 5f       	subi	r16, 0xFE	; 254
    7f70:	1f 4f       	sbci	r17, 0xFF	; 255
    7f72:	f3 2d       	mov	r31, r3
    7f74:	ff 76       	andi	r31, 0x6F	; 111
    7f76:	3f 2e       	mov	r3, r31
    7f78:	97 ff       	sbrs	r25, 7
    7f7a:	09 c0       	rjmp	.+18     	; 0x7f8e <vfprintf+0x22a>
    7f7c:	90 95       	com	r25
    7f7e:	80 95       	com	r24
    7f80:	70 95       	com	r23
    7f82:	61 95       	neg	r22
    7f84:	7f 4f       	sbci	r23, 0xFF	; 255
    7f86:	8f 4f       	sbci	r24, 0xFF	; 255
    7f88:	9f 4f       	sbci	r25, 0xFF	; 255
    7f8a:	f0 68       	ori	r31, 0x80	; 128
    7f8c:	3f 2e       	mov	r3, r31
    7f8e:	2a e0       	ldi	r18, 0x0A	; 10
    7f90:	30 e0       	ldi	r19, 0x00	; 0
    7f92:	a3 01       	movw	r20, r6
    7f94:	33 d1       	rcall	.+614    	; 0x81fc <__ultoa_invert>
    7f96:	88 2e       	mov	r8, r24
    7f98:	86 18       	sub	r8, r6
    7f9a:	44 c0       	rjmp	.+136    	; 0x8024 <vfprintf+0x2c0>
    7f9c:	85 37       	cpi	r24, 0x75	; 117
    7f9e:	31 f4       	brne	.+12     	; 0x7fac <vfprintf+0x248>
    7fa0:	23 2d       	mov	r18, r3
    7fa2:	2f 7e       	andi	r18, 0xEF	; 239
    7fa4:	b2 2e       	mov	r11, r18
    7fa6:	2a e0       	ldi	r18, 0x0A	; 10
    7fa8:	30 e0       	ldi	r19, 0x00	; 0
    7faa:	25 c0       	rjmp	.+74     	; 0x7ff6 <vfprintf+0x292>
    7fac:	93 2d       	mov	r25, r3
    7fae:	99 7f       	andi	r25, 0xF9	; 249
    7fb0:	b9 2e       	mov	r11, r25
    7fb2:	8f 36       	cpi	r24, 0x6F	; 111
    7fb4:	c1 f0       	breq	.+48     	; 0x7fe6 <vfprintf+0x282>
    7fb6:	18 f4       	brcc	.+6      	; 0x7fbe <vfprintf+0x25a>
    7fb8:	88 35       	cpi	r24, 0x58	; 88
    7fba:	79 f0       	breq	.+30     	; 0x7fda <vfprintf+0x276>
    7fbc:	ae c0       	rjmp	.+348    	; 0x811a <vfprintf+0x3b6>
    7fbe:	80 37       	cpi	r24, 0x70	; 112
    7fc0:	19 f0       	breq	.+6      	; 0x7fc8 <vfprintf+0x264>
    7fc2:	88 37       	cpi	r24, 0x78	; 120
    7fc4:	21 f0       	breq	.+8      	; 0x7fce <vfprintf+0x26a>
    7fc6:	a9 c0       	rjmp	.+338    	; 0x811a <vfprintf+0x3b6>
    7fc8:	e9 2f       	mov	r30, r25
    7fca:	e0 61       	ori	r30, 0x10	; 16
    7fcc:	be 2e       	mov	r11, r30
    7fce:	b4 fe       	sbrs	r11, 4
    7fd0:	0d c0       	rjmp	.+26     	; 0x7fec <vfprintf+0x288>
    7fd2:	fb 2d       	mov	r31, r11
    7fd4:	f4 60       	ori	r31, 0x04	; 4
    7fd6:	bf 2e       	mov	r11, r31
    7fd8:	09 c0       	rjmp	.+18     	; 0x7fec <vfprintf+0x288>
    7fda:	34 fe       	sbrs	r3, 4
    7fdc:	0a c0       	rjmp	.+20     	; 0x7ff2 <vfprintf+0x28e>
    7fde:	29 2f       	mov	r18, r25
    7fe0:	26 60       	ori	r18, 0x06	; 6
    7fe2:	b2 2e       	mov	r11, r18
    7fe4:	06 c0       	rjmp	.+12     	; 0x7ff2 <vfprintf+0x28e>
    7fe6:	28 e0       	ldi	r18, 0x08	; 8
    7fe8:	30 e0       	ldi	r19, 0x00	; 0
    7fea:	05 c0       	rjmp	.+10     	; 0x7ff6 <vfprintf+0x292>
    7fec:	20 e1       	ldi	r18, 0x10	; 16
    7fee:	30 e0       	ldi	r19, 0x00	; 0
    7ff0:	02 c0       	rjmp	.+4      	; 0x7ff6 <vfprintf+0x292>
    7ff2:	20 e1       	ldi	r18, 0x10	; 16
    7ff4:	32 e0       	ldi	r19, 0x02	; 2
    7ff6:	f8 01       	movw	r30, r16
    7ff8:	b7 fe       	sbrs	r11, 7
    7ffa:	07 c0       	rjmp	.+14     	; 0x800a <vfprintf+0x2a6>
    7ffc:	60 81       	ld	r22, Z
    7ffe:	71 81       	ldd	r23, Z+1	; 0x01
    8000:	82 81       	ldd	r24, Z+2	; 0x02
    8002:	93 81       	ldd	r25, Z+3	; 0x03
    8004:	0c 5f       	subi	r16, 0xFC	; 252
    8006:	1f 4f       	sbci	r17, 0xFF	; 255
    8008:	06 c0       	rjmp	.+12     	; 0x8016 <vfprintf+0x2b2>
    800a:	60 81       	ld	r22, Z
    800c:	71 81       	ldd	r23, Z+1	; 0x01
    800e:	80 e0       	ldi	r24, 0x00	; 0
    8010:	90 e0       	ldi	r25, 0x00	; 0
    8012:	0e 5f       	subi	r16, 0xFE	; 254
    8014:	1f 4f       	sbci	r17, 0xFF	; 255
    8016:	a3 01       	movw	r20, r6
    8018:	f1 d0       	rcall	.+482    	; 0x81fc <__ultoa_invert>
    801a:	88 2e       	mov	r8, r24
    801c:	86 18       	sub	r8, r6
    801e:	fb 2d       	mov	r31, r11
    8020:	ff 77       	andi	r31, 0x7F	; 127
    8022:	3f 2e       	mov	r3, r31
    8024:	36 fe       	sbrs	r3, 6
    8026:	0d c0       	rjmp	.+26     	; 0x8042 <vfprintf+0x2de>
    8028:	23 2d       	mov	r18, r3
    802a:	2e 7f       	andi	r18, 0xFE	; 254
    802c:	a2 2e       	mov	r10, r18
    802e:	89 14       	cp	r8, r9
    8030:	58 f4       	brcc	.+22     	; 0x8048 <vfprintf+0x2e4>
    8032:	34 fe       	sbrs	r3, 4
    8034:	0b c0       	rjmp	.+22     	; 0x804c <vfprintf+0x2e8>
    8036:	32 fc       	sbrc	r3, 2
    8038:	09 c0       	rjmp	.+18     	; 0x804c <vfprintf+0x2e8>
    803a:	83 2d       	mov	r24, r3
    803c:	8e 7e       	andi	r24, 0xEE	; 238
    803e:	a8 2e       	mov	r10, r24
    8040:	05 c0       	rjmp	.+10     	; 0x804c <vfprintf+0x2e8>
    8042:	b8 2c       	mov	r11, r8
    8044:	a3 2c       	mov	r10, r3
    8046:	03 c0       	rjmp	.+6      	; 0x804e <vfprintf+0x2ea>
    8048:	b8 2c       	mov	r11, r8
    804a:	01 c0       	rjmp	.+2      	; 0x804e <vfprintf+0x2ea>
    804c:	b9 2c       	mov	r11, r9
    804e:	a4 fe       	sbrs	r10, 4
    8050:	0f c0       	rjmp	.+30     	; 0x8070 <vfprintf+0x30c>
    8052:	fe 01       	movw	r30, r28
    8054:	e8 0d       	add	r30, r8
    8056:	f1 1d       	adc	r31, r1
    8058:	80 81       	ld	r24, Z
    805a:	80 33       	cpi	r24, 0x30	; 48
    805c:	21 f4       	brne	.+8      	; 0x8066 <vfprintf+0x302>
    805e:	9a 2d       	mov	r25, r10
    8060:	99 7e       	andi	r25, 0xE9	; 233
    8062:	a9 2e       	mov	r10, r25
    8064:	09 c0       	rjmp	.+18     	; 0x8078 <vfprintf+0x314>
    8066:	a2 fe       	sbrs	r10, 2
    8068:	06 c0       	rjmp	.+12     	; 0x8076 <vfprintf+0x312>
    806a:	b3 94       	inc	r11
    806c:	b3 94       	inc	r11
    806e:	04 c0       	rjmp	.+8      	; 0x8078 <vfprintf+0x314>
    8070:	8a 2d       	mov	r24, r10
    8072:	86 78       	andi	r24, 0x86	; 134
    8074:	09 f0       	breq	.+2      	; 0x8078 <vfprintf+0x314>
    8076:	b3 94       	inc	r11
    8078:	a3 fc       	sbrc	r10, 3
    807a:	10 c0       	rjmp	.+32     	; 0x809c <vfprintf+0x338>
    807c:	a0 fe       	sbrs	r10, 0
    807e:	06 c0       	rjmp	.+12     	; 0x808c <vfprintf+0x328>
    8080:	b2 14       	cp	r11, r2
    8082:	80 f4       	brcc	.+32     	; 0x80a4 <vfprintf+0x340>
    8084:	28 0c       	add	r2, r8
    8086:	92 2c       	mov	r9, r2
    8088:	9b 18       	sub	r9, r11
    808a:	0d c0       	rjmp	.+26     	; 0x80a6 <vfprintf+0x342>
    808c:	b2 14       	cp	r11, r2
    808e:	58 f4       	brcc	.+22     	; 0x80a6 <vfprintf+0x342>
    8090:	b6 01       	movw	r22, r12
    8092:	80 e2       	ldi	r24, 0x20	; 32
    8094:	90 e0       	ldi	r25, 0x00	; 0
    8096:	76 d0       	rcall	.+236    	; 0x8184 <fputc>
    8098:	b3 94       	inc	r11
    809a:	f8 cf       	rjmp	.-16     	; 0x808c <vfprintf+0x328>
    809c:	b2 14       	cp	r11, r2
    809e:	18 f4       	brcc	.+6      	; 0x80a6 <vfprintf+0x342>
    80a0:	2b 18       	sub	r2, r11
    80a2:	02 c0       	rjmp	.+4      	; 0x80a8 <vfprintf+0x344>
    80a4:	98 2c       	mov	r9, r8
    80a6:	21 2c       	mov	r2, r1
    80a8:	a4 fe       	sbrs	r10, 4
    80aa:	0f c0       	rjmp	.+30     	; 0x80ca <vfprintf+0x366>
    80ac:	b6 01       	movw	r22, r12
    80ae:	80 e3       	ldi	r24, 0x30	; 48
    80b0:	90 e0       	ldi	r25, 0x00	; 0
    80b2:	68 d0       	rcall	.+208    	; 0x8184 <fputc>
    80b4:	a2 fe       	sbrs	r10, 2
    80b6:	16 c0       	rjmp	.+44     	; 0x80e4 <vfprintf+0x380>
    80b8:	a1 fc       	sbrc	r10, 1
    80ba:	03 c0       	rjmp	.+6      	; 0x80c2 <vfprintf+0x35e>
    80bc:	88 e7       	ldi	r24, 0x78	; 120
    80be:	90 e0       	ldi	r25, 0x00	; 0
    80c0:	02 c0       	rjmp	.+4      	; 0x80c6 <vfprintf+0x362>
    80c2:	88 e5       	ldi	r24, 0x58	; 88
    80c4:	90 e0       	ldi	r25, 0x00	; 0
    80c6:	b6 01       	movw	r22, r12
    80c8:	0c c0       	rjmp	.+24     	; 0x80e2 <vfprintf+0x37e>
    80ca:	8a 2d       	mov	r24, r10
    80cc:	86 78       	andi	r24, 0x86	; 134
    80ce:	51 f0       	breq	.+20     	; 0x80e4 <vfprintf+0x380>
    80d0:	a1 fe       	sbrs	r10, 1
    80d2:	02 c0       	rjmp	.+4      	; 0x80d8 <vfprintf+0x374>
    80d4:	8b e2       	ldi	r24, 0x2B	; 43
    80d6:	01 c0       	rjmp	.+2      	; 0x80da <vfprintf+0x376>
    80d8:	80 e2       	ldi	r24, 0x20	; 32
    80da:	a7 fc       	sbrc	r10, 7
    80dc:	8d e2       	ldi	r24, 0x2D	; 45
    80de:	b6 01       	movw	r22, r12
    80e0:	90 e0       	ldi	r25, 0x00	; 0
    80e2:	50 d0       	rcall	.+160    	; 0x8184 <fputc>
    80e4:	89 14       	cp	r8, r9
    80e6:	30 f4       	brcc	.+12     	; 0x80f4 <vfprintf+0x390>
    80e8:	b6 01       	movw	r22, r12
    80ea:	80 e3       	ldi	r24, 0x30	; 48
    80ec:	90 e0       	ldi	r25, 0x00	; 0
    80ee:	4a d0       	rcall	.+148    	; 0x8184 <fputc>
    80f0:	9a 94       	dec	r9
    80f2:	f8 cf       	rjmp	.-16     	; 0x80e4 <vfprintf+0x380>
    80f4:	8a 94       	dec	r8
    80f6:	f3 01       	movw	r30, r6
    80f8:	e8 0d       	add	r30, r8
    80fa:	f1 1d       	adc	r31, r1
    80fc:	80 81       	ld	r24, Z
    80fe:	b6 01       	movw	r22, r12
    8100:	90 e0       	ldi	r25, 0x00	; 0
    8102:	40 d0       	rcall	.+128    	; 0x8184 <fputc>
    8104:	81 10       	cpse	r8, r1
    8106:	f6 cf       	rjmp	.-20     	; 0x80f4 <vfprintf+0x390>
    8108:	22 20       	and	r2, r2
    810a:	09 f4       	brne	.+2      	; 0x810e <vfprintf+0x3aa>
    810c:	4e ce       	rjmp	.-868    	; 0x7daa <vfprintf+0x46>
    810e:	b6 01       	movw	r22, r12
    8110:	80 e2       	ldi	r24, 0x20	; 32
    8112:	90 e0       	ldi	r25, 0x00	; 0
    8114:	37 d0       	rcall	.+110    	; 0x8184 <fputc>
    8116:	2a 94       	dec	r2
    8118:	f7 cf       	rjmp	.-18     	; 0x8108 <vfprintf+0x3a4>
    811a:	f6 01       	movw	r30, r12
    811c:	86 81       	ldd	r24, Z+6	; 0x06
    811e:	97 81       	ldd	r25, Z+7	; 0x07
    8120:	02 c0       	rjmp	.+4      	; 0x8126 <vfprintf+0x3c2>
    8122:	8f ef       	ldi	r24, 0xFF	; 255
    8124:	9f ef       	ldi	r25, 0xFF	; 255
    8126:	2b 96       	adiw	r28, 0x0b	; 11
    8128:	cd bf       	out	0x3d, r28	; 61
    812a:	de bf       	out	0x3e, r29	; 62
    812c:	df 91       	pop	r29
    812e:	cf 91       	pop	r28
    8130:	1f 91       	pop	r17
    8132:	0f 91       	pop	r16
    8134:	ff 90       	pop	r15
    8136:	ef 90       	pop	r14
    8138:	df 90       	pop	r13
    813a:	cf 90       	pop	r12
    813c:	bf 90       	pop	r11
    813e:	af 90       	pop	r10
    8140:	9f 90       	pop	r9
    8142:	8f 90       	pop	r8
    8144:	7f 90       	pop	r7
    8146:	6f 90       	pop	r6
    8148:	5f 90       	pop	r5
    814a:	4f 90       	pop	r4
    814c:	3f 90       	pop	r3
    814e:	2f 90       	pop	r2
    8150:	08 95       	ret

00008152 <__ctype_isfalse>:
    8152:	99 27       	eor	r25, r25
    8154:	88 27       	eor	r24, r24

00008156 <__ctype_istrue>:
    8156:	08 95       	ret

00008158 <strnlen_P>:
    8158:	fc 01       	movw	r30, r24
    815a:	05 90       	lpm	r0, Z+
    815c:	61 50       	subi	r22, 0x01	; 1
    815e:	70 40       	sbci	r23, 0x00	; 0
    8160:	01 10       	cpse	r0, r1
    8162:	d8 f7       	brcc	.-10     	; 0x815a <strnlen_P+0x2>
    8164:	80 95       	com	r24
    8166:	90 95       	com	r25
    8168:	8e 0f       	add	r24, r30
    816a:	9f 1f       	adc	r25, r31
    816c:	08 95       	ret

0000816e <strnlen>:
    816e:	fc 01       	movw	r30, r24
    8170:	61 50       	subi	r22, 0x01	; 1
    8172:	70 40       	sbci	r23, 0x00	; 0
    8174:	01 90       	ld	r0, Z+
    8176:	01 10       	cpse	r0, r1
    8178:	d8 f7       	brcc	.-10     	; 0x8170 <strnlen+0x2>
    817a:	80 95       	com	r24
    817c:	90 95       	com	r25
    817e:	8e 0f       	add	r24, r30
    8180:	9f 1f       	adc	r25, r31
    8182:	08 95       	ret

00008184 <fputc>:
    8184:	0f 93       	push	r16
    8186:	1f 93       	push	r17
    8188:	cf 93       	push	r28
    818a:	df 93       	push	r29
    818c:	fb 01       	movw	r30, r22
    818e:	23 81       	ldd	r18, Z+3	; 0x03
    8190:	21 fd       	sbrc	r18, 1
    8192:	03 c0       	rjmp	.+6      	; 0x819a <fputc+0x16>
    8194:	8f ef       	ldi	r24, 0xFF	; 255
    8196:	9f ef       	ldi	r25, 0xFF	; 255
    8198:	2c c0       	rjmp	.+88     	; 0x81f2 <fputc+0x6e>
    819a:	22 ff       	sbrs	r18, 2
    819c:	16 c0       	rjmp	.+44     	; 0x81ca <fputc+0x46>
    819e:	46 81       	ldd	r20, Z+6	; 0x06
    81a0:	57 81       	ldd	r21, Z+7	; 0x07
    81a2:	24 81       	ldd	r18, Z+4	; 0x04
    81a4:	35 81       	ldd	r19, Z+5	; 0x05
    81a6:	42 17       	cp	r20, r18
    81a8:	53 07       	cpc	r21, r19
    81aa:	44 f4       	brge	.+16     	; 0x81bc <fputc+0x38>
    81ac:	a0 81       	ld	r26, Z
    81ae:	b1 81       	ldd	r27, Z+1	; 0x01
    81b0:	9d 01       	movw	r18, r26
    81b2:	2f 5f       	subi	r18, 0xFF	; 255
    81b4:	3f 4f       	sbci	r19, 0xFF	; 255
    81b6:	20 83       	st	Z, r18
    81b8:	31 83       	std	Z+1, r19	; 0x01
    81ba:	8c 93       	st	X, r24
    81bc:	26 81       	ldd	r18, Z+6	; 0x06
    81be:	37 81       	ldd	r19, Z+7	; 0x07
    81c0:	2f 5f       	subi	r18, 0xFF	; 255
    81c2:	3f 4f       	sbci	r19, 0xFF	; 255
    81c4:	26 83       	std	Z+6, r18	; 0x06
    81c6:	37 83       	std	Z+7, r19	; 0x07
    81c8:	14 c0       	rjmp	.+40     	; 0x81f2 <fputc+0x6e>
    81ca:	8b 01       	movw	r16, r22
    81cc:	ec 01       	movw	r28, r24
    81ce:	fb 01       	movw	r30, r22
    81d0:	00 84       	ldd	r0, Z+8	; 0x08
    81d2:	f1 85       	ldd	r31, Z+9	; 0x09
    81d4:	e0 2d       	mov	r30, r0
    81d6:	19 95       	eicall
    81d8:	89 2b       	or	r24, r25
    81da:	e1 f6       	brne	.-72     	; 0x8194 <fputc+0x10>
    81dc:	d8 01       	movw	r26, r16
    81de:	16 96       	adiw	r26, 0x06	; 6
    81e0:	8d 91       	ld	r24, X+
    81e2:	9c 91       	ld	r25, X
    81e4:	17 97       	sbiw	r26, 0x07	; 7
    81e6:	01 96       	adiw	r24, 0x01	; 1
    81e8:	16 96       	adiw	r26, 0x06	; 6
    81ea:	8d 93       	st	X+, r24
    81ec:	9c 93       	st	X, r25
    81ee:	17 97       	sbiw	r26, 0x07	; 7
    81f0:	ce 01       	movw	r24, r28
    81f2:	df 91       	pop	r29
    81f4:	cf 91       	pop	r28
    81f6:	1f 91       	pop	r17
    81f8:	0f 91       	pop	r16
    81fa:	08 95       	ret

000081fc <__ultoa_invert>:
    81fc:	fa 01       	movw	r30, r20
    81fe:	aa 27       	eor	r26, r26
    8200:	28 30       	cpi	r18, 0x08	; 8
    8202:	51 f1       	breq	.+84     	; 0x8258 <__ultoa_invert+0x5c>
    8204:	20 31       	cpi	r18, 0x10	; 16
    8206:	81 f1       	breq	.+96     	; 0x8268 <__ultoa_invert+0x6c>
    8208:	e8 94       	clt
    820a:	6f 93       	push	r22
    820c:	6e 7f       	andi	r22, 0xFE	; 254
    820e:	6e 5f       	subi	r22, 0xFE	; 254
    8210:	7f 4f       	sbci	r23, 0xFF	; 255
    8212:	8f 4f       	sbci	r24, 0xFF	; 255
    8214:	9f 4f       	sbci	r25, 0xFF	; 255
    8216:	af 4f       	sbci	r26, 0xFF	; 255
    8218:	b1 e0       	ldi	r27, 0x01	; 1
    821a:	3e d0       	rcall	.+124    	; 0x8298 <__ultoa_invert+0x9c>
    821c:	b4 e0       	ldi	r27, 0x04	; 4
    821e:	3c d0       	rcall	.+120    	; 0x8298 <__ultoa_invert+0x9c>
    8220:	67 0f       	add	r22, r23
    8222:	78 1f       	adc	r23, r24
    8224:	89 1f       	adc	r24, r25
    8226:	9a 1f       	adc	r25, r26
    8228:	a1 1d       	adc	r26, r1
    822a:	68 0f       	add	r22, r24
    822c:	79 1f       	adc	r23, r25
    822e:	8a 1f       	adc	r24, r26
    8230:	91 1d       	adc	r25, r1
    8232:	a1 1d       	adc	r26, r1
    8234:	6a 0f       	add	r22, r26
    8236:	71 1d       	adc	r23, r1
    8238:	81 1d       	adc	r24, r1
    823a:	91 1d       	adc	r25, r1
    823c:	a1 1d       	adc	r26, r1
    823e:	20 d0       	rcall	.+64     	; 0x8280 <__ultoa_invert+0x84>
    8240:	09 f4       	brne	.+2      	; 0x8244 <__ultoa_invert+0x48>
    8242:	68 94       	set
    8244:	3f 91       	pop	r19
    8246:	2a e0       	ldi	r18, 0x0A	; 10
    8248:	26 9f       	mul	r18, r22
    824a:	11 24       	eor	r1, r1
    824c:	30 19       	sub	r19, r0
    824e:	30 5d       	subi	r19, 0xD0	; 208
    8250:	31 93       	st	Z+, r19
    8252:	de f6       	brtc	.-74     	; 0x820a <__ultoa_invert+0xe>
    8254:	cf 01       	movw	r24, r30
    8256:	08 95       	ret
    8258:	46 2f       	mov	r20, r22
    825a:	47 70       	andi	r20, 0x07	; 7
    825c:	40 5d       	subi	r20, 0xD0	; 208
    825e:	41 93       	st	Z+, r20
    8260:	b3 e0       	ldi	r27, 0x03	; 3
    8262:	0f d0       	rcall	.+30     	; 0x8282 <__ultoa_invert+0x86>
    8264:	c9 f7       	brne	.-14     	; 0x8258 <__ultoa_invert+0x5c>
    8266:	f6 cf       	rjmp	.-20     	; 0x8254 <__ultoa_invert+0x58>
    8268:	46 2f       	mov	r20, r22
    826a:	4f 70       	andi	r20, 0x0F	; 15
    826c:	40 5d       	subi	r20, 0xD0	; 208
    826e:	4a 33       	cpi	r20, 0x3A	; 58
    8270:	18 f0       	brcs	.+6      	; 0x8278 <__ultoa_invert+0x7c>
    8272:	49 5d       	subi	r20, 0xD9	; 217
    8274:	31 fd       	sbrc	r19, 1
    8276:	40 52       	subi	r20, 0x20	; 32
    8278:	41 93       	st	Z+, r20
    827a:	02 d0       	rcall	.+4      	; 0x8280 <__ultoa_invert+0x84>
    827c:	a9 f7       	brne	.-22     	; 0x8268 <__ultoa_invert+0x6c>
    827e:	ea cf       	rjmp	.-44     	; 0x8254 <__ultoa_invert+0x58>
    8280:	b4 e0       	ldi	r27, 0x04	; 4
    8282:	a6 95       	lsr	r26
    8284:	97 95       	ror	r25
    8286:	87 95       	ror	r24
    8288:	77 95       	ror	r23
    828a:	67 95       	ror	r22
    828c:	ba 95       	dec	r27
    828e:	c9 f7       	brne	.-14     	; 0x8282 <__ultoa_invert+0x86>
    8290:	00 97       	sbiw	r24, 0x00	; 0
    8292:	61 05       	cpc	r22, r1
    8294:	71 05       	cpc	r23, r1
    8296:	08 95       	ret
    8298:	9b 01       	movw	r18, r22
    829a:	ac 01       	movw	r20, r24
    829c:	0a 2e       	mov	r0, r26
    829e:	06 94       	lsr	r0
    82a0:	57 95       	ror	r21
    82a2:	47 95       	ror	r20
    82a4:	37 95       	ror	r19
    82a6:	27 95       	ror	r18
    82a8:	ba 95       	dec	r27
    82aa:	c9 f7       	brne	.-14     	; 0x829e <__ultoa_invert+0xa2>
    82ac:	62 0f       	add	r22, r18
    82ae:	73 1f       	adc	r23, r19
    82b0:	84 1f       	adc	r24, r20
    82b2:	95 1f       	adc	r25, r21
    82b4:	a0 1d       	adc	r26, r0
    82b6:	08 95       	ret

000082b8 <_exit>:
    82b8:	f8 94       	cli

000082ba <__stop_program>:
    82ba:	ff cf       	rjmp	.-2      	; 0x82ba <__stop_program>
